IR Lifting Benchmark Results
Started: Sat Oct 25 08:14:58 PM IST 2025
========================================

========================================
Processing sample 1: 01cb81472fb67987f335b861e7890f4395263d7d77e782241b83b7050b91de7e.elf
========================================

--- Ghidra P-code Analysis ---

Ghidra analysis: SUCCESS
==========================================
Ghidra Headless Analysis
==========================================
Binary:  /home/analyst/ir-alalysis/samples/malware/01cb81472fb67987f335b861e7890f4395263d7d77e782241b83b7050b91de7e.elf
Project: ghidra_analysis_01cb81472fb67987f335b861e7890f4395263d7d77e782241b83b7050b91de7e.elf_20251025_201458
Location: ./ghidra_projects
==========================================
INFO  Using log config file: jar:file:/home/analyst/ghidra/Ghidra/Framework/Generic/lib/Generic.jar!/generic.log4j.xml (LoggingInitialization)  
INFO  Using log file: /home/analyst/.config/ghidra/ghidra_11.4.2_PUBLIC/application.log (LoggingInitialization)  
INFO  Loading user preferences: /home/analyst/.config/ghidra/ghidra_11.4.2_PUBLIC/preferences (Preferences)  
INFO  Searching for classes... (ClassSearcher)  
INFO  Class search complete (2285 ms) (ClassSearcher)  
INFO  Initializing SSL Context (SSLContextInitializer)  
INFO  Initializing Random Number Generator... (SecureRandomFactory)  
INFO  Random Number Generator initialization complete: NativePRNGNonBlocking (SecureRandomFactory)  
INFO  Trust manager disabled, cacerts have not been set (ApplicationTrustManagerFactory)  
INFO  Starting cache cleanup: /var/tmp/analyst-ghidra/fscache2 (FileCacheMaintenanceDaemon)  
INFO  Finished cache cleanup, estimated storage used: 0 (FileCacheMaintenanceDaemon)  
INFO  Headless startup complete (7243 ms) (AnalyzeHeadless)  
INFO  Class searcher loaded 58 extension points (18 false positives) (ClassSearcher)  
INFO  HEADLESS Script Paths:
    /home/analyst/ghidra/Ghidra/Features/GnuDemangler/ghidra_scripts
    /home/analyst/ghidra/Ghidra/Features/BytePatterns/ghidra_scripts
    /home/analyst/ghidra/Ghidra/Features/SystemEmulation/ghidra_scripts
    /home/analyst/ghidra/Ghidra/Processors/DATA/ghidra_scripts
    /home/analyst/ghidra/Ghidra/Features/PyGhidra/ghidra_scripts
    /home/analyst/ghidra/Ghidra/Features/MicrosoftCodeAnalyzer/ghidra_scripts
    /home/analyst/ghidra/Ghidra/Features/Base/ghidra_scripts
    /home/analyst/ghidra/Ghidra/Features/Jython/ghidra_scripts
    /home/analyst/ghidra/Ghidra/Features/VersionTracking/ghidra_scripts
    /home/analyst/ghidra/Ghidra/Features/PDB/ghidra_scripts
    /home/analyst/ghidra/Ghidra/Processors/Atmel/ghidra_scripts
    /home/analyst/ghidra/Ghidra/Debug/Debugger-rmi-trace/ghidra_scripts
    /home/analyst/ghidra/Ghidra/Features/FileFormats/ghidra_scripts
    /home/analyst/ghidra/Ghidra/Processors/JVM/ghidra_scripts
    /home/analyst/ghidra/Ghidra/Debug/Debugger/ghidra_scripts
    /home/analyst/ghidra/Ghidra/Processors/PIC/ghidra_scripts
    /home/analyst/ghidra/Ghidra/Features/WildcardAssembler/ghidra_scripts
    /home/analyst/ghidra/Ghidra/Processors/8051/ghidra_scripts
    /home/analyst/ghidra/Ghidra/Features/Decompiler/ghidra_scripts
    /home/analyst/ghidra/Ghidra/Features/DecompilerDependent/ghidra_scripts
    /home/analyst/ghidra/Ghidra/Features/FunctionID/ghidra_scripts
    /home/analyst/ghidra/Ghidra/Features/SwiftDemangler/ghidra_scripts
    /home/analyst/ghidra/Ghidra/Features/BSim/ghidra_scripts (HeadlessAnalyzer)  
INFO  HEADLESS: execution starts (HeadlessAnalyzer)  
INFO  Creating temporary project: /home/analyst/ir-alalysis/./ghidra_projects/ghidra_analysis_01cb81472fb67987f335b861e7890f4395263d7d77e782241b83b7050b91de7e.elf_20251025_201458 (HeadlessAnalyzer)  
INFO  Creating project: /home/analyst/ir-alalysis/./ghidra_projects/ghidra_analysis_01cb81472fb67987f335b861e7890f4395263d7d77e782241b83b7050b91de7e.elf_20251025_201458 (DefaultProject)  
INFO  REPORT: Processing input files:  (HeadlessAnalyzer)  
INFO       project: /home/analyst/ir-alalysis/./ghidra_projects/ghidra_analysis_01cb81472fb67987f335b861e7890f4395263d7d77e782241b83b7050b91de7e.elf_20251025_201458 (HeadlessAnalyzer)  
INFO  IMPORTING: file:///home/analyst/ir-alalysis/samples/malware/01cb81472fb67987f335b861e7890f4395263d7d77e782241b83b7050b91de7e.elf (HeadlessAnalyzer)  
INFO  Using Loader: Executable and Linking Format (ELF) (AutoImporter)  
INFO  Using Language/Compiler: x86:LE:32:default:gcc (AutoImporter)  
INFO  Using Library Search Path: [., /bin, /lib, /lib64, /lib/x86_64-linux-gnu, /lib/aarch64-linux-gnu, /usr/bin, /usr/lib, /usr/X11R6/bin, /usr/X11R6/lib, /usr/java/packages/lib, /usr/lib/x86_64-linux-gnu/jni, /usr/lib/x86_64-linux-gnu, /usr/lib/jni] (AutoImporter)  
INFO  Additional info:
Loading file:///home/analyst/ir-alalysis/samples/malware/01cb81472fb67987f335b861e7890f4395263d7d77e782241b83b7050b91de7e.elf?MD5=3416aae853171b645d7177f0d57c928c...
Skipping zero-length segment [1,Loadable segment] at address ram:08060e88
------------------------------------------------

 (AutoImporter)  
INFO  IMPORTING: Loaded 0 additional files (HeadlessAnalyzer)  
INFO  ANALYZING all memory and code: file:///home/analyst/ir-alalysis/samples/malware/01cb81472fb67987f335b861e7890f4395263d7d77e782241b83b7050b91de7e.elf (HeadlessAnalyzer)  
ERROR REPORT: Analysis timed out at 0 seconds. Processing not completed for file: file:///home/analyst/ir-alalysis/samples/malware/01cb81472fb67987f335b861e7890f4395263d7d77e782241b83b7050b91de7e.elf (HeadlessAnalyzer)  
INFO  SCRIPT: /home/analyst/ir-alalysis/scripts/get_cfg_stats.py (HeadlessAnalyzer)  
GHIDRA_STATS:Functions=1
GHIDRA_STATS:BasicBlocks=0
GHIDRA_STATS:TotalPcodeOps=0
INFO  ANALYZING changes made by post scripts: file:///home/analyst/ir-alalysis/samples/malware/01cb81472fb67987f335b861e7890f4395263d7d77e782241b83b7050b91de7e.elf (HeadlessAnalyzer)  
INFO  REPORT: Post-analysis succeeded for file: file:///home/analyst/ir-alalysis/samples/malware/01cb81472fb67987f335b861e7890f4395263d7d77e782241b83b7050b91de7e.elf (HeadlessAnalyzer)  
INFO  REPORT: Save succeeded for: /01cb81472fb67987f335b861e7890f4395263d7d77e782241b83b7050b91de7e.elf (ghidra_analysis_01cb81472fb67987f335b861e7890f4395263d7d77e782241b83b7050b91de7e.elf_20251025_201458:/01cb81472fb67987f335b861e7890f4395263d7d77e782241b83b7050b91de7e.elf) (HeadlessAnalyzer)  
INFO  REPORT: Import succeeded (HeadlessAnalyzer)  
==========================================
Ghidra analysis completed successfully
==========================================

Ghidra CFG Stats:
GHIDRA_STATS:Functions=1
GHIDRA_STATS:BasicBlocks=0
GHIDRA_STATS:TotalPcodeOps=0

Ghidra Performance:
	Elapsed (wall clock) time (h:mm:ss or m:ss): 0:22.79
	Maximum resident set size (kbytes): 599596

--- angr VEX IR Analysis ---

angr analysis: SUCCESS
==================================================
angr VEX IR Analysis
==================================================
Binary: /home/analyst/ir-alalysis/samples/malware/01cb81472fb67987f335b861e7890f4395263d7d77e782241b83b7050b91de7e.elf
==================================================
Loading binary with angr...
Architecture: X86
Entry point: 0xc0ae20
Binary base address: 0xc01000

Generating CFG with angr...
Functions discovered: 2299
Basic blocks (CFG nodes): 4391
CFG edges: 2737

Counting VEX IR statements...
Total VEX statements: 187236

--- angr CFG & IR Stats ---
ANGR_STATS:Functions=2299
ANGR_STATS:Nodes=4391
ANGR_STATS:Edges=2737
ANGR_STATS:TotalVexStatements=187236
---------------------------

Sample functions (first 10):
  - sub_c01000 @ 0xc01000
  - sub_c010c3 @ 0xc010c3
  - sub_c010c7 @ 0xc010c7
  - sub_c010da @ 0xc010da
  - sub_c010e3 @ 0xc010e3
  - sub_c010fb @ 0xc010fb
  - sub_c010ff @ 0xc010ff
  - sub_c0112b @ 0xc0112b
  - sub_c0112e @ 0xc0112e
  - sub_c01157 @ 0xc01157
==================================================
angr analysis completed successfully
==================================================

angr CFG Stats:
ANGR_STATS:Functions=2299
ANGR_STATS:Nodes=4391
ANGR_STATS:Edges=2737
ANGR_STATS:TotalVexStatements=187236

angr Performance:
	Elapsed (wall clock) time (h:mm:ss or m:ss): 0:11.65
	Maximum resident set size (kbytes): 197084

--- LLVM IR Analysis ---

==========================================
LLVM IR Analysis
==========================================
Binary:  /home/analyst/ir-alalysis/samples/malware/01cb81472fb67987f335b861e7890f4395263d7d77e782241b83b7050b91de7e.elf
==========================================

Detected native binary (not LLVM bitcode)
Performing LLVM-based binary analysis...

--- Binary Information ---

/home/analyst/ir-alalysis/samples/malware/01cb81472fb67987f335b861e7890f4395263d7d77e782241b83b7050b91de7e.elf:	file format elf32-i386

Sections:
Idx Name          Size     VMA      Type

--- Disassembly (first 100 instructions) ---

/home/analyst/ir-alalysis/samples/malware/01cb81472fb67987f335b861e7890f4395263d7d77e782241b83b7050b91de7e.elf:	file format elf32-i386

--- Symbol Table (first 50 entries) ---

/home/analyst/ir-alalysis/samples/malware/01cb81472fb67987f335b861e7890f4395263d7d77e782241b83b7050b91de7e.elf:	file format elf32-i386

SYMBOL TABLE:

NOTE: For true binary-to-LLVM IR lifting, consider using:
  - mcsema: https://github.com/lifting-bits/mcsema
  - remill: https://github.com/lifting-bits/remill
  - rellic: https://github.com/lifting-bits/rellic

==========================================
LLVM analysis completed successfully
==========================================
LLVM analysis: SUCCESS
	Command being timed: "/home/analyst/ir-alalysis/scripts/analyze_llvm.sh /home/analyst/ir-alalysis/samples/malware/01cb81472fb67987f335b861e7890f4395263d7d77e782241b83b7050b91de7e.elf"
	User time (seconds): 0.02
	System time (seconds): 0.11
	Percent of CPU this job got: 41%
	Elapsed (wall clock) time (h:mm:ss or m:ss): 0:00.33
	Average shared text size (kbytes): 0
	Average unshared data size (kbytes): 0
	Average stack size (kbytes): 0
	Average total size (kbytes): 0
	Maximum resident set size (kbytes): 50944
	Average resident set size (kbytes): 0
	Major (requiring I/O) page faults: 349
	Minor (reclaiming a frame) page faults: 9788
	Voluntary context switches: 457
	Involuntary context switches: 51
	Swaps: 0
	File system inputs: 117656
	File system outputs: 0
	Socket messages sent: 0
	Socket messages received: 0
	Signals delivered: 0
	Page size (bytes): 4096
	Exit status: 0

Completed: 01cb81472fb67987f335b861e7890f4395263d7d77e782241b83b7050b91de7e.elf

========================================
Processing sample 2: 01d96226192c7356082ce55080b502fd6528fbb9a7e43864b859e918bbdc304a.elf
========================================

--- Ghidra P-code Analysis ---

Ghidra analysis: SUCCESS
==========================================
Ghidra Headless Analysis
==========================================
Binary:  /home/analyst/ir-alalysis/samples/malware/01d96226192c7356082ce55080b502fd6528fbb9a7e43864b859e918bbdc304a.elf
Project: ghidra_analysis_01d96226192c7356082ce55080b502fd6528fbb9a7e43864b859e918bbdc304a.elf_20251025_201533
Location: ./ghidra_projects
==========================================
INFO  Using log config file: jar:file:/home/analyst/ghidra/Ghidra/Framework/Generic/lib/Generic.jar!/generic.log4j.xml (LoggingInitialization)  
INFO  Using log file: /home/analyst/.config/ghidra/ghidra_11.4.2_PUBLIC/application.log (LoggingInitialization)  
INFO  Loading user preferences: /home/analyst/.config/ghidra/ghidra_11.4.2_PUBLIC/preferences (Preferences)  
INFO  Searching for classes... (ClassSearcher)  
INFO  Class search complete (1019 ms) (ClassSearcher)  
INFO  Initializing SSL Context (SSLContextInitializer)  
INFO  Initializing Random Number Generator... (SecureRandomFactory)  
INFO  Random Number Generator initialization complete: NativePRNGNonBlocking (SecureRandomFactory)  
INFO  Trust manager disabled, cacerts have not been set (ApplicationTrustManagerFactory)  
INFO  Headless startup complete (3217 ms) (AnalyzeHeadless)  
INFO  Class searcher loaded 58 extension points (18 false positives) (ClassSearcher)  
INFO  HEADLESS Script Paths:
    /home/analyst/ghidra/Ghidra/Features/GnuDemangler/ghidra_scripts
    /home/analyst/ghidra/Ghidra/Features/BytePatterns/ghidra_scripts
    /home/analyst/ghidra/Ghidra/Features/SystemEmulation/ghidra_scripts
    /home/analyst/ghidra/Ghidra/Processors/DATA/ghidra_scripts
    /home/analyst/ghidra/Ghidra/Features/PyGhidra/ghidra_scripts
    /home/analyst/ghidra/Ghidra/Features/MicrosoftCodeAnalyzer/ghidra_scripts
    /home/analyst/ghidra/Ghidra/Features/Base/ghidra_scripts
    /home/analyst/ghidra/Ghidra/Features/Jython/ghidra_scripts
    /home/analyst/ghidra/Ghidra/Features/VersionTracking/ghidra_scripts
    /home/analyst/ghidra/Ghidra/Features/PDB/ghidra_scripts
    /home/analyst/ghidra/Ghidra/Processors/Atmel/ghidra_scripts
    /home/analyst/ghidra/Ghidra/Debug/Debugger-rmi-trace/ghidra_scripts
    /home/analyst/ghidra/Ghidra/Features/FileFormats/ghidra_scripts
    /home/analyst/ghidra/Ghidra/Processors/JVM/ghidra_scripts
    /home/analyst/ghidra/Ghidra/Debug/Debugger/ghidra_scripts
    /home/analyst/ghidra/Ghidra/Processors/PIC/ghidra_scripts
    /home/analyst/ghidra/Ghidra/Features/WildcardAssembler/ghidra_scripts
    /home/analyst/ghidra/Ghidra/Processors/8051/ghidra_scripts
    /home/analyst/ghidra/Ghidra/Features/Decompiler/ghidra_scripts
    /home/analyst/ghidra/Ghidra/Features/DecompilerDependent/ghidra_scripts
    /home/analyst/ghidra/Ghidra/Features/FunctionID/ghidra_scripts
    /home/analyst/ghidra/Ghidra/Features/SwiftDemangler/ghidra_scripts
    /home/analyst/ghidra/Ghidra/Features/BSim/ghidra_scripts (HeadlessAnalyzer)  
INFO  HEADLESS: execution starts (HeadlessAnalyzer)  
INFO  Creating temporary project: /home/analyst/ir-alalysis/./ghidra_projects/ghidra_analysis_01d96226192c7356082ce55080b502fd6528fbb9a7e43864b859e918bbdc304a.elf_20251025_201533 (HeadlessAnalyzer)  
INFO  Creating project: /home/analyst/ir-alalysis/./ghidra_projects/ghidra_analysis_01d96226192c7356082ce55080b502fd6528fbb9a7e43864b859e918bbdc304a.elf_20251025_201533 (DefaultProject)  
INFO  REPORT: Processing input files:  (HeadlessAnalyzer)  
INFO       project: /home/analyst/ir-alalysis/./ghidra_projects/ghidra_analysis_01d96226192c7356082ce55080b502fd6528fbb9a7e43864b859e918bbdc304a.elf_20251025_201533 (HeadlessAnalyzer)  
INFO  IMPORTING: file:///home/analyst/ir-alalysis/samples/malware/01d96226192c7356082ce55080b502fd6528fbb9a7e43864b859e918bbdc304a.elf (HeadlessAnalyzer)  
INFO  Using Loader: Executable and Linking Format (ELF) (AutoImporter)  
INFO  Using Language/Compiler: ARM:LE:32:v8:default (AutoImporter)  
INFO  Using Library Search Path: [., /bin, /lib, /lib64, /lib/x86_64-linux-gnu, /lib/aarch64-linux-gnu, /usr/bin, /usr/lib, /usr/X11R6/bin, /usr/X11R6/lib, /usr/java/packages/lib, /usr/lib/x86_64-linux-gnu/jni, /usr/lib/x86_64-linux-gnu, /usr/lib/jni] (AutoImporter)  
INFO  Additional info:
Loading file:///home/analyst/ir-alalysis/samples/malware/01d96226192c7356082ce55080b502fd6528fbb9a7e43864b859e918bbdc304a.elf?MD5=9bedd841adb78e1c6edd5f644b139eb1...
Skipping zero-length segment [1,Loadable segment] at address ram:0003c4ec
------------------------------------------------

 (AutoImporter)  
INFO  IMPORTING: Loaded 0 additional files (HeadlessAnalyzer)  
INFO  ANALYZING all memory and code: file:///home/analyst/ir-alalysis/samples/malware/01d96226192c7356082ce55080b502fd6528fbb9a7e43864b859e918bbdc304a.elf (HeadlessAnalyzer)  
ERROR REPORT: Analysis timed out at 0 seconds. Processing not completed for file: file:///home/analyst/ir-alalysis/samples/malware/01d96226192c7356082ce55080b502fd6528fbb9a7e43864b859e918bbdc304a.elf (HeadlessAnalyzer)  
INFO  SCRIPT: /home/analyst/ir-alalysis/scripts/get_cfg_stats.py (HeadlessAnalyzer)  
GHIDRA_STATS:Functions=1
GHIDRA_STATS:BasicBlocks=0
GHIDRA_STATS:TotalPcodeOps=0
INFO  ANALYZING changes made by post scripts: file:///home/analyst/ir-alalysis/samples/malware/01d96226192c7356082ce55080b502fd6528fbb9a7e43864b859e918bbdc304a.elf (HeadlessAnalyzer)  
INFO  REPORT: Post-analysis succeeded for file: file:///home/analyst/ir-alalysis/samples/malware/01d96226192c7356082ce55080b502fd6528fbb9a7e43864b859e918bbdc304a.elf (HeadlessAnalyzer)  
INFO  REPORT: Save succeeded for: /01d96226192c7356082ce55080b502fd6528fbb9a7e43864b859e918bbdc304a.elf (ghidra_analysis_01d96226192c7356082ce55080b502fd6528fbb9a7e43864b859e918bbdc304a.elf_20251025_201533:/01d96226192c7356082ce55080b502fd6528fbb9a7e43864b859e918bbdc304a.elf) (HeadlessAnalyzer)  
INFO  REPORT: Import succeeded (HeadlessAnalyzer)  
==========================================
Ghidra analysis completed successfully
==========================================

Ghidra CFG Stats:
GHIDRA_STATS:Functions=1
GHIDRA_STATS:BasicBlocks=0
GHIDRA_STATS:TotalPcodeOps=0

Ghidra Performance:
	Elapsed (wall clock) time (h:mm:ss or m:ss): 0:13.76
	Maximum resident set size (kbytes): 705832

--- angr VEX IR Analysis ---

angr analysis: SUCCESS
==================================================
angr VEX IR Analysis
==================================================
Binary: /home/analyst/ir-alalysis/samples/malware/01d96226192c7356082ce55080b502fd6528fbb9a7e43864b859e918bbdc304a.elf
==================================================
Loading binary with angr...
Architecture: ARMEL
Entry point: 0x14ed8
Binary base address: 0x8000

Generating CFG with angr...
Functions discovered: 342
Basic blocks (CFG nodes): 552
CFG edges: 334

Counting VEX IR statements...
Total VEX statements: 16439

--- angr CFG & IR Stats ---
ANGR_STATS:Functions=342
ANGR_STATS:Nodes=552
ANGR_STATS:Edges=334
ANGR_STATS:TotalVexStatements=16439
---------------------------

Sample functions (first 10):
  - sub_8004 @ 0x8004
  - sub_8053 @ 0x8053
  - sub_808d @ 0x808d
  - sub_80c3 @ 0x80c3
  - sub_80f9 @ 0x80f9
  - sub_80fe @ 0x80fe
  - sub_8105 @ 0x8105
  - sub_8124 @ 0x8124
  - sub_812c @ 0x812c
  - sub_8130 @ 0x8130
==================================================
angr analysis completed successfully
==================================================

angr CFG Stats:
ANGR_STATS:Functions=342
ANGR_STATS:Nodes=552
ANGR_STATS:Edges=334
ANGR_STATS:TotalVexStatements=16439

angr Performance:
	Elapsed (wall clock) time (h:mm:ss or m:ss): 0:07.93
	Maximum resident set size (kbytes): 140636

--- LLVM IR Analysis ---

==========================================
LLVM IR Analysis
==========================================
Binary:  /home/analyst/ir-alalysis/samples/malware/01d96226192c7356082ce55080b502fd6528fbb9a7e43864b859e918bbdc304a.elf
==========================================

Detected native binary (not LLVM bitcode)
Performing LLVM-based binary analysis...

--- Binary Information ---

/home/analyst/ir-alalysis/samples/malware/01d96226192c7356082ce55080b502fd6528fbb9a7e43864b859e918bbdc304a.elf:	file format elf32-littlearm

Sections:
Idx Name          Size     VMA      Type

--- Disassembly (first 100 instructions) ---

/home/analyst/ir-alalysis/samples/malware/01d96226192c7356082ce55080b502fd6528fbb9a7e43864b859e918bbdc304a.elf:	file format elf32-littlearm

--- Symbol Table (first 50 entries) ---

/home/analyst/ir-alalysis/samples/malware/01d96226192c7356082ce55080b502fd6528fbb9a7e43864b859e918bbdc304a.elf:	file format elf32-littlearm

SYMBOL TABLE:

NOTE: For true binary-to-LLVM IR lifting, consider using:
  - mcsema: https://github.com/lifting-bits/mcsema
  - remill: https://github.com/lifting-bits/remill
  - rellic: https://github.com/lifting-bits/rellic

==========================================
LLVM analysis completed successfully
==========================================
LLVM analysis: SUCCESS
	Command being timed: "/home/analyst/ir-alalysis/scripts/analyze_llvm.sh /home/analyst/ir-alalysis/samples/malware/01d96226192c7356082ce55080b502fd6528fbb9a7e43864b859e918bbdc304a.elf"
	User time (seconds): 0.02
	System time (seconds): 0.06
	Percent of CPU this job got: 78%
	Elapsed (wall clock) time (h:mm:ss or m:ss): 0:00.11
	Average shared text size (kbytes): 0
	Average unshared data size (kbytes): 0
	Average stack size (kbytes): 0
	Average total size (kbytes): 0
	Maximum resident set size (kbytes): 51072
	Average resident set size (kbytes): 0
	Major (requiring I/O) page faults: 4
	Minor (reclaiming a frame) page faults: 9966
	Voluntary context switches: 26
	Involuntary context switches: 46
	Swaps: 0
	File system inputs: 760
	File system outputs: 0
	Socket messages sent: 0
	Socket messages received: 0
	Signals delivered: 0
	Page size (bytes): 4096
	Exit status: 0

Completed: 01d96226192c7356082ce55080b502fd6528fbb9a7e43864b859e918bbdc304a.elf

========================================
Processing sample 3: 0acae09d31c947928cc33d8975aa35b162f629574a4f58005a0c632dfe0bc077.sh
========================================

--- Ghidra P-code Analysis ---

Ghidra analysis: SUCCESS
==========================================
Ghidra Headless Analysis
==========================================
Binary:  /home/analyst/ir-alalysis/samples/malware/0acae09d31c947928cc33d8975aa35b162f629574a4f58005a0c632dfe0bc077.sh
Project: ghidra_analysis_0acae09d31c947928cc33d8975aa35b162f629574a4f58005a0c632dfe0bc077.sh_20251025_201555
Location: ./ghidra_projects
==========================================
INFO  Using log config file: jar:file:/home/analyst/ghidra/Ghidra/Framework/Generic/lib/Generic.jar!/generic.log4j.xml (LoggingInitialization)  
INFO  Using log file: /home/analyst/.config/ghidra/ghidra_11.4.2_PUBLIC/application.log (LoggingInitialization)  
INFO  Loading user preferences: /home/analyst/.config/ghidra/ghidra_11.4.2_PUBLIC/preferences (Preferences)  
INFO  Searching for classes... (ClassSearcher)  
INFO  Class search complete (1068 ms) (ClassSearcher)  
INFO  Initializing SSL Context (SSLContextInitializer)  
INFO  Initializing Random Number Generator... (SecureRandomFactory)  
INFO  Random Number Generator initialization complete: NativePRNGNonBlocking (SecureRandomFactory)  
INFO  Trust manager disabled, cacerts have not been set (ApplicationTrustManagerFactory)  
INFO  Headless startup complete (3011 ms) (AnalyzeHeadless)  
INFO  Class searcher loaded 58 extension points (18 false positives) (ClassSearcher)  
INFO  HEADLESS Script Paths:
    /home/analyst/ghidra/Ghidra/Features/GnuDemangler/ghidra_scripts
    /home/analyst/ghidra/Ghidra/Features/BytePatterns/ghidra_scripts
    /home/analyst/ghidra/Ghidra/Features/SystemEmulation/ghidra_scripts
    /home/analyst/ghidra/Ghidra/Processors/DATA/ghidra_scripts
    /home/analyst/ghidra/Ghidra/Features/PyGhidra/ghidra_scripts
    /home/analyst/ghidra/Ghidra/Features/MicrosoftCodeAnalyzer/ghidra_scripts
    /home/analyst/ghidra/Ghidra/Features/Base/ghidra_scripts
    /home/analyst/ghidra/Ghidra/Features/Jython/ghidra_scripts
    /home/analyst/ghidra/Ghidra/Features/VersionTracking/ghidra_scripts
    /home/analyst/ghidra/Ghidra/Features/PDB/ghidra_scripts
    /home/analyst/ghidra/Ghidra/Processors/Atmel/ghidra_scripts
    /home/analyst/ghidra/Ghidra/Debug/Debugger-rmi-trace/ghidra_scripts
    /home/analyst/ghidra/Ghidra/Features/FileFormats/ghidra_scripts
    /home/analyst/ghidra/Ghidra/Processors/JVM/ghidra_scripts
    /home/analyst/ghidra/Ghidra/Debug/Debugger/ghidra_scripts
    /home/analyst/ghidra/Ghidra/Processors/PIC/ghidra_scripts
    /home/analyst/ghidra/Ghidra/Features/WildcardAssembler/ghidra_scripts
    /home/analyst/ghidra/Ghidra/Processors/8051/ghidra_scripts
    /home/analyst/ghidra/Ghidra/Features/Decompiler/ghidra_scripts
    /home/analyst/ghidra/Ghidra/Features/DecompilerDependent/ghidra_scripts
    /home/analyst/ghidra/Ghidra/Features/FunctionID/ghidra_scripts
    /home/analyst/ghidra/Ghidra/Features/SwiftDemangler/ghidra_scripts
    /home/analyst/ghidra/Ghidra/Features/BSim/ghidra_scripts (HeadlessAnalyzer)  
INFO  HEADLESS: execution starts (HeadlessAnalyzer)  
INFO  Creating temporary project: /home/analyst/ir-alalysis/./ghidra_projects/ghidra_analysis_0acae09d31c947928cc33d8975aa35b162f629574a4f58005a0c632dfe0bc077.sh_20251025_201555 (HeadlessAnalyzer)  
INFO  Creating project: /home/analyst/ir-alalysis/./ghidra_projects/ghidra_analysis_0acae09d31c947928cc33d8975aa35b162f629574a4f58005a0c632dfe0bc077.sh_20251025_201555 (DefaultProject)  
INFO  REPORT: Processing input files:  (HeadlessAnalyzer)  
INFO       project: /home/analyst/ir-alalysis/./ghidra_projects/ghidra_analysis_0acae09d31c947928cc33d8975aa35b162f629574a4f58005a0c632dfe0bc077.sh_20251025_201555 (HeadlessAnalyzer)  
INFO  IMPORTING: file:///home/analyst/ir-alalysis/samples/malware/0acae09d31c947928cc33d8975aa35b162f629574a4f58005a0c632dfe0bc077.sh (HeadlessAnalyzer)  
INFO  No load spec found for import file: /home/analyst/ir-alalysis/samples/malware/0acae09d31c947928cc33d8975aa35b162f629574a4f58005a0c632dfe0bc077.sh (AutoImporter)  
ERROR The AutoImporter could not successfully load file:///home/analyst/ir-alalysis/samples/malware/0acae09d31c947928cc33d8975aa35b162f629574a4f58005a0c632dfe0bc077.sh with the provided import parameters. Please ensure that any specified processor/cspec arguments are compatible with the loader that is used during import and try again. (HeadlessAnalyzer)  
ERROR REPORT: Import failed for file: file:///home/analyst/ir-alalysis/samples/malware/0acae09d31c947928cc33d8975aa35b162f629574a4f58005a0c632dfe0bc077.sh (HeadlessAnalyzer)  
==========================================
Ghidra analysis completed successfully
==========================================

Ghidra CFG Stats:
  (CFG stats not available)

Ghidra Performance:
	Elapsed (wall clock) time (h:mm:ss or m:ss): 0:05.53
	Maximum resident set size (kbytes): 200928

--- angr VEX IR Analysis ---

angr analysis: FAILED
==================================================
angr VEX IR Analysis
==================================================
Binary: /home/analyst/ir-alalysis/samples/malware/0acae09d31c947928cc33d8975aa35b162f629574a4f58005a0c632dfe0bc077.sh
==================================================
Loading binary with angr...

angr CFG Stats:
  (CFG stats not available)

angr Performance:
	Elapsed (wall clock) time (h:mm:ss or m:ss): 0:01.03
	Maximum resident set size (kbytes): 100952

--- LLVM IR Analysis ---

==========================================
LLVM IR Analysis
==========================================
Binary:  /home/analyst/ir-alalysis/samples/malware/0acae09d31c947928cc33d8975aa35b162f629574a4f58005a0c632dfe0bc077.sh
==========================================

Detected native binary (not LLVM bitcode)
Performing LLVM-based binary analysis...

--- Binary Information ---
llvm-objdump: error: '/home/analyst/ir-alalysis/samples/malware/0acae09d31c947928cc33d8975aa35b162f629574a4f58005a0c632dfe0bc077.sh': The file was not recognized as a valid object file

--- Disassembly (first 100 instructions) ---
llvm-objdump: error: '/home/analyst/ir-alalysis/samples/malware/0acae09d31c947928cc33d8975aa35b162f629574a4f58005a0c632dfe0bc077.sh': The file was not recognized as a valid object file

--- Symbol Table (first 50 entries) ---
llvm-objdump: error: '/home/analyst/ir-alalysis/samples/malware/0acae09d31c947928cc33d8975aa35b162f629574a4f58005a0c632dfe0bc077.sh': The file was not recognized as a valid object file

NOTE: For true binary-to-LLVM IR lifting, consider using:
  - mcsema: https://github.com/lifting-bits/mcsema
  - remill: https://github.com/lifting-bits/remill
  - rellic: https://github.com/lifting-bits/rellic

==========================================
LLVM analysis completed successfully
==========================================
LLVM analysis: SUCCESS
	Command being timed: "/home/analyst/ir-alalysis/scripts/analyze_llvm.sh /home/analyst/ir-alalysis/samples/malware/0acae09d31c947928cc33d8975aa35b162f629574a4f58005a0c632dfe0bc077.sh"
	User time (seconds): 0.02
	System time (seconds): 0.06
	Percent of CPU this job got: 56%
	Elapsed (wall clock) time (h:mm:ss or m:ss): 0:00.16
	Average shared text size (kbytes): 0
	Average unshared data size (kbytes): 0
	Average stack size (kbytes): 0
	Average total size (kbytes): 0
	Maximum resident set size (kbytes): 50176
	Average resident set size (kbytes): 0
	Major (requiring I/O) page faults: 0
	Minor (reclaiming a frame) page faults: 10001
	Voluntary context switches: 44
	Involuntary context switches: 88
	Swaps: 0
	File system inputs: 9392
	File system outputs: 0
	Socket messages sent: 0
	Socket messages received: 0
	Signals delivered: 0
	Page size (bytes): 4096
	Exit status: 0

Completed: 0acae09d31c947928cc33d8975aa35b162f629574a4f58005a0c632dfe0bc077.sh

========================================
Processing sample 4: 0e26464afe9ff562e86b5a7b8b576a7afb6782654e830af234a20d0275de06e4.elf
========================================

--- Ghidra P-code Analysis ---

Ghidra analysis: SUCCESS
==========================================
Ghidra Headless Analysis
==========================================
Binary:  /home/analyst/ir-alalysis/samples/malware/0e26464afe9ff562e86b5a7b8b576a7afb6782654e830af234a20d0275de06e4.elf
Project: ghidra_analysis_0e26464afe9ff562e86b5a7b8b576a7afb6782654e830af234a20d0275de06e4.elf_20251025_201602
Location: ./ghidra_projects
==========================================
INFO  Using log config file: jar:file:/home/analyst/ghidra/Ghidra/Framework/Generic/lib/Generic.jar!/generic.log4j.xml (LoggingInitialization)  
INFO  Using log file: /home/analyst/.config/ghidra/ghidra_11.4.2_PUBLIC/application.log (LoggingInitialization)  
INFO  Loading user preferences: /home/analyst/.config/ghidra/ghidra_11.4.2_PUBLIC/preferences (Preferences)  
INFO  Searching for classes... (ClassSearcher)  
INFO  Class search complete (1062 ms) (ClassSearcher)  
INFO  Initializing SSL Context (SSLContextInitializer)  
INFO  Initializing Random Number Generator... (SecureRandomFactory)  
INFO  Random Number Generator initialization complete: NativePRNGNonBlocking (SecureRandomFactory)  
INFO  Trust manager disabled, cacerts have not been set (ApplicationTrustManagerFactory)  
INFO  Headless startup complete (2986 ms) (AnalyzeHeadless)  
INFO  Class searcher loaded 58 extension points (18 false positives) (ClassSearcher)  
INFO  HEADLESS Script Paths:
    /home/analyst/ghidra/Ghidra/Features/GnuDemangler/ghidra_scripts
    /home/analyst/ghidra/Ghidra/Features/BytePatterns/ghidra_scripts
    /home/analyst/ghidra/Ghidra/Features/SystemEmulation/ghidra_scripts
    /home/analyst/ghidra/Ghidra/Processors/DATA/ghidra_scripts
    /home/analyst/ghidra/Ghidra/Features/PyGhidra/ghidra_scripts
    /home/analyst/ghidra/Ghidra/Features/MicrosoftCodeAnalyzer/ghidra_scripts
    /home/analyst/ghidra/Ghidra/Features/Base/ghidra_scripts
    /home/analyst/ghidra/Ghidra/Features/Jython/ghidra_scripts
    /home/analyst/ghidra/Ghidra/Features/VersionTracking/ghidra_scripts
    /home/analyst/ghidra/Ghidra/Features/PDB/ghidra_scripts
    /home/analyst/ghidra/Ghidra/Processors/Atmel/ghidra_scripts
    /home/analyst/ghidra/Ghidra/Debug/Debugger-rmi-trace/ghidra_scripts
    /home/analyst/ghidra/Ghidra/Features/FileFormats/ghidra_scripts
    /home/analyst/ghidra/Ghidra/Processors/JVM/ghidra_scripts
    /home/analyst/ghidra/Ghidra/Debug/Debugger/ghidra_scripts
    /home/analyst/ghidra/Ghidra/Processors/PIC/ghidra_scripts
    /home/analyst/ghidra/Ghidra/Features/WildcardAssembler/ghidra_scripts
    /home/analyst/ghidra/Ghidra/Processors/8051/ghidra_scripts
    /home/analyst/ghidra/Ghidra/Features/Decompiler/ghidra_scripts
    /home/analyst/ghidra/Ghidra/Features/DecompilerDependent/ghidra_scripts
    /home/analyst/ghidra/Ghidra/Features/FunctionID/ghidra_scripts
    /home/analyst/ghidra/Ghidra/Features/SwiftDemangler/ghidra_scripts
    /home/analyst/ghidra/Ghidra/Features/BSim/ghidra_scripts (HeadlessAnalyzer)  
INFO  HEADLESS: execution starts (HeadlessAnalyzer)  
INFO  Creating temporary project: /home/analyst/ir-alalysis/./ghidra_projects/ghidra_analysis_0e26464afe9ff562e86b5a7b8b576a7afb6782654e830af234a20d0275de06e4.elf_20251025_201602 (HeadlessAnalyzer)  
INFO  Creating project: /home/analyst/ir-alalysis/./ghidra_projects/ghidra_analysis_0e26464afe9ff562e86b5a7b8b576a7afb6782654e830af234a20d0275de06e4.elf_20251025_201602 (DefaultProject)  
INFO  REPORT: Processing input files:  (HeadlessAnalyzer)  
INFO       project: /home/analyst/ir-alalysis/./ghidra_projects/ghidra_analysis_0e26464afe9ff562e86b5a7b8b576a7afb6782654e830af234a20d0275de06e4.elf_20251025_201602 (HeadlessAnalyzer)  
INFO  IMPORTING: file:///home/analyst/ir-alalysis/samples/malware/0e26464afe9ff562e86b5a7b8b576a7afb6782654e830af234a20d0275de06e4.elf (HeadlessAnalyzer)  
INFO  Using Loader: Executable and Linking Format (ELF) (AutoImporter)  
INFO  Using Language/Compiler: x86:LE:64:default:gcc (AutoImporter)  
INFO  Using Library Search Path: [., /bin, /lib, /lib64, /lib/x86_64-linux-gnu, /lib/aarch64-linux-gnu, /usr/bin, /usr/lib, /usr/X11R6/bin, /usr/X11R6/lib, /usr/java/packages/lib, /usr/lib/x86_64-linux-gnu/jni, /usr/lib/x86_64-linux-gnu, /usr/lib/jni] (AutoImporter)  
INFO  Additional info:
Loading file:///home/analyst/ir-alalysis/samples/malware/0e26464afe9ff562e86b5a7b8b576a7afb6782654e830af234a20d0275de06e4.elf?MD5=fa59ad9ab5639818029be0d98f5eebd7...
------------------------------------------------

 (AutoImporter)  
INFO  IMPORTING: Loaded 0 additional files (HeadlessAnalyzer)  
INFO  ANALYZING all memory and code: file:///home/analyst/ir-alalysis/samples/malware/0e26464afe9ff562e86b5a7b8b576a7afb6782654e830af234a20d0275de06e4.elf (HeadlessAnalyzer)  
ERROR REPORT: Analysis timed out at 0 seconds. Processing not completed for file: file:///home/analyst/ir-alalysis/samples/malware/0e26464afe9ff562e86b5a7b8b576a7afb6782654e830af234a20d0275de06e4.elf (HeadlessAnalyzer)  
INFO  SCRIPT: /home/analyst/ir-alalysis/scripts/get_cfg_stats.py (HeadlessAnalyzer)  
GHIDRA_STATS:Functions=1
GHIDRA_STATS:BasicBlocks=0
GHIDRA_STATS:TotalPcodeOps=0
INFO  ANALYZING changes made by post scripts: file:///home/analyst/ir-alalysis/samples/malware/0e26464afe9ff562e86b5a7b8b576a7afb6782654e830af234a20d0275de06e4.elf (HeadlessAnalyzer)  
INFO  REPORT: Post-analysis succeeded for file: file:///home/analyst/ir-alalysis/samples/malware/0e26464afe9ff562e86b5a7b8b576a7afb6782654e830af234a20d0275de06e4.elf (HeadlessAnalyzer)  
INFO  REPORT: Save succeeded for: /0e26464afe9ff562e86b5a7b8b576a7afb6782654e830af234a20d0275de06e4.elf (ghidra_analysis_0e26464afe9ff562e86b5a7b8b576a7afb6782654e830af234a20d0275de06e4.elf_20251025_201602:/0e26464afe9ff562e86b5a7b8b576a7afb6782654e830af234a20d0275de06e4.elf) (HeadlessAnalyzer)  
INFO  REPORT: Import succeeded (HeadlessAnalyzer)  
==========================================
Ghidra analysis completed successfully
==========================================

Ghidra CFG Stats:
GHIDRA_STATS:Functions=1
GHIDRA_STATS:BasicBlocks=0
GHIDRA_STATS:TotalPcodeOps=0

Ghidra Performance:
	Elapsed (wall clock) time (h:mm:ss or m:ss): 0:13.98
	Maximum resident set size (kbytes): 684480

--- angr VEX IR Analysis ---

angr analysis: FAILED
==================================================
angr VEX IR Analysis
==================================================
Binary: /home/analyst/ir-alalysis/samples/malware/0e26464afe9ff562e86b5a7b8b576a7afb6782654e830af234a20d0275de06e4.elf
==================================================
Loading binary with angr...
Architecture: AMD64
Entry point: 0x400194
Binary base address: 0x400000

Generating CFG with angr...

angr CFG Stats:
  (CFG stats not available)

angr Performance:
	Elapsed (wall clock) time (h:mm:ss or m:ss): 0:02.00
	Maximum resident set size (kbytes): 131288

--- LLVM IR Analysis ---

==========================================
LLVM IR Analysis
==========================================
Binary:  /home/analyst/ir-alalysis/samples/malware/0e26464afe9ff562e86b5a7b8b576a7afb6782654e830af234a20d0275de06e4.elf
==========================================

Detected native binary (not LLVM bitcode)
Performing LLVM-based binary analysis...

--- Binary Information ---

/home/analyst/ir-alalysis/samples/malware/0e26464afe9ff562e86b5a7b8b576a7afb6782654e830af234a20d0275de06e4.elf:	file format elf64-x86-64

Sections:
Idx Name          Size     VMA              Type
  0               00000000 0000000000000000 
  1 .init         00000013 00000000004000e8 TEXT
  2 .text         0000b156 0000000000400100 TEXT
  3 .fini         0000000e 000000000040b256 TEXT
  4 .rodata       00000f40 000000000040b280 DATA
  5 .ctors        00000010 000000000050d000 DATA
  6 .dtors        00000010 000000000050d010 DATA
  7 .data         00000200 000000000050d040 DATA
  8 .bss          00000c28 000000000050d240 BSS
  9 .shstrtab     0000003e 0000000000000000 

--- Disassembly (first 100 instructions) ---

/home/analyst/ir-alalysis/samples/malware/0e26464afe9ff562e86b5a7b8b576a7afb6782654e830af234a20d0275de06e4.elf:	file format elf64-x86-64

Disassembly of section .init:

00000000004000e8 <.init>:
  4000e8: 48 83 ec 08                  	subq	$8, %rsp
  4000ec: e8 5f 00 00 00               	callq	0x400150
  4000f1: e8 2a b1 00 00               	callq	0x40b220
  4000f6: 48 83 c4 08                  	addq	$8, %rsp
  4000fa: c3                           	retq

Disassembly of section .text:

0000000000400100 <.text>:
  400100: 80 3d 39 d1 10 00 00         	cmpb	$0, 1102137(%rip)       # 0x50d240
  400107: 55                           	pushq	%rbp
  400108: 48 89 e5                     	movq	%rsp, %rbp
  40010b: 74 10                        	je	0x40011d <.text+0x1d>
  40010d: eb 38                        	jmp	0x400147 <.text+0x47>
  40010f: 90                           	nop
  400110: 48 83 c0 08                  	addq	$8, %rax
  400114: 48 89 05 2d cf 10 00         	movq	%rax, 1101613(%rip)     # 0x50d048
  40011b: ff d2                        	callq	*%rdx
  40011d: 48 8b 05 24 cf 10 00         	movq	1101604(%rip), %rax     # 0x50d048
  400124: 48 8b 10                     	movq	(%rax), %rdx
  400127: 48 85 d2                     	testq	%rdx, %rdx
  40012a: 75 e4                        	jne	0x400110 <.text+0x10>
  40012c: b8 00 00 00 00               	movl	$0, %eax
  400131: 48 85 c0                     	testq	%rax, %rax
  400134: 74 0a                        	je	0x400140 <.text+0x40>
  400136: bf c0 c1 40 00               	movl	$4243904, %edi          # imm = 0x40C1C0
  40013b: e8 c0 fe bf ff               	callq	0x0
  400140: c6 05 f9 d0 10 00 01         	movb	$1, 1102073(%rip)       # 0x50d240
  400147: c9                           	leave
  400148: c3                           	retq
  400149: 66 66 66 90                  	nop
  40014d: 66 66 90                     	nop
  400150: 55                           	pushq	%rbp
  400151: b8 00 00 00 00               	movl	$0, %eax
  400156: 48 85 c0                     	testq	%rax, %rax
  400159: 48 89 e5                     	movq	%rsp, %rbp
  40015c: 74 0f                        	je	0x40016d <.text+0x6d>
  40015e: be 60 d2 50 00               	movl	$5296736, %esi          # imm = 0x50D260
  400163: bf c0 c1 40 00               	movl	$4243904, %edi          # imm = 0x40C1C0
  400168: e8 93 fe bf ff               	callq	0x0
  40016d: 48 83 3d ab ce 10 00 00      	cmpq	$0, 1101483(%rip)       # 0x50d020
  400175: 74 19                        	je	0x400190 <.text+0x90>
  400177: b8 00 00 00 00               	movl	$0, %eax
  40017c: 48 85 c0                     	testq	%rax, %rax
  40017f: 74 0f                        	je	0x400190 <.text+0x90>
  400181: bf 20 d0 50 00               	movl	$5296160, %edi          # imm = 0x50D020
  400186: 49 89 c3                     	movq	%rax, %r11
  400189: c9                           	leave
  40018a: 41 ff e3                     	jmpq	*%r11
  40018d: 66 66 90                     	nop
  400190: c9                           	leave
  400191: c3                           	retq
  400192: 90                           	nop
  400193: 90                           	nop
  400194: 31 ed                        	xorl	%ebp, %ebp
  400196: 49 89 d1                     	movq	%rdx, %r9
  400199: 5e                           	popq	%rsi
  40019a: 48 89 e2                     	movq	%rsp, %rdx
  40019d: 48 83 e4 f0                  	andq	$-16, %rsp
  4001a1: 50                           	pushq	%rax
  4001a2: 54                           	pushq	%rsp
  4001a3: 48 c7 c7 40 5c 40 00         	movq	$4217920, %rdi          # imm = 0x405C40
  4001aa: 48 c7 c1 e8 00 40 00         	movq	$4194536, %rcx          # imm = 0x4000E8
  4001b1: 49 c7 c0 56 b2 40 00         	movq	$4239958, %r8           # imm = 0x40B256
  4001b8: e8 9d a6 00 00               	callq	0x40a85a <.text+0xa75a>
  4001bd: f4                           	hlt
  4001be: 90                           	nop
  4001bf: 90                           	nop
  4001c0: 40 0f b6 ff                  	movzbl	%dil, %edi
  4001c4: 85 ff                        	testl	%edi, %edi
  4001c6: 7e 26                        	jle	0x4001ee <.text+0xee>
  4001c8: 3a 56 08                     	cmpb	8(%rsi), %dl
  4001cb: 74 25                        	je	0x4001f2 <.text+0xf2>
  4001cd: 4c 8d 46 10                  	leaq	16(%rsi), %r8
  4001d1: 45 31 c9                     	xorl	%r9d, %r9d
  4001d4: eb 10                        	jmp	0x4001e6 <.text+0xe6>
  4001d6: 41 0f b6 40 08               	movzbl	8(%r8), %eax
  4001db: 4c 89 c6                     	movq	%r8, %rsi
  4001de: 49 83 c0 10                  	addq	$16, %r8
  4001e2: 38 d0                        	cmpb	%dl, %al
  4001e4: 74 0c                        	je	0x4001f2 <.text+0xf2>
  4001e6: 41 ff c1                     	incl	%r9d
  4001e9: 41 39 f9                     	cmpl	%edi, %r9d
  4001ec: 75 e8                        	jne	0x4001d6 <.text+0xd6>
  4001ee: 48 89 c8                     	movq	%rcx, %rax
  4001f1: c3                           	retq
  4001f2: 48 8b 0e                     	movq	(%rsi), %rcx
  4001f5: 48 89 c8                     	movq	%rcx, %rax
  4001f8: c3                           	retq
  4001f9: 90                           	nop
  4001fa: 90                           	nop
  4001fb: 90                           	nop
  4001fc: 90                           	nop
  4001fd: 90                           	nop
  4001fe: 90                           	nop
  4001ff: 90                           	nop
  400200: 48 89 5c 24 d0               	movq	%rbx, -48(%rsp)
  400205: 48 89 6c 24 d8               	movq	%rbp, -40(%rsp)
  40020a: 89 fb                        	movl	%edi, %ebx
  40020c: 4c 89 64 24 e0               	movq	%r12, -32(%rsp)
  400211: 4c 89 6c 24 e8               	movq	%r13, -24(%rsp)
  400216: 89 f5                        	movl	%esi, %ebp
  400218: 4c 89 74 24 f0               	movq	%r14, -16(%rsp)
  40021d: 4c 89 7c 24 f8               	movq	%r15, -8(%rsp)
  400222: 48 83 ec 38                  	subq	$56, %rsp
  400226: 41 89 d5                     	movl	%edx, %r13d
  400229: 49 89 cf                     	movq	%rcx, %r15
  40022c: 4d 89 ce                     	movq	%r9, %r14
  40022f: 45 89 c4                     	movl	%r8d, %r12d
  400232: e8 15 7d 00 00               	callq	0x407f4c <.text+0x7e4c>
  400237: 83 f8 ff                     	cmpl	$-1, %eax
  40023a: 0f 94 c2                     	sete	%dl
  40023d: 85 c0                        	testl	%eax, %eax
  40023f: 0f 9f c0                     	setg	%al
  400242: 08 c2                        	orb	%al, %dl
  400244: 74 2a                        	je	0x400270 <.text+0x170>
  400246: 48 8b 5c 24 08               	movq	8(%rsp), %rbx
  40024b: 48 8b 6c 24 10               	movq	16(%rsp), %rbp
  400250: 4c 8b 64 24 18               	movq	24(%rsp), %r12
  400255: 4c 8b 6c 24 20               	movq	32(%rsp), %r13
  40025a: 4c 8b 74 24 28               	movq	40(%rsp), %r14
  40025f: 4c 8b 7c 24 30               	movq	48(%rsp), %r15
  400264: 48 83 c4 38                  	addq	$56, %rsp
  400268: c3                           	retq
  400269: 66 66 66 90                  	nop
  40026d: 66 66 90                     	nop
  400270: e8 d7 7c 00 00               	callq	0x407f4c <.text+0x7e4c>
  400275: 83 f8 ff                     	cmpl	$-1, %eax
  400278: 74 20                        	je	0x40029a <.text+0x19a>
  40027a: 85 c0                        	testl	%eax, %eax
  40027c: 66 66 66 90                  	nop
  400280: 75 1f                        	jne	0x4002a1 <.text+0x1a1>
  400282: 89 df                        	movl	%ebx, %edi
  400284: e8 db a1 00 00               	callq	0x40a464 <.text+0xa364>
  400289: e8 0e 7d 00 00               	callq	0x407f9c <.text+0x7e9c>
  40028e: be 09 00 00 00               	movl	$9, %esi
  400293: 89 c7                        	movl	%eax, %edi
  400295: e8 92 7d 00 00               	callq	0x40802c <.text+0x7f2c>
  40029a: 31 ff                        	xorl	%edi, %edi
  40029c: e8 67 a1 00 00               	callq	0x40a408 <.text+0xa308>
  4002a1: 0f b6 0d e8 cf 10 00         	movzbl	1101800(%rip), %ecx     # 0x50d290
  4002a8: 85 c9                        	testl	%ecx, %ecx
  4002aa: 7e ee                        	jle	0x40029a <.text+0x19a>
  4002ac: 48 8b 05 e5 cf 10 00         	movq	1101797(%rip), %rax     # 0x50d298

--- Symbol Table (first 50 entries) ---

/home/analyst/ir-alalysis/samples/malware/0e26464afe9ff562e86b5a7b8b576a7afb6782654e830af234a20d0275de06e4.elf:	file format elf64-x86-64

SYMBOL TABLE:

NOTE: For true binary-to-LLVM IR lifting, consider using:
  - mcsema: https://github.com/lifting-bits/mcsema
  - remill: https://github.com/lifting-bits/remill
  - rellic: https://github.com/lifting-bits/rellic

==========================================
LLVM analysis completed successfully
==========================================
LLVM analysis: SUCCESS
	Command being timed: "/home/analyst/ir-alalysis/scripts/analyze_llvm.sh /home/analyst/ir-alalysis/samples/malware/0e26464afe9ff562e86b5a7b8b576a7afb6782654e830af234a20d0275de06e4.elf"
	User time (seconds): 0.02
	System time (seconds): 0.06
	Percent of CPU this job got: 82%
	Elapsed (wall clock) time (h:mm:ss or m:ss): 0:00.10
	Average shared text size (kbytes): 0
	Average unshared data size (kbytes): 0
	Average stack size (kbytes): 0
	Average total size (kbytes): 0
	Maximum resident set size (kbytes): 51840
	Average resident set size (kbytes): 0
	Major (requiring I/O) page faults: 10
	Minor (reclaiming a frame) page faults: 9956
	Voluntary context switches: 49
	Involuntary context switches: 77
	Swaps: 0
	File system inputs: 2040
	File system outputs: 24
	Socket messages sent: 0
	Socket messages received: 0
	Signals delivered: 0
	Page size (bytes): 4096
	Exit status: 0

Completed: 0e26464afe9ff562e86b5a7b8b576a7afb6782654e830af234a20d0275de06e4.elf

========================================
Processing sample 5: 10cc798316ddca145a10fd239a5047537c73a7e3577c00659a35f86deceece08.elf
========================================

--- Ghidra P-code Analysis ---

Ghidra analysis: SUCCESS
==========================================
Ghidra Headless Analysis
==========================================
Binary:  /home/analyst/ir-alalysis/samples/malware/10cc798316ddca145a10fd239a5047537c73a7e3577c00659a35f86deceece08.elf
Project: ghidra_analysis_10cc798316ddca145a10fd239a5047537c73a7e3577c00659a35f86deceece08.elf_20251025_201618
Location: ./ghidra_projects
==========================================
INFO  Using log config file: jar:file:/home/analyst/ghidra/Ghidra/Framework/Generic/lib/Generic.jar!/generic.log4j.xml (LoggingInitialization)  
INFO  Using log file: /home/analyst/.config/ghidra/ghidra_11.4.2_PUBLIC/application.log (LoggingInitialization)  
INFO  Loading user preferences: /home/analyst/.config/ghidra/ghidra_11.4.2_PUBLIC/preferences (Preferences)  
INFO  Searching for classes... (ClassSearcher)  
INFO  Class search complete (1474 ms) (ClassSearcher)  
INFO  Initializing SSL Context (SSLContextInitializer)  
INFO  Initializing Random Number Generator... (SecureRandomFactory)  
INFO  Random Number Generator initialization complete: NativePRNGNonBlocking (SecureRandomFactory)  
INFO  Trust manager disabled, cacerts have not been set (ApplicationTrustManagerFactory)  
INFO  Headless startup complete (3901 ms) (AnalyzeHeadless)  
INFO  Class searcher loaded 58 extension points (18 false positives) (ClassSearcher)  
INFO  HEADLESS Script Paths:
    /home/analyst/ghidra/Ghidra/Features/GnuDemangler/ghidra_scripts
    /home/analyst/ghidra/Ghidra/Features/BytePatterns/ghidra_scripts
    /home/analyst/ghidra/Ghidra/Features/SystemEmulation/ghidra_scripts
    /home/analyst/ghidra/Ghidra/Processors/DATA/ghidra_scripts
    /home/analyst/ghidra/Ghidra/Features/PyGhidra/ghidra_scripts
    /home/analyst/ghidra/Ghidra/Features/MicrosoftCodeAnalyzer/ghidra_scripts
    /home/analyst/ghidra/Ghidra/Features/Base/ghidra_scripts
    /home/analyst/ghidra/Ghidra/Features/Jython/ghidra_scripts
    /home/analyst/ghidra/Ghidra/Features/VersionTracking/ghidra_scripts
    /home/analyst/ghidra/Ghidra/Features/PDB/ghidra_scripts
    /home/analyst/ghidra/Ghidra/Processors/Atmel/ghidra_scripts
    /home/analyst/ghidra/Ghidra/Debug/Debugger-rmi-trace/ghidra_scripts
    /home/analyst/ghidra/Ghidra/Features/FileFormats/ghidra_scripts
    /home/analyst/ghidra/Ghidra/Processors/JVM/ghidra_scripts
    /home/analyst/ghidra/Ghidra/Debug/Debugger/ghidra_scripts
    /home/analyst/ghidra/Ghidra/Processors/PIC/ghidra_scripts
    /home/analyst/ghidra/Ghidra/Features/WildcardAssembler/ghidra_scripts
    /home/analyst/ghidra/Ghidra/Processors/8051/ghidra_scripts
    /home/analyst/ghidra/Ghidra/Features/Decompiler/ghidra_scripts
    /home/analyst/ghidra/Ghidra/Features/DecompilerDependent/ghidra_scripts
    /home/analyst/ghidra/Ghidra/Features/FunctionID/ghidra_scripts
    /home/analyst/ghidra/Ghidra/Features/SwiftDemangler/ghidra_scripts
    /home/analyst/ghidra/Ghidra/Features/BSim/ghidra_scripts (HeadlessAnalyzer)  
INFO  HEADLESS: execution starts (HeadlessAnalyzer)  
INFO  Creating temporary project: /home/analyst/ir-alalysis/./ghidra_projects/ghidra_analysis_10cc798316ddca145a10fd239a5047537c73a7e3577c00659a35f86deceece08.elf_20251025_201618 (HeadlessAnalyzer)  
INFO  Creating project: /home/analyst/ir-alalysis/./ghidra_projects/ghidra_analysis_10cc798316ddca145a10fd239a5047537c73a7e3577c00659a35f86deceece08.elf_20251025_201618 (DefaultProject)  
INFO  REPORT: Processing input files:  (HeadlessAnalyzer)  
INFO       project: /home/analyst/ir-alalysis/./ghidra_projects/ghidra_analysis_10cc798316ddca145a10fd239a5047537c73a7e3577c00659a35f86deceece08.elf_20251025_201618 (HeadlessAnalyzer)  
INFO  IMPORTING: file:///home/analyst/ir-alalysis/samples/malware/10cc798316ddca145a10fd239a5047537c73a7e3577c00659a35f86deceece08.elf (HeadlessAnalyzer)  
INFO  Using Loader: Executable and Linking Format (ELF) (AutoImporter)  
INFO  Using Language/Compiler: x86:LE:32:default:gcc (AutoImporter)  
INFO  Using Library Search Path: [., /bin, /lib, /lib64, /lib/x86_64-linux-gnu, /lib/aarch64-linux-gnu, /usr/bin, /usr/lib, /usr/X11R6/bin, /usr/X11R6/lib, /usr/java/packages/lib, /usr/lib/x86_64-linux-gnu/jni, /usr/lib/x86_64-linux-gnu, /usr/lib/jni] (AutoImporter)  
INFO  Additional info:
Loading file:///home/analyst/ir-alalysis/samples/malware/10cc798316ddca145a10fd239a5047537c73a7e3577c00659a35f86deceece08.elf?MD5=fdd54684ebd78a24b7b14c24c088f406...
Skipping zero-length segment [1,Loadable segment] at address ram:08065fec
------------------------------------------------

 (AutoImporter)  
INFO  IMPORTING: Loaded 0 additional files (HeadlessAnalyzer)  
INFO  ANALYZING all memory and code: file:///home/analyst/ir-alalysis/samples/malware/10cc798316ddca145a10fd239a5047537c73a7e3577c00659a35f86deceece08.elf (HeadlessAnalyzer)  
ERROR REPORT: Analysis timed out at 0 seconds. Processing not completed for file: file:///home/analyst/ir-alalysis/samples/malware/10cc798316ddca145a10fd239a5047537c73a7e3577c00659a35f86deceece08.elf (HeadlessAnalyzer)  
INFO  SCRIPT: /home/analyst/ir-alalysis/scripts/get_cfg_stats.py (HeadlessAnalyzer)  
GHIDRA_STATS:Functions=1
GHIDRA_STATS:BasicBlocks=0
GHIDRA_STATS:TotalPcodeOps=0
INFO  ANALYZING changes made by post scripts: file:///home/analyst/ir-alalysis/samples/malware/10cc798316ddca145a10fd239a5047537c73a7e3577c00659a35f86deceece08.elf (HeadlessAnalyzer)  
INFO  REPORT: Post-analysis succeeded for file: file:///home/analyst/ir-alalysis/samples/malware/10cc798316ddca145a10fd239a5047537c73a7e3577c00659a35f86deceece08.elf (HeadlessAnalyzer)  
INFO  REPORT: Save succeeded for: /10cc798316ddca145a10fd239a5047537c73a7e3577c00659a35f86deceece08.elf (ghidra_analysis_10cc798316ddca145a10fd239a5047537c73a7e3577c00659a35f86deceece08.elf_20251025_201618:/10cc798316ddca145a10fd239a5047537c73a7e3577c00659a35f86deceece08.elf) (HeadlessAnalyzer)  
INFO  REPORT: Import succeeded (HeadlessAnalyzer)  
==========================================
Ghidra analysis completed successfully
==========================================

Ghidra CFG Stats:
GHIDRA_STATS:Functions=1
GHIDRA_STATS:BasicBlocks=0
GHIDRA_STATS:TotalPcodeOps=0

Ghidra Performance:
	Elapsed (wall clock) time (h:mm:ss or m:ss): 0:18.40
	Maximum resident set size (kbytes): 605720

--- angr VEX IR Analysis ---

angr analysis: SUCCESS
==================================================
angr VEX IR Analysis
==================================================
Binary: /home/analyst/ir-alalysis/samples/malware/10cc798316ddca145a10fd239a5047537c73a7e3577c00659a35f86deceece08.elf
==================================================
Loading binary with angr...
Architecture: X86
Entry point: 0xc09580
Binary base address: 0xc01000

Generating CFG with angr...
Functions discovered: 1873
Basic blocks (CFG nodes): 3679
CFG edges: 2373

Counting VEX IR statements...
Total VEX statements: 169408

--- angr CFG & IR Stats ---
ANGR_STATS:Functions=1873
ANGR_STATS:Nodes=3679
ANGR_STATS:Edges=2373
ANGR_STATS:TotalVexStatements=169408
---------------------------

Sample functions (first 10):
  - sub_c01000 @ 0xc01000
  - sub_c0105c @ 0xc0105c
  - sub_c010c3 @ 0xc010c3
  - sub_c010c7 @ 0xc010c7
  - sub_c010e9 @ 0xc010e9
  - sub_c010f0 @ 0xc010f0
  - sub_c010f7 @ 0xc010f7
  - sub_c01128 @ 0xc01128
  - sub_c01135 @ 0xc01135
  - sub_c01157 @ 0xc01157
==================================================
angr analysis completed successfully
==================================================

angr CFG Stats:
ANGR_STATS:Functions=1873
ANGR_STATS:Nodes=3679
ANGR_STATS:Edges=2373
ANGR_STATS:TotalVexStatements=169408

angr Performance:
	Elapsed (wall clock) time (h:mm:ss or m:ss): 0:12.36
	Maximum resident set size (kbytes): 187872

--- LLVM IR Analysis ---

==========================================
LLVM IR Analysis
==========================================
Binary:  /home/analyst/ir-alalysis/samples/malware/10cc798316ddca145a10fd239a5047537c73a7e3577c00659a35f86deceece08.elf
==========================================

Detected native binary (not LLVM bitcode)
Performing LLVM-based binary analysis...

--- Binary Information ---

/home/analyst/ir-alalysis/samples/malware/10cc798316ddca145a10fd239a5047537c73a7e3577c00659a35f86deceece08.elf:	file format elf32-i386

Sections:
Idx Name          Size     VMA      Type

--- Disassembly (first 100 instructions) ---

/home/analyst/ir-alalysis/samples/malware/10cc798316ddca145a10fd239a5047537c73a7e3577c00659a35f86deceece08.elf:	file format elf32-i386

--- Symbol Table (first 50 entries) ---

/home/analyst/ir-alalysis/samples/malware/10cc798316ddca145a10fd239a5047537c73a7e3577c00659a35f86deceece08.elf:	file format elf32-i386

SYMBOL TABLE:

NOTE: For true binary-to-LLVM IR lifting, consider using:
  - mcsema: https://github.com/lifting-bits/mcsema
  - remill: https://github.com/lifting-bits/remill
  - rellic: https://github.com/lifting-bits/rellic

==========================================
LLVM analysis completed successfully
==========================================
LLVM analysis: SUCCESS
	Command being timed: "/home/analyst/ir-alalysis/scripts/analyze_llvm.sh /home/analyst/ir-alalysis/samples/malware/10cc798316ddca145a10fd239a5047537c73a7e3577c00659a35f86deceece08.elf"
	User time (seconds): 0.02
	System time (seconds): 0.06
	Percent of CPU this job got: 64%
	Elapsed (wall clock) time (h:mm:ss or m:ss): 0:00.13
	Average shared text size (kbytes): 0
	Average unshared data size (kbytes): 0
	Average stack size (kbytes): 0
	Average total size (kbytes): 0
	Maximum resident set size (kbytes): 50944
	Average resident set size (kbytes): 0
	Major (requiring I/O) page faults: 0
	Minor (reclaiming a frame) page faults: 9966
	Voluntary context switches: 19
	Involuntary context switches: 90
	Swaps: 0
	File system inputs: 0
	File system outputs: 0
	Socket messages sent: 0
	Socket messages received: 0
	Signals delivered: 0
	Page size (bytes): 4096
	Exit status: 0

Completed: 10cc798316ddca145a10fd239a5047537c73a7e3577c00659a35f86deceece08.elf

========================================
Processing sample 6: 18582c2cc8350f43e621db205622ed0bafba786c2a8357b7cd462ff2d6c78aeb.elf
========================================

--- Ghidra P-code Analysis ---

Ghidra analysis: SUCCESS
==========================================
Ghidra Headless Analysis
==========================================
Binary:  /home/analyst/ir-alalysis/samples/malware/18582c2cc8350f43e621db205622ed0bafba786c2a8357b7cd462ff2d6c78aeb.elf
Project: ghidra_analysis_18582c2cc8350f43e621db205622ed0bafba786c2a8357b7cd462ff2d6c78aeb.elf_20251025_201649
Location: ./ghidra_projects
==========================================
INFO  Using log config file: jar:file:/home/analyst/ghidra/Ghidra/Framework/Generic/lib/Generic.jar!/generic.log4j.xml (LoggingInitialization)  
INFO  Using log file: /home/analyst/.config/ghidra/ghidra_11.4.2_PUBLIC/application.log (LoggingInitialization)  
INFO  Loading user preferences: /home/analyst/.config/ghidra/ghidra_11.4.2_PUBLIC/preferences (Preferences)  
INFO  Searching for classes... (ClassSearcher)  
INFO  Class search complete (1097 ms) (ClassSearcher)  
INFO  Initializing SSL Context (SSLContextInitializer)  
INFO  Initializing Random Number Generator... (SecureRandomFactory)  
INFO  Random Number Generator initialization complete: NativePRNGNonBlocking (SecureRandomFactory)  
INFO  Trust manager disabled, cacerts have not been set (ApplicationTrustManagerFactory)  
INFO  Headless startup complete (3744 ms) (AnalyzeHeadless)  
INFO  Class searcher loaded 58 extension points (18 false positives) (ClassSearcher)  
INFO  HEADLESS Script Paths:
    /home/analyst/ghidra/Ghidra/Features/GnuDemangler/ghidra_scripts
    /home/analyst/ghidra/Ghidra/Features/BytePatterns/ghidra_scripts
    /home/analyst/ghidra/Ghidra/Features/SystemEmulation/ghidra_scripts
    /home/analyst/ghidra/Ghidra/Processors/DATA/ghidra_scripts
    /home/analyst/ghidra/Ghidra/Features/PyGhidra/ghidra_scripts
    /home/analyst/ghidra/Ghidra/Features/MicrosoftCodeAnalyzer/ghidra_scripts
    /home/analyst/ghidra/Ghidra/Features/Base/ghidra_scripts
    /home/analyst/ghidra/Ghidra/Features/Jython/ghidra_scripts
    /home/analyst/ghidra/Ghidra/Features/VersionTracking/ghidra_scripts
    /home/analyst/ghidra/Ghidra/Features/PDB/ghidra_scripts
    /home/analyst/ghidra/Ghidra/Processors/Atmel/ghidra_scripts
    /home/analyst/ghidra/Ghidra/Debug/Debugger-rmi-trace/ghidra_scripts
    /home/analyst/ghidra/Ghidra/Features/FileFormats/ghidra_scripts
    /home/analyst/ghidra/Ghidra/Processors/JVM/ghidra_scripts
    /home/analyst/ghidra/Ghidra/Debug/Debugger/ghidra_scripts
    /home/analyst/ghidra/Ghidra/Processors/PIC/ghidra_scripts
    /home/analyst/ghidra/Ghidra/Features/WildcardAssembler/ghidra_scripts
    /home/analyst/ghidra/Ghidra/Processors/8051/ghidra_scripts
    /home/analyst/ghidra/Ghidra/Features/Decompiler/ghidra_scripts
    /home/analyst/ghidra/Ghidra/Features/DecompilerDependent/ghidra_scripts
    /home/analyst/ghidra/Ghidra/Features/FunctionID/ghidra_scripts
    /home/analyst/ghidra/Ghidra/Features/SwiftDemangler/ghidra_scripts
    /home/analyst/ghidra/Ghidra/Features/BSim/ghidra_scripts (HeadlessAnalyzer)  
INFO  HEADLESS: execution starts (HeadlessAnalyzer)  
INFO  Creating temporary project: /home/analyst/ir-alalysis/./ghidra_projects/ghidra_analysis_18582c2cc8350f43e621db205622ed0bafba786c2a8357b7cd462ff2d6c78aeb.elf_20251025_201649 (HeadlessAnalyzer)  
INFO  Creating project: /home/analyst/ir-alalysis/./ghidra_projects/ghidra_analysis_18582c2cc8350f43e621db205622ed0bafba786c2a8357b7cd462ff2d6c78aeb.elf_20251025_201649 (DefaultProject)  
INFO  REPORT: Processing input files:  (HeadlessAnalyzer)  
INFO       project: /home/analyst/ir-alalysis/./ghidra_projects/ghidra_analysis_18582c2cc8350f43e621db205622ed0bafba786c2a8357b7cd462ff2d6c78aeb.elf_20251025_201649 (HeadlessAnalyzer)  
INFO  IMPORTING: file:///home/analyst/ir-alalysis/samples/malware/18582c2cc8350f43e621db205622ed0bafba786c2a8357b7cd462ff2d6c78aeb.elf (HeadlessAnalyzer)  
INFO  Using Loader: Executable and Linking Format (ELF) (AutoImporter)  
INFO  Using Language/Compiler: x86:LE:32:default:gcc (AutoImporter)  
INFO  Using Library Search Path: [., /bin, /lib, /lib64, /lib/x86_64-linux-gnu, /lib/aarch64-linux-gnu, /usr/bin, /usr/lib, /usr/X11R6/bin, /usr/X11R6/lib, /usr/java/packages/lib, /usr/lib/x86_64-linux-gnu/jni, /usr/lib/x86_64-linux-gnu, /usr/lib/jni] (AutoImporter)  
INFO  Additional info:
Loading file:///home/analyst/ir-alalysis/samples/malware/18582c2cc8350f43e621db205622ed0bafba786c2a8357b7cd462ff2d6c78aeb.elf?MD5=33c019049467535aa2bf98e699033df3...
Skipping zero-length segment [1,Loadable segment] at address ram:0805ed40
------------------------------------------------

 (AutoImporter)  
INFO  IMPORTING: Loaded 0 additional files (HeadlessAnalyzer)  
INFO  ANALYZING all memory and code: file:///home/analyst/ir-alalysis/samples/malware/18582c2cc8350f43e621db205622ed0bafba786c2a8357b7cd462ff2d6c78aeb.elf (HeadlessAnalyzer)  
ERROR REPORT: Analysis timed out at 0 seconds. Processing not completed for file: file:///home/analyst/ir-alalysis/samples/malware/18582c2cc8350f43e621db205622ed0bafba786c2a8357b7cd462ff2d6c78aeb.elf (HeadlessAnalyzer)  
INFO  SCRIPT: /home/analyst/ir-alalysis/scripts/get_cfg_stats.py (HeadlessAnalyzer)  
GHIDRA_STATS:Functions=1
GHIDRA_STATS:BasicBlocks=0
GHIDRA_STATS:TotalPcodeOps=0
INFO  ANALYZING changes made by post scripts: file:///home/analyst/ir-alalysis/samples/malware/18582c2cc8350f43e621db205622ed0bafba786c2a8357b7cd462ff2d6c78aeb.elf (HeadlessAnalyzer)  
INFO  REPORT: Post-analysis succeeded for file: file:///home/analyst/ir-alalysis/samples/malware/18582c2cc8350f43e621db205622ed0bafba786c2a8357b7cd462ff2d6c78aeb.elf (HeadlessAnalyzer)  
INFO  REPORT: Save succeeded for: /18582c2cc8350f43e621db205622ed0bafba786c2a8357b7cd462ff2d6c78aeb.elf (ghidra_analysis_18582c2cc8350f43e621db205622ed0bafba786c2a8357b7cd462ff2d6c78aeb.elf_20251025_201649:/18582c2cc8350f43e621db205622ed0bafba786c2a8357b7cd462ff2d6c78aeb.elf) (HeadlessAnalyzer)  
INFO  REPORT: Import succeeded (HeadlessAnalyzer)  
==========================================
Ghidra analysis completed successfully
==========================================

Ghidra CFG Stats:
GHIDRA_STATS:Functions=1
GHIDRA_STATS:BasicBlocks=0
GHIDRA_STATS:TotalPcodeOps=0

Ghidra Performance:
	Elapsed (wall clock) time (h:mm:ss or m:ss): 0:19.22
	Maximum resident set size (kbytes): 704028

--- angr VEX IR Analysis ---

angr analysis: SUCCESS
==================================================
angr VEX IR Analysis
==================================================
Binary: /home/analyst/ir-alalysis/samples/malware/18582c2cc8350f43e621db205622ed0bafba786c2a8357b7cd462ff2d6c78aeb.elf
==================================================
Loading binary with angr...
Architecture: X86
Entry point: 0xc09c88
Binary base address: 0xc01000

Generating CFG with angr...
Functions discovered: 1955
Basic blocks (CFG nodes): 3979
CFG edges: 2680

Counting VEX IR statements...
Total VEX statements: 177154

--- angr CFG & IR Stats ---
ANGR_STATS:Functions=1955
ANGR_STATS:Nodes=3979
ANGR_STATS:Edges=2680
ANGR_STATS:TotalVexStatements=177154
---------------------------

Sample functions (first 10):
  - sub_c01000 @ 0xc01000
  - sub_c010c3 @ 0xc010c3
  - sub_c010c7 @ 0xc010c7
  - sub_c010d4 @ 0xc010d4
  - sub_c010f2 @ 0xc010f2
  - sub_c010fe @ 0xc010fe
  - sub_c01101 @ 0xc01101
  - sub_c0112f @ 0xc0112f
  - sub_c01138 @ 0xc01138
  - sub_c01153 @ 0xc01153
==================================================
angr analysis completed successfully
==================================================

angr CFG Stats:
ANGR_STATS:Functions=1955
ANGR_STATS:Nodes=3979
ANGR_STATS:Edges=2680
ANGR_STATS:TotalVexStatements=177154

angr Performance:
	Elapsed (wall clock) time (h:mm:ss or m:ss): 0:11.30
	Maximum resident set size (kbytes): 192732

--- LLVM IR Analysis ---

==========================================
LLVM IR Analysis
==========================================
Binary:  /home/analyst/ir-alalysis/samples/malware/18582c2cc8350f43e621db205622ed0bafba786c2a8357b7cd462ff2d6c78aeb.elf
==========================================

Detected native binary (not LLVM bitcode)
Performing LLVM-based binary analysis...

--- Binary Information ---

/home/analyst/ir-alalysis/samples/malware/18582c2cc8350f43e621db205622ed0bafba786c2a8357b7cd462ff2d6c78aeb.elf:	file format elf32-i386

Sections:
Idx Name          Size     VMA      Type

--- Disassembly (first 100 instructions) ---

/home/analyst/ir-alalysis/samples/malware/18582c2cc8350f43e621db205622ed0bafba786c2a8357b7cd462ff2d6c78aeb.elf:	file format elf32-i386

--- Symbol Table (first 50 entries) ---

/home/analyst/ir-alalysis/samples/malware/18582c2cc8350f43e621db205622ed0bafba786c2a8357b7cd462ff2d6c78aeb.elf:	file format elf32-i386

SYMBOL TABLE:

NOTE: For true binary-to-LLVM IR lifting, consider using:
  - mcsema: https://github.com/lifting-bits/mcsema
  - remill: https://github.com/lifting-bits/remill
  - rellic: https://github.com/lifting-bits/rellic

==========================================
LLVM analysis completed successfully
==========================================
LLVM analysis: SUCCESS
	Command being timed: "/home/analyst/ir-alalysis/scripts/analyze_llvm.sh /home/analyst/ir-alalysis/samples/malware/18582c2cc8350f43e621db205622ed0bafba786c2a8357b7cd462ff2d6c78aeb.elf"
	User time (seconds): 0.02
	System time (seconds): 0.08
	Percent of CPU this job got: 86%
	Elapsed (wall clock) time (h:mm:ss or m:ss): 0:00.12
	Average shared text size (kbytes): 0
	Average unshared data size (kbytes): 0
	Average stack size (kbytes): 0
	Average total size (kbytes): 0
	Maximum resident set size (kbytes): 50944
	Average resident set size (kbytes): 0
	Major (requiring I/O) page faults: 0
	Minor (reclaiming a frame) page faults: 9955
	Voluntary context switches: 19
	Involuntary context switches: 55
	Swaps: 0
	File system inputs: 0
	File system outputs: 8
	Socket messages sent: 0
	Socket messages received: 0
	Signals delivered: 0
	Page size (bytes): 4096
	Exit status: 0

Completed: 18582c2cc8350f43e621db205622ed0bafba786c2a8357b7cd462ff2d6c78aeb.elf

========================================
Processing sample 7: 2252120ab1414bea2868936bed099a029384ef4e2760ba933c5d2aab93db89b4.elf
========================================

--- Ghidra P-code Analysis ---

Ghidra analysis: SUCCESS
==========================================
Ghidra Headless Analysis
==========================================
Binary:  /home/analyst/ir-alalysis/samples/malware/2252120ab1414bea2868936bed099a029384ef4e2760ba933c5d2aab93db89b4.elf
Project: ghidra_analysis_2252120ab1414bea2868936bed099a029384ef4e2760ba933c5d2aab93db89b4.elf_20251025_201720
Location: ./ghidra_projects
==========================================
INFO  Using log config file: jar:file:/home/analyst/ghidra/Ghidra/Framework/Generic/lib/Generic.jar!/generic.log4j.xml (LoggingInitialization)  
INFO  Using log file: /home/analyst/.config/ghidra/ghidra_11.4.2_PUBLIC/application.log (LoggingInitialization)  
INFO  Loading user preferences: /home/analyst/.config/ghidra/ghidra_11.4.2_PUBLIC/preferences (Preferences)  
INFO  Searching for classes... (ClassSearcher)  
INFO  Class search complete (1025 ms) (ClassSearcher)  
INFO  Initializing SSL Context (SSLContextInitializer)  
INFO  Initializing Random Number Generator... (SecureRandomFactory)  
INFO  Random Number Generator initialization complete: NativePRNGNonBlocking (SecureRandomFactory)  
INFO  Trust manager disabled, cacerts have not been set (ApplicationTrustManagerFactory)  
INFO  Headless startup complete (3678 ms) (AnalyzeHeadless)  
INFO  Class searcher loaded 58 extension points (18 false positives) (ClassSearcher)  
INFO  HEADLESS Script Paths:
    /home/analyst/ghidra/Ghidra/Features/GnuDemangler/ghidra_scripts
    /home/analyst/ghidra/Ghidra/Features/BytePatterns/ghidra_scripts
    /home/analyst/ghidra/Ghidra/Features/SystemEmulation/ghidra_scripts
    /home/analyst/ghidra/Ghidra/Processors/DATA/ghidra_scripts
    /home/analyst/ghidra/Ghidra/Features/PyGhidra/ghidra_scripts
    /home/analyst/ghidra/Ghidra/Features/MicrosoftCodeAnalyzer/ghidra_scripts
    /home/analyst/ghidra/Ghidra/Features/Base/ghidra_scripts
    /home/analyst/ghidra/Ghidra/Features/Jython/ghidra_scripts
    /home/analyst/ghidra/Ghidra/Features/VersionTracking/ghidra_scripts
    /home/analyst/ghidra/Ghidra/Features/PDB/ghidra_scripts
    /home/analyst/ghidra/Ghidra/Processors/Atmel/ghidra_scripts
    /home/analyst/ghidra/Ghidra/Debug/Debugger-rmi-trace/ghidra_scripts
    /home/analyst/ghidra/Ghidra/Features/FileFormats/ghidra_scripts
    /home/analyst/ghidra/Ghidra/Processors/JVM/ghidra_scripts
    /home/analyst/ghidra/Ghidra/Debug/Debugger/ghidra_scripts
    /home/analyst/ghidra/Ghidra/Processors/PIC/ghidra_scripts
    /home/analyst/ghidra/Ghidra/Features/WildcardAssembler/ghidra_scripts
    /home/analyst/ghidra/Ghidra/Processors/8051/ghidra_scripts
    /home/analyst/ghidra/Ghidra/Features/Decompiler/ghidra_scripts
    /home/analyst/ghidra/Ghidra/Features/DecompilerDependent/ghidra_scripts
    /home/analyst/ghidra/Ghidra/Features/FunctionID/ghidra_scripts
    /home/analyst/ghidra/Ghidra/Features/SwiftDemangler/ghidra_scripts
    /home/analyst/ghidra/Ghidra/Features/BSim/ghidra_scripts (HeadlessAnalyzer)  
INFO  HEADLESS: execution starts (HeadlessAnalyzer)  
INFO  Creating temporary project: /home/analyst/ir-alalysis/./ghidra_projects/ghidra_analysis_2252120ab1414bea2868936bed099a029384ef4e2760ba933c5d2aab93db89b4.elf_20251025_201720 (HeadlessAnalyzer)  
INFO  Creating project: /home/analyst/ir-alalysis/./ghidra_projects/ghidra_analysis_2252120ab1414bea2868936bed099a029384ef4e2760ba933c5d2aab93db89b4.elf_20251025_201720 (DefaultProject)  
INFO  REPORT: Processing input files:  (HeadlessAnalyzer)  
INFO       project: /home/analyst/ir-alalysis/./ghidra_projects/ghidra_analysis_2252120ab1414bea2868936bed099a029384ef4e2760ba933c5d2aab93db89b4.elf_20251025_201720 (HeadlessAnalyzer)  
INFO  IMPORTING: file:///home/analyst/ir-alalysis/samples/malware/2252120ab1414bea2868936bed099a029384ef4e2760ba933c5d2aab93db89b4.elf (HeadlessAnalyzer)  
INFO  Using Loader: Executable and Linking Format (ELF) (AutoImporter)  
INFO  Using Language/Compiler: x86:LE:32:default:gcc (AutoImporter)  
INFO  Using Library Search Path: [., /bin, /lib, /lib64, /lib/x86_64-linux-gnu, /lib/aarch64-linux-gnu, /usr/bin, /usr/lib, /usr/X11R6/bin, /usr/X11R6/lib, /usr/java/packages/lib, /usr/lib/x86_64-linux-gnu/jni, /usr/lib/x86_64-linux-gnu, /usr/lib/jni] (AutoImporter)  
INFO  Additional info:
Loading file:///home/analyst/ir-alalysis/samples/malware/2252120ab1414bea2868936bed099a029384ef4e2760ba933c5d2aab93db89b4.elf?MD5=02afbfa048dbd5192b7c4847eb9289e8...
------------------------------------------------

 (AutoImporter)  
INFO  IMPORTING: Loaded 0 additional files (HeadlessAnalyzer)  
INFO  ANALYZING all memory and code: file:///home/analyst/ir-alalysis/samples/malware/2252120ab1414bea2868936bed099a029384ef4e2760ba933c5d2aab93db89b4.elf (HeadlessAnalyzer)  
ERROR REPORT: Analysis timed out at 0 seconds. Processing not completed for file: file:///home/analyst/ir-alalysis/samples/malware/2252120ab1414bea2868936bed099a029384ef4e2760ba933c5d2aab93db89b4.elf (HeadlessAnalyzer)  
INFO  SCRIPT: /home/analyst/ir-alalysis/scripts/get_cfg_stats.py (HeadlessAnalyzer)  
GHIDRA_STATS:Functions=1
GHIDRA_STATS:BasicBlocks=0
GHIDRA_STATS:TotalPcodeOps=0
INFO  ANALYZING changes made by post scripts: file:///home/analyst/ir-alalysis/samples/malware/2252120ab1414bea2868936bed099a029384ef4e2760ba933c5d2aab93db89b4.elf (HeadlessAnalyzer)  
INFO  REPORT: Post-analysis succeeded for file: file:///home/analyst/ir-alalysis/samples/malware/2252120ab1414bea2868936bed099a029384ef4e2760ba933c5d2aab93db89b4.elf (HeadlessAnalyzer)  
INFO  REPORT: Save succeeded for: /2252120ab1414bea2868936bed099a029384ef4e2760ba933c5d2aab93db89b4.elf (ghidra_analysis_2252120ab1414bea2868936bed099a029384ef4e2760ba933c5d2aab93db89b4.elf_20251025_201720:/2252120ab1414bea2868936bed099a029384ef4e2760ba933c5d2aab93db89b4.elf) (HeadlessAnalyzer)  
INFO  REPORT: Import succeeded (HeadlessAnalyzer)  
==========================================
Ghidra analysis completed successfully
==========================================

Ghidra CFG Stats:
GHIDRA_STATS:Functions=1
GHIDRA_STATS:BasicBlocks=0
GHIDRA_STATS:TotalPcodeOps=0

Ghidra Performance:
	Elapsed (wall clock) time (h:mm:ss or m:ss): 0:16.72
	Maximum resident set size (kbytes): 632560

--- angr VEX IR Analysis ---

angr analysis: SUCCESS
==================================================
angr VEX IR Analysis
==================================================
Binary: /home/analyst/ir-alalysis/samples/malware/2252120ab1414bea2868936bed099a029384ef4e2760ba933c5d2aab93db89b4.elf
==================================================
Loading binary with angr...
Architecture: X86
Entry point: 0x849d370
Binary base address: 0x8048000

Generating CFG with angr...
Functions discovered: 2583
Basic blocks (CFG nodes): 5319
CFG edges: 3547

Counting VEX IR statements...
Total VEX statements: 228734

--- angr CFG & IR Stats ---
ANGR_STATS:Functions=2583
ANGR_STATS:Nodes=5319
ANGR_STATS:Edges=3547
ANGR_STATS:TotalVexStatements=228734
---------------------------

Sample functions (first 10):
  - sub_8490000 @ 0x8490000
  - sub_8490114 @ 0x8490114
  - sub_8490144 @ 0x8490144
  - sub_849014f @ 0x849014f
  - sub_8490151 @ 0x8490151
  - sub_849016f @ 0x849016f
  - sub_8490177 @ 0x8490177
  - sub_84901c2 @ 0x84901c2
  - sub_84901ca @ 0x84901ca
  - sub_84901d2 @ 0x84901d2
==================================================
angr analysis completed successfully
==================================================

angr CFG Stats:
ANGR_STATS:Functions=2583
ANGR_STATS:Nodes=5319
ANGR_STATS:Edges=3547
ANGR_STATS:TotalVexStatements=228734

angr Performance:
	Elapsed (wall clock) time (h:mm:ss or m:ss): 0:23.80
	Maximum resident set size (kbytes): 217552

--- LLVM IR Analysis ---

==========================================
LLVM IR Analysis
==========================================
Binary:  /home/analyst/ir-alalysis/samples/malware/2252120ab1414bea2868936bed099a029384ef4e2760ba933c5d2aab93db89b4.elf
==========================================

Detected native binary (not LLVM bitcode)
Performing LLVM-based binary analysis...

--- Binary Information ---

/home/analyst/ir-alalysis/samples/malware/2252120ab1414bea2868936bed099a029384ef4e2760ba933c5d2aab93db89b4.elf:	file format elf32-i386

Sections:
Idx Name          Size     VMA      Type

--- Disassembly (first 100 instructions) ---

/home/analyst/ir-alalysis/samples/malware/2252120ab1414bea2868936bed099a029384ef4e2760ba933c5d2aab93db89b4.elf:	file format elf32-i386

--- Symbol Table (first 50 entries) ---

/home/analyst/ir-alalysis/samples/malware/2252120ab1414bea2868936bed099a029384ef4e2760ba933c5d2aab93db89b4.elf:	file format elf32-i386

SYMBOL TABLE:

NOTE: For true binary-to-LLVM IR lifting, consider using:
  - mcsema: https://github.com/lifting-bits/mcsema
  - remill: https://github.com/lifting-bits/remill
  - rellic: https://github.com/lifting-bits/rellic

==========================================
LLVM analysis completed successfully
==========================================
LLVM analysis: SUCCESS
	Command being timed: "/home/analyst/ir-alalysis/scripts/analyze_llvm.sh /home/analyst/ir-alalysis/samples/malware/2252120ab1414bea2868936bed099a029384ef4e2760ba933c5d2aab93db89b4.elf"
	User time (seconds): 0.03
	System time (seconds): 0.05
	Percent of CPU this job got: 87%
	Elapsed (wall clock) time (h:mm:ss or m:ss): 0:00.10
	Average shared text size (kbytes): 0
	Average unshared data size (kbytes): 0
	Average stack size (kbytes): 0
	Average total size (kbytes): 0
	Maximum resident set size (kbytes): 50944
	Average resident set size (kbytes): 0
	Major (requiring I/O) page faults: 0
	Minor (reclaiming a frame) page faults: 9946
	Voluntary context switches: 18
	Involuntary context switches: 88
	Swaps: 0
	File system inputs: 0
	File system outputs: 0
	Socket messages sent: 0
	Socket messages received: 0
	Signals delivered: 0
	Page size (bytes): 4096
	Exit status: 0

Completed: 2252120ab1414bea2868936bed099a029384ef4e2760ba933c5d2aab93db89b4.elf

========================================
Processing sample 8: 2363346f78f6c52c14cf72ee9585985e1d2b9148e218fed5403483c6889ed528.sh
========================================

--- Ghidra P-code Analysis ---

Ghidra analysis: SUCCESS
==========================================
Ghidra Headless Analysis
==========================================
Binary:  /home/analyst/ir-alalysis/samples/malware/2363346f78f6c52c14cf72ee9585985e1d2b9148e218fed5403483c6889ed528.sh
Project: ghidra_analysis_2363346f78f6c52c14cf72ee9585985e1d2b9148e218fed5403483c6889ed528.sh_20251025_201801
Location: ./ghidra_projects
==========================================
INFO  Using log config file: jar:file:/home/analyst/ghidra/Ghidra/Framework/Generic/lib/Generic.jar!/generic.log4j.xml (LoggingInitialization)  
INFO  Using log file: /home/analyst/.config/ghidra/ghidra_11.4.2_PUBLIC/application.log (LoggingInitialization)  
INFO  Loading user preferences: /home/analyst/.config/ghidra/ghidra_11.4.2_PUBLIC/preferences (Preferences)  
INFO  Searching for classes... (ClassSearcher)  
INFO  Class search complete (1062 ms) (ClassSearcher)  
INFO  Initializing SSL Context (SSLContextInitializer)  
INFO  Initializing Random Number Generator... (SecureRandomFactory)  
INFO  Random Number Generator initialization complete: NativePRNGNonBlocking (SecureRandomFactory)  
INFO  Trust manager disabled, cacerts have not been set (ApplicationTrustManagerFactory)  
INFO  Headless startup complete (3395 ms) (AnalyzeHeadless)  
INFO  Class searcher loaded 58 extension points (18 false positives) (ClassSearcher)  
INFO  HEADLESS Script Paths:
    /home/analyst/ghidra/Ghidra/Features/GnuDemangler/ghidra_scripts
    /home/analyst/ghidra/Ghidra/Features/BytePatterns/ghidra_scripts
    /home/analyst/ghidra/Ghidra/Features/SystemEmulation/ghidra_scripts
    /home/analyst/ghidra/Ghidra/Processors/DATA/ghidra_scripts
    /home/analyst/ghidra/Ghidra/Features/PyGhidra/ghidra_scripts
    /home/analyst/ghidra/Ghidra/Features/MicrosoftCodeAnalyzer/ghidra_scripts
    /home/analyst/ghidra/Ghidra/Features/Base/ghidra_scripts
    /home/analyst/ghidra/Ghidra/Features/Jython/ghidra_scripts
    /home/analyst/ghidra/Ghidra/Features/VersionTracking/ghidra_scripts
    /home/analyst/ghidra/Ghidra/Features/PDB/ghidra_scripts
    /home/analyst/ghidra/Ghidra/Processors/Atmel/ghidra_scripts
    /home/analyst/ghidra/Ghidra/Debug/Debugger-rmi-trace/ghidra_scripts
    /home/analyst/ghidra/Ghidra/Features/FileFormats/ghidra_scripts
    /home/analyst/ghidra/Ghidra/Processors/JVM/ghidra_scripts
    /home/analyst/ghidra/Ghidra/Debug/Debugger/ghidra_scripts
    /home/analyst/ghidra/Ghidra/Processors/PIC/ghidra_scripts
    /home/analyst/ghidra/Ghidra/Features/WildcardAssembler/ghidra_scripts
    /home/analyst/ghidra/Ghidra/Processors/8051/ghidra_scripts
    /home/analyst/ghidra/Ghidra/Features/Decompiler/ghidra_scripts
    /home/analyst/ghidra/Ghidra/Features/DecompilerDependent/ghidra_scripts
    /home/analyst/ghidra/Ghidra/Features/FunctionID/ghidra_scripts
    /home/analyst/ghidra/Ghidra/Features/SwiftDemangler/ghidra_scripts
    /home/analyst/ghidra/Ghidra/Features/BSim/ghidra_scripts (HeadlessAnalyzer)  
INFO  HEADLESS: execution starts (HeadlessAnalyzer)  
INFO  Creating temporary project: /home/analyst/ir-alalysis/./ghidra_projects/ghidra_analysis_2363346f78f6c52c14cf72ee9585985e1d2b9148e218fed5403483c6889ed528.sh_20251025_201801 (HeadlessAnalyzer)  
INFO  Creating project: /home/analyst/ir-alalysis/./ghidra_projects/ghidra_analysis_2363346f78f6c52c14cf72ee9585985e1d2b9148e218fed5403483c6889ed528.sh_20251025_201801 (DefaultProject)  
INFO  REPORT: Processing input files:  (HeadlessAnalyzer)  
INFO       project: /home/analyst/ir-alalysis/./ghidra_projects/ghidra_analysis_2363346f78f6c52c14cf72ee9585985e1d2b9148e218fed5403483c6889ed528.sh_20251025_201801 (HeadlessAnalyzer)  
INFO  IMPORTING: file:///home/analyst/ir-alalysis/samples/malware/2363346f78f6c52c14cf72ee9585985e1d2b9148e218fed5403483c6889ed528.sh (HeadlessAnalyzer)  
INFO  No load spec found for import file: /home/analyst/ir-alalysis/samples/malware/2363346f78f6c52c14cf72ee9585985e1d2b9148e218fed5403483c6889ed528.sh (AutoImporter)  
ERROR The AutoImporter could not successfully load file:///home/analyst/ir-alalysis/samples/malware/2363346f78f6c52c14cf72ee9585985e1d2b9148e218fed5403483c6889ed528.sh with the provided import parameters. Please ensure that any specified processor/cspec arguments are compatible with the loader that is used during import and try again. (HeadlessAnalyzer)  
ERROR REPORT: Import failed for file: file:///home/analyst/ir-alalysis/samples/malware/2363346f78f6c52c14cf72ee9585985e1d2b9148e218fed5403483c6889ed528.sh (HeadlessAnalyzer)  
==========================================
Ghidra analysis completed successfully
==========================================

Ghidra CFG Stats:
  (CFG stats not available)

Ghidra Performance:
	Elapsed (wall clock) time (h:mm:ss or m:ss): 0:06.43
	Maximum resident set size (kbytes): 194488

--- angr VEX IR Analysis ---

angr analysis: FAILED
==================================================
angr VEX IR Analysis
==================================================
Binary: /home/analyst/ir-alalysis/samples/malware/2363346f78f6c52c14cf72ee9585985e1d2b9148e218fed5403483c6889ed528.sh
==================================================
Loading binary with angr...

angr CFG Stats:
  (CFG stats not available)

angr Performance:
	Elapsed (wall clock) time (h:mm:ss or m:ss): 0:01.51
	Maximum resident set size (kbytes): 101072

--- LLVM IR Analysis ---

==========================================
LLVM IR Analysis
==========================================
Binary:  /home/analyst/ir-alalysis/samples/malware/2363346f78f6c52c14cf72ee9585985e1d2b9148e218fed5403483c6889ed528.sh
==========================================

Detected native binary (not LLVM bitcode)
Performing LLVM-based binary analysis...

--- Binary Information ---
llvm-objdump: error: '/home/analyst/ir-alalysis/samples/malware/2363346f78f6c52c14cf72ee9585985e1d2b9148e218fed5403483c6889ed528.sh': The file was not recognized as a valid object file

--- Disassembly (first 100 instructions) ---
llvm-objdump: error: '/home/analyst/ir-alalysis/samples/malware/2363346f78f6c52c14cf72ee9585985e1d2b9148e218fed5403483c6889ed528.sh': The file was not recognized as a valid object file

--- Symbol Table (first 50 entries) ---
llvm-objdump: error: '/home/analyst/ir-alalysis/samples/malware/2363346f78f6c52c14cf72ee9585985e1d2b9148e218fed5403483c6889ed528.sh': The file was not recognized as a valid object file

NOTE: For true binary-to-LLVM IR lifting, consider using:
  - mcsema: https://github.com/lifting-bits/mcsema
  - remill: https://github.com/lifting-bits/remill
  - rellic: https://github.com/lifting-bits/rellic

==========================================
LLVM analysis completed successfully
==========================================
LLVM analysis: SUCCESS
	Command being timed: "/home/analyst/ir-alalysis/scripts/analyze_llvm.sh /home/analyst/ir-alalysis/samples/malware/2363346f78f6c52c14cf72ee9585985e1d2b9148e218fed5403483c6889ed528.sh"
	User time (seconds): 0.02
	System time (seconds): 0.06
	Percent of CPU this job got: 95%
	Elapsed (wall clock) time (h:mm:ss or m:ss): 0:00.09
	Average shared text size (kbytes): 0
	Average unshared data size (kbytes): 0
	Average stack size (kbytes): 0
	Average total size (kbytes): 0
	Maximum resident set size (kbytes): 50176
	Average resident set size (kbytes): 0
	Major (requiring I/O) page faults: 0
	Minor (reclaiming a frame) page faults: 9965
	Voluntary context switches: 27
	Involuntary context switches: 39
	Swaps: 0
	File system inputs: 0
	File system outputs: 0
	Socket messages sent: 0
	Socket messages received: 0
	Signals delivered: 0
	Page size (bytes): 4096
	Exit status: 0

Completed: 2363346f78f6c52c14cf72ee9585985e1d2b9148e218fed5403483c6889ed528.sh

========================================
Processing sample 9: 283fc1969391d9eb82a4b65ce96fc9b296b18c8f4c1521554682a4cf92c2959a.elf
========================================

--- Ghidra P-code Analysis ---

Ghidra analysis: SUCCESS
==========================================
Ghidra Headless Analysis
==========================================
Binary:  /home/analyst/ir-alalysis/samples/malware/283fc1969391d9eb82a4b65ce96fc9b296b18c8f4c1521554682a4cf92c2959a.elf
Project: ghidra_analysis_283fc1969391d9eb82a4b65ce96fc9b296b18c8f4c1521554682a4cf92c2959a.elf_20251025_201809
Location: ./ghidra_projects
==========================================
INFO  Using log config file: jar:file:/home/analyst/ghidra/Ghidra/Framework/Generic/lib/Generic.jar!/generic.log4j.xml (LoggingInitialization)  
INFO  Using log file: /home/analyst/.config/ghidra/ghidra_11.4.2_PUBLIC/application.log (LoggingInitialization)  
INFO  Loading user preferences: /home/analyst/.config/ghidra/ghidra_11.4.2_PUBLIC/preferences (Preferences)  
INFO  Searching for classes... (ClassSearcher)  
INFO  Class search complete (1264 ms) (ClassSearcher)  
INFO  Initializing SSL Context (SSLContextInitializer)  
INFO  Initializing Random Number Generator... (SecureRandomFactory)  
INFO  Random Number Generator initialization complete: NativePRNGNonBlocking (SecureRandomFactory)  
INFO  Trust manager disabled, cacerts have not been set (ApplicationTrustManagerFactory)  
INFO  Headless startup complete (3729 ms) (AnalyzeHeadless)  
INFO  Class searcher loaded 58 extension points (18 false positives) (ClassSearcher)  
INFO  HEADLESS Script Paths:
    /home/analyst/ghidra/Ghidra/Features/GnuDemangler/ghidra_scripts
    /home/analyst/ghidra/Ghidra/Features/BytePatterns/ghidra_scripts
    /home/analyst/ghidra/Ghidra/Features/SystemEmulation/ghidra_scripts
    /home/analyst/ghidra/Ghidra/Processors/DATA/ghidra_scripts
    /home/analyst/ghidra/Ghidra/Features/PyGhidra/ghidra_scripts
    /home/analyst/ghidra/Ghidra/Features/MicrosoftCodeAnalyzer/ghidra_scripts
    /home/analyst/ghidra/Ghidra/Features/Base/ghidra_scripts
    /home/analyst/ghidra/Ghidra/Features/Jython/ghidra_scripts
    /home/analyst/ghidra/Ghidra/Features/VersionTracking/ghidra_scripts
    /home/analyst/ghidra/Ghidra/Features/PDB/ghidra_scripts
    /home/analyst/ghidra/Ghidra/Processors/Atmel/ghidra_scripts
    /home/analyst/ghidra/Ghidra/Debug/Debugger-rmi-trace/ghidra_scripts
    /home/analyst/ghidra/Ghidra/Features/FileFormats/ghidra_scripts
    /home/analyst/ghidra/Ghidra/Processors/JVM/ghidra_scripts
    /home/analyst/ghidra/Ghidra/Debug/Debugger/ghidra_scripts
    /home/analyst/ghidra/Ghidra/Processors/PIC/ghidra_scripts
    /home/analyst/ghidra/Ghidra/Features/WildcardAssembler/ghidra_scripts
    /home/analyst/ghidra/Ghidra/Processors/8051/ghidra_scripts
    /home/analyst/ghidra/Ghidra/Features/Decompiler/ghidra_scripts
    /home/analyst/ghidra/Ghidra/Features/DecompilerDependent/ghidra_scripts
    /home/analyst/ghidra/Ghidra/Features/FunctionID/ghidra_scripts
    /home/analyst/ghidra/Ghidra/Features/SwiftDemangler/ghidra_scripts
    /home/analyst/ghidra/Ghidra/Features/BSim/ghidra_scripts (HeadlessAnalyzer)  
INFO  HEADLESS: execution starts (HeadlessAnalyzer)  
INFO  Creating temporary project: /home/analyst/ir-alalysis/./ghidra_projects/ghidra_analysis_283fc1969391d9eb82a4b65ce96fc9b296b18c8f4c1521554682a4cf92c2959a.elf_20251025_201809 (HeadlessAnalyzer)  
INFO  Creating project: /home/analyst/ir-alalysis/./ghidra_projects/ghidra_analysis_283fc1969391d9eb82a4b65ce96fc9b296b18c8f4c1521554682a4cf92c2959a.elf_20251025_201809 (DefaultProject)  
INFO  REPORT: Processing input files:  (HeadlessAnalyzer)  
INFO       project: /home/analyst/ir-alalysis/./ghidra_projects/ghidra_analysis_283fc1969391d9eb82a4b65ce96fc9b296b18c8f4c1521554682a4cf92c2959a.elf_20251025_201809 (HeadlessAnalyzer)  
INFO  IMPORTING: file:///home/analyst/ir-alalysis/samples/malware/283fc1969391d9eb82a4b65ce96fc9b296b18c8f4c1521554682a4cf92c2959a.elf (HeadlessAnalyzer)  
INFO  Using Loader: Executable and Linking Format (ELF) (AutoImporter)  
INFO  Using Language/Compiler: sparc:BE:32:default:default (AutoImporter)  
INFO  Using Library Search Path: [., /bin, /lib, /lib64, /lib/x86_64-linux-gnu, /lib/aarch64-linux-gnu, /usr/bin, /usr/lib, /usr/X11R6/bin, /usr/X11R6/lib, /usr/java/packages/lib, /usr/lib/x86_64-linux-gnu/jni, /usr/lib/x86_64-linux-gnu, /usr/lib/jni] (AutoImporter)  
INFO  Additional info:
Loading file:///home/analyst/ir-alalysis/samples/malware/283fc1969391d9eb82a4b65ce96fc9b296b18c8f4c1521554682a4cf92c2959a.elf?MD5=d586ccebf3700e725a13fc10303bc811...
------------------------------------------------

 (AutoImporter)  
INFO  IMPORTING: Loaded 0 additional files (HeadlessAnalyzer)  
INFO  ANALYZING all memory and code: file:///home/analyst/ir-alalysis/samples/malware/283fc1969391d9eb82a4b65ce96fc9b296b18c8f4c1521554682a4cf92c2959a.elf (HeadlessAnalyzer)  
ERROR REPORT: Analysis timed out at 0 seconds. Processing not completed for file: file:///home/analyst/ir-alalysis/samples/malware/283fc1969391d9eb82a4b65ce96fc9b296b18c8f4c1521554682a4cf92c2959a.elf (HeadlessAnalyzer)  
INFO  SCRIPT: /home/analyst/ir-alalysis/scripts/get_cfg_stats.py (HeadlessAnalyzer)  
GHIDRA_STATS:Functions=1
GHIDRA_STATS:BasicBlocks=0
GHIDRA_STATS:TotalPcodeOps=0
INFO  ANALYZING changes made by post scripts: file:///home/analyst/ir-alalysis/samples/malware/283fc1969391d9eb82a4b65ce96fc9b296b18c8f4c1521554682a4cf92c2959a.elf (HeadlessAnalyzer)  
INFO  REPORT: Post-analysis succeeded for file: file:///home/analyst/ir-alalysis/samples/malware/283fc1969391d9eb82a4b65ce96fc9b296b18c8f4c1521554682a4cf92c2959a.elf (HeadlessAnalyzer)  
INFO  REPORT: Save succeeded for: /283fc1969391d9eb82a4b65ce96fc9b296b18c8f4c1521554682a4cf92c2959a.elf (ghidra_analysis_283fc1969391d9eb82a4b65ce96fc9b296b18c8f4c1521554682a4cf92c2959a.elf_20251025_201809:/283fc1969391d9eb82a4b65ce96fc9b296b18c8f4c1521554682a4cf92c2959a.elf) (HeadlessAnalyzer)  
INFO  REPORT: Import succeeded (HeadlessAnalyzer)  
==========================================
Ghidra analysis completed successfully
==========================================

Ghidra CFG Stats:
GHIDRA_STATS:Functions=1
GHIDRA_STATS:BasicBlocks=0
GHIDRA_STATS:TotalPcodeOps=0

Ghidra Performance:
	Elapsed (wall clock) time (h:mm:ss or m:ss): 0:14.02
	Maximum resident set size (kbytes): 609088

--- angr VEX IR Analysis ---

angr analysis: FAILED
==================================================
angr VEX IR Analysis
==================================================
Binary: /home/analyst/ir-alalysis/samples/malware/283fc1969391d9eb82a4b65ce96fc9b296b18c8f4c1521554682a4cf92c2959a.elf
==================================================
Loading binary with angr...
Architecture: sparc:BE:32:default
Entry point: 0x101a4
Binary base address: 0x10000

Generating CFG with angr...

angr CFG Stats:
  (CFG stats not available)

angr Performance:
	Elapsed (wall clock) time (h:mm:ss or m:ss): 0:01.89
	Maximum resident set size (kbytes): 108624

--- LLVM IR Analysis ---

==========================================
LLVM IR Analysis
==========================================
Binary:  /home/analyst/ir-alalysis/samples/malware/283fc1969391d9eb82a4b65ce96fc9b296b18c8f4c1521554682a4cf92c2959a.elf
==========================================

Detected native binary (not LLVM bitcode)
Performing LLVM-based binary analysis...

--- Binary Information ---

/home/analyst/ir-alalysis/samples/malware/283fc1969391d9eb82a4b65ce96fc9b296b18c8f4c1521554682a4cf92c2959a.elf:	file format elf32-sparc

Sections:
Idx Name          Size     VMA      Type
  0               00000000 00000000 
  1 .init         0000001c 00010094 TEXT
  2 .text         00013cf4 000100b0 TEXT
  3 .fini         00000014 00023da4 TEXT
  4 .rodata       00003c18 00023db8 DATA
  5 .ctors        00000008 00038000 DATA
  6 .dtors        00000008 00038008 DATA
  7 .data         00000410 00038018 DATA
  8 .bss          00002660 00038428 BSS
  9 .shstrtab     0000003e 00000000 

--- Disassembly (first 100 instructions) ---

/home/analyst/ir-alalysis/samples/malware/283fc1969391d9eb82a4b65ce96fc9b296b18c8f4c1521554682a4cf92c2959a.elf:	file format elf32-sparc

Disassembly of section .init:

00010094 <.init>:
   10094: 9d e3 bf 98  	save %sp, -104, %sp
   10098: 40 00 00 28  	call 160
   1009c: 01 00 00 00  	nop
   100a0: 40 00 4f 2f  	call 81084
   100a4: 01 00 00 00  	nop
   100a8: 81 c7 e0 08  	ret
   100ac: 81 e8 00 00  	restore

Disassembly of section .text:

000100b0 <.text>:
   100b0: 9d e3 bf 98  	save %sp, -104, %sp
   100b4: 23 00 00 e1  	sethi 225, %l1
   100b8: c2 0c 60 28  	ldub [%l1+40], %g1
   100bc: 80 a0 60 00  	cmp %g1, 0
   100c0: 12 80 00 19  	bne	25
   100c4: 21 00 00 e0  	sethi 224, %l0
   100c8: c2 04 20 1c  	ld [%l0+28], %g1
   100cc: c4 00 40 00  	ld [%g1], %g2
   100d0: 80 a0 a0 00  	cmp %g2, 0
   100d4: 22 80 00 0b  	be,a	11
   100d8: 03 00 00 00  	sethi 0, %g1
   100dc: 82 00 60 04  	add %g1, 4, %g1
   100e0: 9f c0 80 00  	call %g2
   100e4: c2 24 20 1c  	st %g1, [%l0+28]
   100e8: c2 04 20 1c  	ld [%l0+28], %g1
   100ec: c4 00 40 00  	ld [%g1], %g2
   100f0: 80 a0 a0 00  	cmp %g2, 0
   100f4: 12 bf ff fb  	bne	4194299
   100f8: 82 00 60 04  	add %g1, 4, %g1
   100fc: 03 00 00 00  	sethi 0, %g1
   10100: 82 10 60 00  	or %g1, 0, %g1
   10104: 80 a0 60 00  	cmp %g1, 0
   10108: 02 80 00 06  	be	6
   1010c: 82 10 20 01  	mov	1, %g1
   10110: 11 00 00 9e  	sethi 158, %o0
   10114: 7f ff bf bb  	call -65812
   10118: 90 12 21 d0  	or %o0, 464, %o0
   1011c: 82 10 20 01  	mov	1, %g1
   10120: c2 2c 60 28  	stb %g1, [%l1+40]
   10124: 81 c7 e0 08  	ret
   10128: 81 e8 00 00  	restore
   1012c: 9d e3 bf 98  	save %sp, -104, %sp
   10130: 81 c7 e0 08  	ret
   10134: 81 e8 00 00  	restore
   10138: 9d e3 bf 98  	save %sp, -104, %sp
   1013c: 03 00 00 00  	sethi 0, %g1
   10140: 82 10 60 00  	or %g1, 0, %g1
   10144: 80 a0 60 00  	cmp %g1, 0
   10148: 02 80 00 06  	be	6
   1014c: 11 00 00 9e  	sethi 158, %o0
   10150: 13 00 00 e1  	sethi 225, %o1
   10154: 90 12 21 d0  	or %o0, 464, %o0
   10158: 7f ff bf aa  	call -65880
   1015c: 92 12 60 2c  	or %o1, 44, %o1
   10160: 03 00 00 e0  	sethi 224, %g1
   10164: 07 00 00 00  	sethi 0, %g3
   10168: c4 00 60 10  	ld [%g1+16], %g2
   1016c: 86 10 e0 00  	or %g3, 0, %g3
   10170: 80 a0 a0 00  	cmp %g2, 0
   10174: 02 80 00 07  	be	7
   10178: 90 10 60 10  	or %g1, 16, %o0
   1017c: 80 a0 e0 00  	cmp %g3, 0
   10180: 02 80 00 04  	be	4
   10184: 01 00 00 00  	nop
   10188: 9f c0 c0 00  	call %g3
   1018c: 01 00 00 00  	nop
   10190: 81 c7 e0 08  	ret
   10194: 81 e8 00 00  	restore
   10198: 9d e3 bf 98  	save %sp, -104, %sp
   1019c: 81 c7 e0 08  	ret
   101a0: 81 e8 00 00  	restore
   101a4: bc 10 00 00  	mov	%g0, %fp
   101a8: 9c 23 a0 18  	sub %sp, 24, %sp
   101ac: d2 03 a0 58  	ld [%sp+88], %o1
   101b0: 94 03 a0 5c  	add %sp, 92, %o2
   101b4: 11 00 00 5a  	sethi 90, %o0
   101b8: 17 00 00 40  	sethi 64, %o3
   101bc: 19 00 00 8f  	sethi 143, %o4
   101c0: 90 12 20 98  	or %o0, 152, %o0
   101c4: 96 12 e0 94  	or %o3, 148, %o3
   101c8: 98 13 21 a4  	or %o4, 420, %o4
   101cc: 9a 10 00 01  	mov	%g1, %o5
   101d0: 40 00 3f 13  	call 64588
   101d4: 01 00 00 00  	nop
   101d8: 00 00 00 00  	unimp 0
   101dc: 00 01 1d 68  	unimp 73064
   101e0: 00 01 1f 24  	unimp 73508
   101e4: 00 01 1e c4  	unimp 73412
   101e8: 00 01 1e f4  	unimp 73460
   101ec: 00 01 1e 04  	unimp 73220
   101f0: 00 01 1e 34  	unimp 73268
   101f4: 00 01 1e 64  	unimp 73316
   101f8: 00 01 1e 94  	unimp 73364
   101fc: 00 01 1d d4  	unimp 73172
   10200: 00 01 20 44  	unimp 73796
   10204: 00 01 1f e4  	unimp 73700
   10208: 00 01 20 14  	unimp 73748
   1020c: 00 01 1f 54  	unimp 73556
   10210: 00 01 1f b4  	unimp 73652
   10214: 00 01 1f 84  	unimp 73604
   10218: 03 3f ff eb  	sethi 4194283, %g1
   1021c: 82 10 62 58  	or %g1, 600, %g1
   10220: 9d e3 80 01  	save %sp, %g1, %sp
   10224: 94 10 20 15  	mov	21, %o2
   10228: b4 0e a0 ff  	and %i2, 255, %i2
   1022c: 96 10 20 00  	mov	0, %o3
   10230: 92 10 00 1b  	mov	%i3, %o1
   10234: 40 00 07 90  	call 7744
   10238: 90 10 00 1a  	mov	%i2, %o0
   1023c: 05 00 00 8f  	sethi 143, %g2
   10240: 03 3f ff eb  	sethi 4194283, %g1
   10244: 82 10 62 c0  	or %g1, 704, %g1
   10248: 82 00 40 1e  	add %g1, %fp, %g1
   1024c: 96 10 a1 b8  	or %g2, 440, %o3
   10250: d0 20 40 00  	st %o0, [%g1]
   10254: 92 10 00 1b  	mov	%i3, %o1
   10258: 94 10 20 14  	mov	20, %o2
   1025c: 40 00 07 86  	call 7704
   10260: 90 10 00 1a  	mov	%i2, %o0
   10264: 92 10 00 1b  	mov	%i3, %o1
   10268: 94 10 20 08  	mov	8, %o2
   1026c: 96 10 20 00  	mov	0, %o3
   10270: ba 10 00 08  	mov	%o0, %i5
   10274: 40 00 07 80  	call 7680
   10278: 90 10 00 1a  	mov	%i2, %o0
   1027c: 92 10 00 1b  	mov	%i3, %o1
   10280: aa 10 00 08  	mov	%o0, %l5
   10284: 94 10 20 16  	mov	22, %o2
   10288: 90 10 00 1a  	mov	%i2, %o0
   1028c: 17 00 00 98  	sethi 152, %o3
   10290: 40 00 07 79  	call 7652
   10294: 96 12 e3 40  	or %o3, 832, %o3
   10298: 92 10 00 1b  	mov	%i3, %o1
   1029c: 94 10 20 18  	mov	24, %o2
   102a0: 96 10 20 01  	mov	1, %o3
   102a4: a8 10 00 08  	mov	%o0, %l4
   102a8: 40 00 08 79  	call 8676
   102ac: 90 10 00 1a  	mov	%i2, %o0
   102b0: 92 10 00 1b  	mov	%i3, %o1
   102b4: 94 10 20 07  	mov	7, %o2
   102b8: 96 10 20 50  	mov	80, %o3
   102bc: a0 10 00 08  	mov	%o0, %l0
   102c0: 40 00 08 73  	call 8652

--- Symbol Table (first 50 entries) ---

/home/analyst/ir-alalysis/samples/malware/283fc1969391d9eb82a4b65ce96fc9b296b18c8f4c1521554682a4cf92c2959a.elf:	file format elf32-sparc

SYMBOL TABLE:

NOTE: For true binary-to-LLVM IR lifting, consider using:
  - mcsema: https://github.com/lifting-bits/mcsema
  - remill: https://github.com/lifting-bits/remill
  - rellic: https://github.com/lifting-bits/rellic

==========================================
LLVM analysis completed successfully
==========================================
LLVM analysis: SUCCESS
	Command being timed: "/home/analyst/ir-alalysis/scripts/analyze_llvm.sh /home/analyst/ir-alalysis/samples/malware/283fc1969391d9eb82a4b65ce96fc9b296b18c8f4c1521554682a4cf92c2959a.elf"
	User time (seconds): 0.02
	System time (seconds): 0.06
	Percent of CPU this job got: 88%
	Elapsed (wall clock) time (h:mm:ss or m:ss): 0:00.10
	Average shared text size (kbytes): 0
	Average unshared data size (kbytes): 0
	Average stack size (kbytes): 0
	Average total size (kbytes): 0
	Maximum resident set size (kbytes): 51456
	Average resident set size (kbytes): 0
	Major (requiring I/O) page faults: 4
	Minor (reclaiming a frame) page faults: 9964
	Voluntary context switches: 69
	Involuntary context switches: 81
	Swaps: 0
	File system inputs: 704
	File system outputs: 16
	Socket messages sent: 0
	Socket messages received: 0
	Signals delivered: 0
	Page size (bytes): 4096
	Exit status: 0

Completed: 283fc1969391d9eb82a4b65ce96fc9b296b18c8f4c1521554682a4cf92c2959a.elf

========================================
Processing sample 10: 2ae4960f237700b856a8489f790305aedcd7c0d5918213cc0a8a6922c9d18f3c.elf
========================================

--- Ghidra P-code Analysis ---

Ghidra analysis: SUCCESS
==========================================
Ghidra Headless Analysis
==========================================
Binary:  /home/analyst/ir-alalysis/samples/malware/2ae4960f237700b856a8489f790305aedcd7c0d5918213cc0a8a6922c9d18f3c.elf
Project: ghidra_analysis_2ae4960f237700b856a8489f790305aedcd7c0d5918213cc0a8a6922c9d18f3c.elf_20251025_201825
Location: ./ghidra_projects
==========================================
INFO  Using log config file: jar:file:/home/analyst/ghidra/Ghidra/Framework/Generic/lib/Generic.jar!/generic.log4j.xml (LoggingInitialization)  
INFO  Using log file: /home/analyst/.config/ghidra/ghidra_11.4.2_PUBLIC/application.log (LoggingInitialization)  
INFO  Loading user preferences: /home/analyst/.config/ghidra/ghidra_11.4.2_PUBLIC/preferences (Preferences)  
INFO  Searching for classes... (ClassSearcher)  
INFO  Class search complete (1039 ms) (ClassSearcher)  
INFO  Initializing SSL Context (SSLContextInitializer)  
INFO  Initializing Random Number Generator... (SecureRandomFactory)  
INFO  Random Number Generator initialization complete: NativePRNGNonBlocking (SecureRandomFactory)  
INFO  Trust manager disabled, cacerts have not been set (ApplicationTrustManagerFactory)  
INFO  Headless startup complete (4260 ms) (AnalyzeHeadless)  
INFO  Class searcher loaded 58 extension points (18 false positives) (ClassSearcher)  
INFO  HEADLESS Script Paths:
    /home/analyst/ghidra/Ghidra/Features/GnuDemangler/ghidra_scripts
    /home/analyst/ghidra/Ghidra/Features/BytePatterns/ghidra_scripts
    /home/analyst/ghidra/Ghidra/Features/SystemEmulation/ghidra_scripts
    /home/analyst/ghidra/Ghidra/Processors/DATA/ghidra_scripts
    /home/analyst/ghidra/Ghidra/Features/PyGhidra/ghidra_scripts
    /home/analyst/ghidra/Ghidra/Features/MicrosoftCodeAnalyzer/ghidra_scripts
    /home/analyst/ghidra/Ghidra/Features/Base/ghidra_scripts
    /home/analyst/ghidra/Ghidra/Features/Jython/ghidra_scripts
    /home/analyst/ghidra/Ghidra/Features/VersionTracking/ghidra_scripts
    /home/analyst/ghidra/Ghidra/Features/PDB/ghidra_scripts
    /home/analyst/ghidra/Ghidra/Processors/Atmel/ghidra_scripts
    /home/analyst/ghidra/Ghidra/Debug/Debugger-rmi-trace/ghidra_scripts
    /home/analyst/ghidra/Ghidra/Features/FileFormats/ghidra_scripts
    /home/analyst/ghidra/Ghidra/Processors/JVM/ghidra_scripts
    /home/analyst/ghidra/Ghidra/Debug/Debugger/ghidra_scripts
    /home/analyst/ghidra/Ghidra/Processors/PIC/ghidra_scripts
    /home/analyst/ghidra/Ghidra/Features/WildcardAssembler/ghidra_scripts
    /home/analyst/ghidra/Ghidra/Processors/8051/ghidra_scripts
    /home/analyst/ghidra/Ghidra/Features/Decompiler/ghidra_scripts
    /home/analyst/ghidra/Ghidra/Features/DecompilerDependent/ghidra_scripts
    /home/analyst/ghidra/Ghidra/Features/FunctionID/ghidra_scripts
    /home/analyst/ghidra/Ghidra/Features/SwiftDemangler/ghidra_scripts
    /home/analyst/ghidra/Ghidra/Features/BSim/ghidra_scripts (HeadlessAnalyzer)  
INFO  HEADLESS: execution starts (HeadlessAnalyzer)  
INFO  Creating temporary project: /home/analyst/ir-alalysis/./ghidra_projects/ghidra_analysis_2ae4960f237700b856a8489f790305aedcd7c0d5918213cc0a8a6922c9d18f3c.elf_20251025_201825 (HeadlessAnalyzer)  
INFO  Creating project: /home/analyst/ir-alalysis/./ghidra_projects/ghidra_analysis_2ae4960f237700b856a8489f790305aedcd7c0d5918213cc0a8a6922c9d18f3c.elf_20251025_201825 (DefaultProject)  
INFO  REPORT: Processing input files:  (HeadlessAnalyzer)  
INFO       project: /home/analyst/ir-alalysis/./ghidra_projects/ghidra_analysis_2ae4960f237700b856a8489f790305aedcd7c0d5918213cc0a8a6922c9d18f3c.elf_20251025_201825 (HeadlessAnalyzer)  
INFO  IMPORTING: file:///home/analyst/ir-alalysis/samples/malware/2ae4960f237700b856a8489f790305aedcd7c0d5918213cc0a8a6922c9d18f3c.elf (HeadlessAnalyzer)  
INFO  Using Loader: Executable and Linking Format (ELF) (AutoImporter)  
INFO  Using Language/Compiler: SuperH4:LE:32:default:default (AutoImporter)  
INFO  Using Library Search Path: [., /bin, /lib, /lib64, /lib/x86_64-linux-gnu, /lib/aarch64-linux-gnu, /usr/bin, /usr/lib, /usr/X11R6/bin, /usr/X11R6/lib, /usr/java/packages/lib, /usr/lib/x86_64-linux-gnu/jni, /usr/lib/x86_64-linux-gnu, /usr/lib/jni] (AutoImporter)  
INFO  Additional info:
Loading file:///home/analyst/ir-alalysis/samples/malware/2ae4960f237700b856a8489f790305aedcd7c0d5918213cc0a8a6922c9d18f3c.elf?MD5=8e5b0ef28e8b6b374c1670c2069f1118...
------------------------------------------------

 (AutoImporter)  
INFO  IMPORTING: Loaded 0 additional files (HeadlessAnalyzer)  
INFO  ANALYZING all memory and code: file:///home/analyst/ir-alalysis/samples/malware/2ae4960f237700b856a8489f790305aedcd7c0d5918213cc0a8a6922c9d18f3c.elf (HeadlessAnalyzer)  
ERROR REPORT: Analysis timed out at 0 seconds. Processing not completed for file: file:///home/analyst/ir-alalysis/samples/malware/2ae4960f237700b856a8489f790305aedcd7c0d5918213cc0a8a6922c9d18f3c.elf (HeadlessAnalyzer)  
INFO  SCRIPT: /home/analyst/ir-alalysis/scripts/get_cfg_stats.py (HeadlessAnalyzer)  
GHIDRA_STATS:Functions=1
GHIDRA_STATS:BasicBlocks=0
GHIDRA_STATS:TotalPcodeOps=0
INFO  ANALYZING changes made by post scripts: file:///home/analyst/ir-alalysis/samples/malware/2ae4960f237700b856a8489f790305aedcd7c0d5918213cc0a8a6922c9d18f3c.elf (HeadlessAnalyzer)  
INFO  REPORT: Post-analysis succeeded for file: file:///home/analyst/ir-alalysis/samples/malware/2ae4960f237700b856a8489f790305aedcd7c0d5918213cc0a8a6922c9d18f3c.elf (HeadlessAnalyzer)  
INFO  REPORT: Save succeeded for: /2ae4960f237700b856a8489f790305aedcd7c0d5918213cc0a8a6922c9d18f3c.elf (ghidra_analysis_2ae4960f237700b856a8489f790305aedcd7c0d5918213cc0a8a6922c9d18f3c.elf_20251025_201825:/2ae4960f237700b856a8489f790305aedcd7c0d5918213cc0a8a6922c9d18f3c.elf) (HeadlessAnalyzer)  
INFO  REPORT: Import succeeded (HeadlessAnalyzer)  
==========================================
Ghidra analysis completed successfully
==========================================

Ghidra CFG Stats:
GHIDRA_STATS:Functions=1
GHIDRA_STATS:BasicBlocks=0
GHIDRA_STATS:TotalPcodeOps=0

Ghidra Performance:
	Elapsed (wall clock) time (h:mm:ss or m:ss): 0:14.67
	Maximum resident set size (kbytes): 605380

--- angr VEX IR Analysis ---

angr analysis: SUCCESS
==================================================
angr VEX IR Analysis
==================================================
Binary: /home/analyst/ir-alalysis/samples/malware/2ae4960f237700b856a8489f790305aedcd7c0d5918213cc0a8a6922c9d18f3c.elf
==================================================
Loading binary with angr...
Architecture: SuperH4:LE:32:default
Entry point: 0x400410
Binary base address: 0x400000

Generating CFG with angr...
Functions discovered: 846
Basic blocks (CFG nodes): 9981
CFG edges: 14953

Counting VEX IR statements...
Total VEX statements: 0

--- angr CFG & IR Stats ---
ANGR_STATS:Functions=846
ANGR_STATS:Nodes=9981
ANGR_STATS:Edges=14953
ANGR_STATS:TotalVexStatements=0
---------------------------

Sample functions (first 10):
  - sub_4000b4 @ 0x4000b4
  - sub_4000d0 @ 0x4000d0
  - sub_4000fc @ 0x4000fc
  - sub_4003d6 @ 0x4003d6
  - _start @ 0x400410
  - sub_400424 @ 0x400424
  - sub_400428 @ 0x400428
  - sub_400458 @ 0x400458
  - sub_40046e @ 0x40046e
  - sub_40047c @ 0x40047c
==================================================
angr analysis completed successfully
==================================================

angr CFG Stats:
ANGR_STATS:Functions=846
ANGR_STATS:Nodes=9981
ANGR_STATS:Edges=14953
ANGR_STATS:TotalVexStatements=0

angr Performance:
	Elapsed (wall clock) time (h:mm:ss or m:ss): 0:08.89
	Maximum resident set size (kbytes): 352444

--- LLVM IR Analysis ---

==========================================
LLVM IR Analysis
==========================================
Binary:  /home/analyst/ir-alalysis/samples/malware/2ae4960f237700b856a8489f790305aedcd7c0d5918213cc0a8a6922c9d18f3c.elf
==========================================

Detected native binary (not LLVM bitcode)
Performing LLVM-based binary analysis...

--- Binary Information ---

/home/analyst/ir-alalysis/samples/malware/2ae4960f237700b856a8489f790305aedcd7c0d5918213cc0a8a6922c9d18f3c.elf:	file format elf32-unknown

Sections:
Idx Name          Size     VMA      Type
  0               00000000 00000000 
  1 .init         00000016 004000b4 TEXT
  2 .text         00016140 004000d0 TEXT
  3 .fini         00000016 00416210 TEXT
  4 .rodata       00001c44 00416228 DATA
  5 .init_array   00000004 0042fff8 
  6 .fini_array   00000004 0042fffc 
  7 .data         00000030 00430000 DATA
  8 .got          00000010 00430030 DATA
  9 .bss          00429530 00430040 BSS
 10 .shstrtab     0000004d 00000000 

--- Disassembly (first 100 instructions) ---

/home/analyst/ir-alalysis/samples/malware/2ae4960f237700b856a8489f790305aedcd7c0d5918213cc0a8a6922c9d18f3c.elf:	file format elf32-unknown
llvm-objdump: error: '/home/analyst/ir-alalysis/samples/malware/2ae4960f237700b856a8489f790305aedcd7c0d5918213cc0a8a6922c9d18f3c.elf': can't find target: : error: unable to get target for 'unknown--', see --version and --triple.


--- Symbol Table (first 50 entries) ---

/home/analyst/ir-alalysis/samples/malware/2ae4960f237700b856a8489f790305aedcd7c0d5918213cc0a8a6922c9d18f3c.elf:	file format elf32-unknown

SYMBOL TABLE:

NOTE: For true binary-to-LLVM IR lifting, consider using:
  - mcsema: https://github.com/lifting-bits/mcsema
  - remill: https://github.com/lifting-bits/remill
  - rellic: https://github.com/lifting-bits/rellic

==========================================
LLVM analysis completed successfully
==========================================
LLVM analysis: SUCCESS
	Command being timed: "/home/analyst/ir-alalysis/scripts/analyze_llvm.sh /home/analyst/ir-alalysis/samples/malware/2ae4960f237700b856a8489f790305aedcd7c0d5918213cc0a8a6922c9d18f3c.elf"
	User time (seconds): 0.02
	System time (seconds): 0.05
	Percent of CPU this job got: 93%
	Elapsed (wall clock) time (h:mm:ss or m:ss): 0:00.08
	Average shared text size (kbytes): 0
	Average unshared data size (kbytes): 0
	Average stack size (kbytes): 0
	Average total size (kbytes): 0
	Maximum resident set size (kbytes): 50688
	Average resident set size (kbytes): 0
	Major (requiring I/O) page faults: 0
	Minor (reclaiming a frame) page faults: 9967
	Voluntary context switches: 22
	Involuntary context switches: 75
	Swaps: 0
	File system inputs: 0
	File system outputs: 0
	Socket messages sent: 0
	Socket messages received: 0
	Signals delivered: 0
	Page size (bytes): 4096
	Exit status: 0

Completed: 2ae4960f237700b856a8489f790305aedcd7c0d5918213cc0a8a6922c9d18f3c.elf

========================================
Processing sample 11: 3286c8417560374a3e3e2281200b8a2a44355b9ee1093be67d1997f950efd9dd.elf
========================================

--- Ghidra P-code Analysis ---

Ghidra analysis: SUCCESS
==========================================
Ghidra Headless Analysis
==========================================
Binary:  /home/analyst/ir-alalysis/samples/malware/3286c8417560374a3e3e2281200b8a2a44355b9ee1093be67d1997f950efd9dd.elf
Project: ghidra_analysis_3286c8417560374a3e3e2281200b8a2a44355b9ee1093be67d1997f950efd9dd.elf_20251025_201849
Location: ./ghidra_projects
==========================================
INFO  Using log config file: jar:file:/home/analyst/ghidra/Ghidra/Framework/Generic/lib/Generic.jar!/generic.log4j.xml (LoggingInitialization)  
INFO  Using log file: /home/analyst/.config/ghidra/ghidra_11.4.2_PUBLIC/application.log (LoggingInitialization)  
INFO  Loading user preferences: /home/analyst/.config/ghidra/ghidra_11.4.2_PUBLIC/preferences (Preferences)  
INFO  Searching for classes... (ClassSearcher)  
INFO  Class search complete (1068 ms) (ClassSearcher)  
INFO  Initializing SSL Context (SSLContextInitializer)  
INFO  Initializing Random Number Generator... (SecureRandomFactory)  
INFO  Random Number Generator initialization complete: NativePRNGNonBlocking (SecureRandomFactory)  
INFO  Trust manager disabled, cacerts have not been set (ApplicationTrustManagerFactory)  
INFO  Headless startup complete (3859 ms) (AnalyzeHeadless)  
INFO  Class searcher loaded 58 extension points (18 false positives) (ClassSearcher)  
INFO  HEADLESS Script Paths:
    /home/analyst/ghidra/Ghidra/Features/GnuDemangler/ghidra_scripts
    /home/analyst/ghidra/Ghidra/Features/BytePatterns/ghidra_scripts
    /home/analyst/ghidra/Ghidra/Features/SystemEmulation/ghidra_scripts
    /home/analyst/ghidra/Ghidra/Processors/DATA/ghidra_scripts
    /home/analyst/ghidra/Ghidra/Features/PyGhidra/ghidra_scripts
    /home/analyst/ghidra/Ghidra/Features/MicrosoftCodeAnalyzer/ghidra_scripts
    /home/analyst/ghidra/Ghidra/Features/Base/ghidra_scripts
    /home/analyst/ghidra/Ghidra/Features/Jython/ghidra_scripts
    /home/analyst/ghidra/Ghidra/Features/VersionTracking/ghidra_scripts
    /home/analyst/ghidra/Ghidra/Features/PDB/ghidra_scripts
    /home/analyst/ghidra/Ghidra/Processors/Atmel/ghidra_scripts
    /home/analyst/ghidra/Ghidra/Debug/Debugger-rmi-trace/ghidra_scripts
    /home/analyst/ghidra/Ghidra/Features/FileFormats/ghidra_scripts
    /home/analyst/ghidra/Ghidra/Processors/JVM/ghidra_scripts
    /home/analyst/ghidra/Ghidra/Debug/Debugger/ghidra_scripts
    /home/analyst/ghidra/Ghidra/Processors/PIC/ghidra_scripts
    /home/analyst/ghidra/Ghidra/Features/WildcardAssembler/ghidra_scripts
    /home/analyst/ghidra/Ghidra/Processors/8051/ghidra_scripts
    /home/analyst/ghidra/Ghidra/Features/Decompiler/ghidra_scripts
    /home/analyst/ghidra/Ghidra/Features/DecompilerDependent/ghidra_scripts
    /home/analyst/ghidra/Ghidra/Features/FunctionID/ghidra_scripts
    /home/analyst/ghidra/Ghidra/Features/SwiftDemangler/ghidra_scripts
    /home/analyst/ghidra/Ghidra/Features/BSim/ghidra_scripts (HeadlessAnalyzer)  
INFO  HEADLESS: execution starts (HeadlessAnalyzer)  
INFO  Creating temporary project: /home/analyst/ir-alalysis/./ghidra_projects/ghidra_analysis_3286c8417560374a3e3e2281200b8a2a44355b9ee1093be67d1997f950efd9dd.elf_20251025_201849 (HeadlessAnalyzer)  
INFO  Creating project: /home/analyst/ir-alalysis/./ghidra_projects/ghidra_analysis_3286c8417560374a3e3e2281200b8a2a44355b9ee1093be67d1997f950efd9dd.elf_20251025_201849 (DefaultProject)  
INFO  REPORT: Processing input files:  (HeadlessAnalyzer)  
INFO       project: /home/analyst/ir-alalysis/./ghidra_projects/ghidra_analysis_3286c8417560374a3e3e2281200b8a2a44355b9ee1093be67d1997f950efd9dd.elf_20251025_201849 (HeadlessAnalyzer)  
INFO  IMPORTING: file:///home/analyst/ir-alalysis/samples/malware/3286c8417560374a3e3e2281200b8a2a44355b9ee1093be67d1997f950efd9dd.elf (HeadlessAnalyzer)  
INFO  Using Loader: Executable and Linking Format (ELF) (AutoImporter)  
INFO  Using Language/Compiler: MIPS:LE:32:default:default (AutoImporter)  
INFO  Using Library Search Path: [., /bin, /lib, /lib64, /lib/x86_64-linux-gnu, /lib/aarch64-linux-gnu, /usr/bin, /usr/lib, /usr/X11R6/bin, /usr/X11R6/lib, /usr/java/packages/lib, /usr/lib/x86_64-linux-gnu/jni, /usr/lib/x86_64-linux-gnu, /usr/lib/jni] (AutoImporter)  
INFO  Additional info:
Loading file:///home/analyst/ir-alalysis/samples/malware/3286c8417560374a3e3e2281200b8a2a44355b9ee1093be67d1997f950efd9dd.elf?MD5=bc5fb2ac6facda541d29a5515625e8d5...
Skipping section [.mdebug.abi32] with invalid size 0x0
Unable to place symbol due to non-loaded section: .mdebug.abi32 - value=0xb76, section=.mdebug.abi32
_mips_gp0_value=0x464eb0
------------------------------------------------

Resolving External Symbols of [/3286c8417560374a3e3e2281200b8a2a44355b9ee1093be67d1997f950efd9dd.elf] - 3 unresolved symbols, no external libraries configured - skipping
 (AutoImporter)  
INFO  IMPORTING: Loaded 0 additional files (HeadlessAnalyzer)  
INFO  ANALYZING all memory and code: file:///home/analyst/ir-alalysis/samples/malware/3286c8417560374a3e3e2281200b8a2a44355b9ee1093be67d1997f950efd9dd.elf (HeadlessAnalyzer)  
ERROR REPORT: Analysis timed out at 0 seconds. Processing not completed for file: file:///home/analyst/ir-alalysis/samples/malware/3286c8417560374a3e3e2281200b8a2a44355b9ee1093be67d1997f950efd9dd.elf (HeadlessAnalyzer)  
INFO  SCRIPT: /home/analyst/ir-alalysis/scripts/get_cfg_stats.py (HeadlessAnalyzer)  
GHIDRA_STATS:Functions=251
GHIDRA_STATS:BasicBlocks=0
GHIDRA_STATS:TotalPcodeOps=0
INFO  ANALYZING changes made by post scripts: file:///home/analyst/ir-alalysis/samples/malware/3286c8417560374a3e3e2281200b8a2a44355b9ee1093be67d1997f950efd9dd.elf (HeadlessAnalyzer)  
INFO  REPORT: Post-analysis succeeded for file: file:///home/analyst/ir-alalysis/samples/malware/3286c8417560374a3e3e2281200b8a2a44355b9ee1093be67d1997f950efd9dd.elf (HeadlessAnalyzer)  
INFO  REPORT: Save succeeded for: /3286c8417560374a3e3e2281200b8a2a44355b9ee1093be67d1997f950efd9dd.elf (ghidra_analysis_3286c8417560374a3e3e2281200b8a2a44355b9ee1093be67d1997f950efd9dd.elf_20251025_201849:/3286c8417560374a3e3e2281200b8a2a44355b9ee1093be67d1997f950efd9dd.elf) (HeadlessAnalyzer)  
INFO  REPORT: Import succeeded (HeadlessAnalyzer)  
==========================================
Ghidra analysis completed successfully
==========================================

Ghidra CFG Stats:
GHIDRA_STATS:Functions=251
GHIDRA_STATS:BasicBlocks=0
GHIDRA_STATS:TotalPcodeOps=0

Ghidra Performance:
	Elapsed (wall clock) time (h:mm:ss or m:ss): 0:16.87
	Maximum resident set size (kbytes): 600856

--- angr VEX IR Analysis ---

angr analysis: SUCCESS
==================================================
angr VEX IR Analysis
==================================================
Binary: /home/analyst/ir-alalysis/samples/malware/3286c8417560374a3e3e2281200b8a2a44355b9ee1093be67d1997f950efd9dd.elf
==================================================
Loading binary with angr...
Architecture: MIPS32
Entry point: 0x4002a0
Binary base address: 0x400000

Generating CFG with angr...
Functions discovered: 318
Basic blocks (CFG nodes): 4151
CFG edges: 8506

Counting VEX IR statements...
Total VEX statements: 93238

--- angr CFG & IR Stats ---
ANGR_STATS:Functions=318
ANGR_STATS:Nodes=4151
ANGR_STATS:Edges=8506
ANGR_STATS:TotalVexStatements=93238
---------------------------

Sample functions (first 10):
  - _init @ 0x4000cc
  - sub_4000f0 @ 0x4000f0
  - sub_400120 @ 0x400120
  - _ftext @ 0x400160
  - frame_dummy @ 0x40021c
  - __start @ 0x4002a0
  - sub_4002ac @ 0x4002ac
  - init_rand @ 0x400310
  - rand_cmwc @ 0x40043c
  - trim @ 0x400614
==================================================
angr analysis completed successfully
==================================================

angr CFG Stats:
ANGR_STATS:Functions=318
ANGR_STATS:Nodes=4151
ANGR_STATS:Edges=8506
ANGR_STATS:TotalVexStatements=93238

angr Performance:
	Elapsed (wall clock) time (h:mm:ss or m:ss): 0:08.50
	Maximum resident set size (kbytes): 192860

--- LLVM IR Analysis ---

==========================================
LLVM IR Analysis
==========================================
Binary:  /home/analyst/ir-alalysis/samples/malware/3286c8417560374a3e3e2281200b8a2a44355b9ee1093be67d1997f950efd9dd.elf
==========================================

Detected native binary (not LLVM bitcode)
Performing LLVM-based binary analysis...

--- Binary Information ---

/home/analyst/ir-alalysis/samples/malware/3286c8417560374a3e3e2281200b8a2a44355b9ee1093be67d1997f950efd9dd.elf:	file format elf32-mips

Sections:
Idx Name          Size     VMA      Type
  0               00000000 00000000 
  1 .reginfo      00000018 004000b4 
  2 .init         0000008c 004000cc TEXT
  3 .text         00018fa0 00400160 TEXT
  4 .fini         0000005c 00419100 TEXT
  5 .rodata       00003460 00419160 DATA
  6 .eh_frame     00000004 0041c5c0 DATA
  7 .ctors        00000008 0045c5c4 DATA
  8 .dtors        00000008 0045c5cc DATA
  9 .jcr          00000004 0045c5d4 DATA
 10 .data.rel.ro  00000430 0045c5d8 DATA
 11 .data         000004b0 0045ca10 DATA
 12 .got          000004d4 0045cec0 DATA
 13 .sbss         00000020 0045d394 BSS
 14 .bss          000063b4 0045d3c0 BSS
 15 .comment      00000b76 00000000 
 16 .mdebug.abi32 00000000 00000b76 
 17 .pdr          00001e60 00000000 
 18 .shstrtab     0000009a 00000000 
 19 .symtab       00002eb0 00000000 
 20 .strtab       00002289 00000000 

--- Disassembly (first 100 instructions) ---

/home/analyst/ir-alalysis/samples/malware/3286c8417560374a3e3e2281200b8a2a44355b9ee1093be67d1997f950efd9dd.elf:	file format elf32-mips

Disassembly of section .init:

004000cc <_init>:
  4000cc: 06 00 1c 3c  	lui	$gp, 6 <write.c+0x6>
  4000d0: e4 4d 9c 27  	addiu	$gp, $gp, 19940 <write.c+0x4de4>
  4000d4: 21 e0 99 03  	addu	$gp, $gp, $25
  4000d8: e0 ff bd 27  	addiu	$sp, $sp, -32 <__nameserver+0xffffffffffb9c878>
  4000dc: 10 00 bc af  	sw	$gp, 16($sp)
  4000e0: 1c 00 bf af  	sw	$ra, 28($sp)
  4000e4: 18 00 bc af  	sw	$gp, 24($sp)
  4000e8: 01 00 11 04  	bal	8 <_init+0x24>
  4000ec: 00 00 00 00  	nop <write.c>
  4000f0: 06 00 1c 3c  	lui	$gp, 6 <write.c+0x6>
  4000f4: c0 4d 9c 27  	addiu	$gp, $gp, 19904 <write.c+0x4dc0>
  4000f8: 21 e0 9f 03  	addu	$gp, $gp, $ra
  4000fc: 20 80 99 8f  	lw	$25, -32736($gp)
  400100: 00 00 00 00  	nop <write.c>
  400104: 1c 02 39 27  	addiu	$25, $25, 540 <write.c+0x21c>
  400108: 09 f8 20 03  	jalr	$25
  40010c: 00 00 00 00  	nop <write.c>
  400110: 10 00 bc 8f  	lw	$gp, 16($sp)
  400114: 00 00 00 00  	nop <write.c>
  400118: 01 00 11 04  	bal	8 <_init+0x54>
  40011c: 00 00 00 00  	nop <write.c>
  400120: 06 00 1c 3c  	lui	$gp, 6 <write.c+0x6>
  400124: 90 4d 9c 27  	addiu	$gp, $gp, 19856 <write.c+0x4d90>
  400128: 21 e0 9f 03  	addu	$gp, $gp, $ra
  40012c: 1c 80 99 8f  	lw	$25, -32740($gp)
  400130: 00 00 00 00  	nop <write.c>
  400134: 90 90 39 27  	addiu	$25, $25, -28528 <__nameserver+0xffffffffffb95928>
  400138: 09 f8 20 03  	jalr	$25
  40013c: 00 00 00 00  	nop <write.c>
  400140: 10 00 bc 8f  	lw	$gp, 16($sp)
  400144: 00 00 00 00  	nop <write.c>
  400148: 1c 00 bf 8f  	lw	$ra, 28($sp)
  40014c: 00 00 00 00  	nop <write.c>
  400150: 08 00 e0 03  	jr	$ra
  400154: 20 00 bd 27  	addiu	$sp, $sp, 32 <write.c+0x20>

Disassembly of section .text:

00400160 <_ftext>:
  400160: 06 00 1c 3c  	lui	$gp, 6 <write.c+0x6>
  400164: 50 4d 9c 27  	addiu	$gp, $gp, 19792 <write.c+0x4d50>
  400168: 21 e0 99 03  	addu	$gp, $gp, $25
  40016c: d8 ff bd 27  	addiu	$sp, $sp, -40 <__nameserver+0xffffffffffb9c870>
  400170: 20 00 bf af  	sw	$ra, 32($sp)
  400174: 1c 00 b1 af  	sw	$17, 28($sp)
  400178: 18 00 b0 af  	sw	$16, 24($sp)
  40017c: 10 00 bc af  	sw	$gp, 16($sp)
  400180: 18 80 91 8f  	lw	$17, -32744($gp)
  400184: 00 00 00 00  	nop <write.c>
  400188: c0 d3 22 92  	lbu	$2, -11328($17)
  40018c: 00 00 00 00  	nop <write.c>
  400190: 1d 00 40 14  	bnez	$2, 120 <_ftext+0xa8>
  400194: 00 00 00 00  	nop <write.c>
  400198: 18 80 90 8f  	lw	$16, -32744($gp)
  40019c: 00 00 00 00  	nop <write.c>
  4001a0: 20 ca 02 8e  	lw	$2, -13792($16)
  4001a4: 00 00 00 00  	nop <write.c>
  4001a8: 00 00 59 8c  	lw	$25, 0($2)
  4001ac: 00 00 00 00  	nop <write.c>
  4001b0: 09 00 20 13  	beqz	$25, 40 <_ftext+0x78>
  4001b4: 04 00 42 24  	addiu	$2, $2, 4 <write.c+0x4>
  4001b8: 09 f8 20 03  	jalr	$25
  4001bc: 20 ca 02 ae  	sw	$2, -13792($16)
  4001c0: 20 ca 02 8e  	lw	$2, -13792($16)
  4001c4: 10 00 bc 8f  	lw	$gp, 16($sp)
  4001c8: 00 00 59 8c  	lw	$25, 0($2)
  4001cc: 00 00 00 00  	nop <write.c>
  4001d0: f9 ff 20 17  	bnez	$25, -24 <_ftext+0x58>
  4001d4: 04 00 42 24  	addiu	$2, $2, 4 <write.c+0x4>
  4001d8: 28 83 82 8f  	lw	$2, -31960($gp)
  4001dc: 00 00 00 00  	nop <write.c>
  4001e0: 08 00 40 10  	beqz	$2, 36 <_ftext+0xa4>
  4001e4: 01 00 02 24  	addiu	$2, $zero, 1 <write.c+0x1>
  4001e8: 1c 80 84 8f  	lw	$4, -32740($gp)
  4001ec: 28 83 99 8f  	lw	$25, -31960($gp)
  4001f0: 00 00 00 00  	nop <write.c>
  4001f4: 09 f8 20 03  	jalr	$25
  4001f8: c0 c5 84 24  	addiu	$4, $4, -14912 <__nameserver+0xffffffffffb98e58>
  4001fc: 10 00 bc 8f  	lw	$gp, 16($sp)
  400200: 01 00 02 24  	addiu	$2, $zero, 1 <write.c+0x1>
  400204: c0 d3 22 a2  	sb	$2, -11328($17)
  400208: 20 00 bf 8f  	lw	$ra, 32($sp)
  40020c: 1c 00 b1 8f  	lw	$17, 28($sp)
  400210: 18 00 b0 8f  	lw	$16, 24($sp)
  400214: 08 00 e0 03  	jr	$ra
  400218: 28 00 bd 27  	addiu	$sp, $sp, 40 <write.c+0x28>

0040021c <frame_dummy>:
  40021c: 06 00 1c 3c  	lui	$gp, 6 <write.c+0x6>
  400220: 94 4c 9c 27  	addiu	$gp, $gp, 19604 <write.c+0x4c94>
  400224: 21 e0 99 03  	addu	$gp, $gp, $25
  400228: e0 ff bd 27  	addiu	$sp, $sp, -32 <__nameserver+0xffffffffffb9c878>
  40022c: 18 00 bf af  	sw	$ra, 24($sp)
  400230: 10 00 bc af  	sw	$gp, 16($sp)
  400234: 1c 80 84 8f  	lw	$4, -32740($gp)
  400238: 18 80 85 8f  	lw	$5, -32744($gp)
  40023c: 18 81 82 8f  	lw	$2, -32488($gp)
  400240: 18 81 99 8f  	lw	$25, -32488($gp)
  400244: c0 c5 84 24  	addiu	$4, $4, -14912 <__nameserver+0xffffffffffb98e58>
  400248: 05 00 40 10  	beqz	$2, 24 <frame_dummy+0x44>
  40024c: c4 d3 a5 24  	addiu	$5, $5, -11324 <__nameserver+0xffffffffffb99c5c>
  400250: 09 f8 20 03  	jalr	$25
  400254: 00 00 00 00  	nop <write.c>
  400258: 10 00 bc 8f  	lw	$gp, 16($sp)
  40025c: 00 00 00 00  	nop <write.c>
  400260: 18 80 84 8f  	lw	$4, -32744($gp)
  400264: 30 81 99 8f  	lw	$25, -32464($gp)
  400268: d4 c5 82 8c  	lw	$2, -14892($4)
  40026c: 00 00 00 00  	nop <write.c>
  400270: 06 00 40 10  	beqz	$2, 28 <frame_dummy+0x70>
  400274: d4 c5 84 24  	addiu	$4, $4, -14892 <__nameserver+0xffffffffffb98e6c>
  400278: 04 00 20 13  	beqz	$25, 20 <frame_dummy+0x70>
  40027c: 00 00 00 00  	nop <write.c>
  400280: 18 00 bf 8f  	lw	$ra, 24($sp)
  400284: 08 00 20 03  	jr	$25
  400288: 20 00 bd 27  	addiu	$sp, $sp, 32 <write.c+0x20>
  40028c: 18 00 bf 8f  	lw	$ra, 24($sp)
  400290: 00 00 00 00  	nop <write.c>
  400294: 08 00 e0 03  	jr	$ra
  400298: 20 00 bd 27  	addiu	$sp, $sp, 32 <write.c+0x20>
  40029c: 00 00 00 00  	nop <write.c>

004002a0 <__start>:
  4002a0: 21 00 e0 03  	move	$zero, $ra
  4002a4: 01 00 11 04  	bal	8 <__start+0xc>
  4002a8: 00 00 00 00  	nop <write.c>
  4002ac: 06 00 1c 3c  	lui	$gp, 6 <write.c+0x6>
  4002b0: 04 4c 9c 27  	addiu	$gp, $gp, 19460 <write.c+0x4c04>
  4002b4: 21 e0 9f 03  	addu	$gp, $gp, $ra
  4002b8: 21 f8 00 00  	move	$ra, $zero
  4002bc: 64 82 84 8f  	lw	$4, -32156($gp)
  4002c0: 00 00 a5 8f  	lw	$5, 0($sp)
  4002c4: 04 00 a6 27  	addiu	$6, $sp, 4 <write.c+0x4>
  4002c8: f8 ff 01 24  	addiu	$1, $zero, -8 <__nameserver+0xffffffffffb9c890>
  4002cc: 24 e8 a1 03  	and	$sp, $sp, $1
  4002d0: e0 ff bd 27  	addiu	$sp, $sp, -32 <__nameserver+0xffffffffffb9c878>
  4002d4: 84 83 87 8f  	lw	$7, -31868($gp)
  4002d8: 14 82 88 8f  	lw	$8, -32236($gp)
  4002dc: 00 00 00 00  	nop <write.c>
  4002e0: 10 00 a8 af  	sw	$8, 16($sp)
  4002e4: 14 00 a2 af  	sw	$2, 20($sp)
  4002e8: 18 00 bd af  	sw	$sp, 24($sp)
  4002ec: 78 82 99 8f  	lw	$25, -32136($gp)
  4002f0: 00 00 00 00  	nop <write.c>

--- Symbol Table (first 50 entries) ---

/home/analyst/ir-alalysis/samples/malware/3286c8417560374a3e3e2281200b8a2a44355b9ee1093be67d1997f950efd9dd.elf:	file format elf32-mips

SYMBOL TABLE:
004000b4 l    d  .reginfo	00000000 .reginfo
004000cc l    d  .init	00000000 .init
00400160 l    d  .text	00000000 .text
00419100 l    d  .fini	00000000 .fini
00419160 l    d  .rodata	00000000 .rodata
0041c5c0 l    d  .eh_frame	00000000 .eh_frame
0045c5c4 l    d  .ctors	00000000 .ctors
0045c5cc l    d  .dtors	00000000 .dtors
0045c5d4 l    d  .jcr	00000000 .jcr
0045c5d8 l    d  .data.rel.ro	00000000 .data.rel.ro
0045ca10 l    d  .data	00000000 .data
0045cec0 l    d  .got	00000000 .got
0045d394 l    d  .sbss	00000000 .sbss
0045d3c0 l    d  .bss	00000000 .bss
00000000 l    d  .comment	00000000 .comment
00000b76 l    d  .mdebug.abi32	00000000 .mdebug.abi32
00000000 l    d  .pdr	00000000 .pdr
00000000 l    d  .shstrtab	00000000 .shstrtab
00000000 l    d  .symtab	00000000 .symtab
00000000 l    d  .strtab	00000000 .strtab
00000000 l    df *ABS*	00000000 initfini.c
00000000 l    df *ABS*	00000000 libc/sysdeps/linux/mips/crti.S
00000000 l    df *ABS*	00000000 crtstuff.c
0045c5c4 l     O .ctors	00000000 __CTOR_LIST__
0045c5cc l     O .dtors	00000000 __DTOR_LIST__
0041c5c0 l     O .eh_frame	00000000 __EH_FRAME_BEGIN__
0045c5d4 l     O .jcr	00000000 __JCR_LIST__
0045d3c0 l     O .bss	00000001 completed.2296
0045ca20 l     O .data	00000000 p.2294
00400160 l     F .text	00000000 __do_global_dtors_aux
0045d3c4 l     O .bss	00000018 object.2349
0040021c l     F .text	00000000 frame_dummy
00000000 l    df *ABS*	00000000 crtstuff.c
0045c5c8 l     O .ctors	00000000 __CTOR_END__
0045c5d0 l     O .dtors	00000000 __DTOR_END__
0041c5c0 l     O .eh_frame	00000000 __FRAME_END__
0045c5d4 l     O .jcr	00000000 __JCR_END__
00419090 l     F .text	00000000 __do_global_ctors_aux
00000000 l    df *ABS*	00000000 initfini.c
00000000 l    df *ABS*	00000000 libc/sysdeps/linux/mips/crtn.S
00000000 l    df *ABS*	00000000 libc/sysdeps/linux/mips/crt1.S
004002fc l       .text	00000000 hlt
00000000 l    df *ABS*	00000000 bot.c
0045ca48 l     O .data	00000004 c
0045d400 l     O .bss	00004000 Q
0045ca4c l     O .data	00000004 i.3637
004007e0 l     F .text	000000b8 printchar
00400898 l     F .text	0000023c prints
00400ad4 l     F .text	00000298 printi
00400d6c l     F .text	000005b0 print
00461400 l     O .bss	00000004 fdopen_pids

NOTE: For true binary-to-LLVM IR lifting, consider using:
  - mcsema: https://github.com/lifting-bits/mcsema
  - remill: https://github.com/lifting-bits/remill
  - rellic: https://github.com/lifting-bits/rellic

==========================================
LLVM analysis completed successfully
==========================================
LLVM analysis: SUCCESS
	Command being timed: "/home/analyst/ir-alalysis/scripts/analyze_llvm.sh /home/analyst/ir-alalysis/samples/malware/3286c8417560374a3e3e2281200b8a2a44355b9ee1093be67d1997f950efd9dd.elf"
	User time (seconds): 0.03
	System time (seconds): 0.06
	Percent of CPU this job got: 89%
	Elapsed (wall clock) time (h:mm:ss or m:ss): 0:00.10
	Average shared text size (kbytes): 0
	Average unshared data size (kbytes): 0
	Average stack size (kbytes): 0
	Average total size (kbytes): 0
	Maximum resident set size (kbytes): 51584
	Average resident set size (kbytes): 0
	Major (requiring I/O) page faults: 3
	Minor (reclaiming a frame) page faults: 10039
	Voluntary context switches: 160
	Involuntary context switches: 190
	Swaps: 0
	File system inputs: 568
	File system outputs: 16
	Socket messages sent: 0
	Socket messages received: 0
	Signals delivered: 0
	Page size (bytes): 4096
	Exit status: 0

Completed: 3286c8417560374a3e3e2281200b8a2a44355b9ee1093be67d1997f950efd9dd.elf

========================================
Processing sample 12: 3494602905a12ab991137416de5cece651e6ca2443a245d2f4627c48103bc72d.elf
========================================

--- Ghidra P-code Analysis ---

Ghidra analysis: SUCCESS
==========================================
Ghidra Headless Analysis
==========================================
Binary:  /home/analyst/ir-alalysis/samples/malware/3494602905a12ab991137416de5cece651e6ca2443a245d2f4627c48103bc72d.elf
Project: ghidra_analysis_3494602905a12ab991137416de5cece651e6ca2443a245d2f4627c48103bc72d.elf_20251025_201915
Location: ./ghidra_projects
==========================================
INFO  Using log config file: jar:file:/home/analyst/ghidra/Ghidra/Framework/Generic/lib/Generic.jar!/generic.log4j.xml (LoggingInitialization)  
INFO  Using log file: /home/analyst/.config/ghidra/ghidra_11.4.2_PUBLIC/application.log (LoggingInitialization)  
INFO  Loading user preferences: /home/analyst/.config/ghidra/ghidra_11.4.2_PUBLIC/preferences (Preferences)  
INFO  Searching for classes... (ClassSearcher)  
INFO  Class search complete (1482 ms) (ClassSearcher)  
INFO  Initializing SSL Context (SSLContextInitializer)  
INFO  Initializing Random Number Generator... (SecureRandomFactory)  
INFO  Random Number Generator initialization complete: NativePRNGNonBlocking (SecureRandomFactory)  
INFO  Trust manager disabled, cacerts have not been set (ApplicationTrustManagerFactory)  
INFO  Headless startup complete (4520 ms) (AnalyzeHeadless)  
INFO  Class searcher loaded 58 extension points (18 false positives) (ClassSearcher)  
INFO  HEADLESS Script Paths:
    /home/analyst/ghidra/Ghidra/Features/GnuDemangler/ghidra_scripts
    /home/analyst/ghidra/Ghidra/Features/BytePatterns/ghidra_scripts
    /home/analyst/ghidra/Ghidra/Features/SystemEmulation/ghidra_scripts
    /home/analyst/ghidra/Ghidra/Processors/DATA/ghidra_scripts
    /home/analyst/ghidra/Ghidra/Features/PyGhidra/ghidra_scripts
    /home/analyst/ghidra/Ghidra/Features/MicrosoftCodeAnalyzer/ghidra_scripts
    /home/analyst/ghidra/Ghidra/Features/Base/ghidra_scripts
    /home/analyst/ghidra/Ghidra/Features/Jython/ghidra_scripts
    /home/analyst/ghidra/Ghidra/Features/VersionTracking/ghidra_scripts
    /home/analyst/ghidra/Ghidra/Features/PDB/ghidra_scripts
    /home/analyst/ghidra/Ghidra/Processors/Atmel/ghidra_scripts
    /home/analyst/ghidra/Ghidra/Debug/Debugger-rmi-trace/ghidra_scripts
    /home/analyst/ghidra/Ghidra/Features/FileFormats/ghidra_scripts
    /home/analyst/ghidra/Ghidra/Processors/JVM/ghidra_scripts
    /home/analyst/ghidra/Ghidra/Debug/Debugger/ghidra_scripts
    /home/analyst/ghidra/Ghidra/Processors/PIC/ghidra_scripts
    /home/analyst/ghidra/Ghidra/Features/WildcardAssembler/ghidra_scripts
    /home/analyst/ghidra/Ghidra/Processors/8051/ghidra_scripts
    /home/analyst/ghidra/Ghidra/Features/Decompiler/ghidra_scripts
    /home/analyst/ghidra/Ghidra/Features/DecompilerDependent/ghidra_scripts
    /home/analyst/ghidra/Ghidra/Features/FunctionID/ghidra_scripts
    /home/analyst/ghidra/Ghidra/Features/SwiftDemangler/ghidra_scripts
    /home/analyst/ghidra/Ghidra/Features/BSim/ghidra_scripts (HeadlessAnalyzer)  
INFO  HEADLESS: execution starts (HeadlessAnalyzer)  
INFO  Creating temporary project: /home/analyst/ir-alalysis/./ghidra_projects/ghidra_analysis_3494602905a12ab991137416de5cece651e6ca2443a245d2f4627c48103bc72d.elf_20251025_201915 (HeadlessAnalyzer)  
INFO  Creating project: /home/analyst/ir-alalysis/./ghidra_projects/ghidra_analysis_3494602905a12ab991137416de5cece651e6ca2443a245d2f4627c48103bc72d.elf_20251025_201915 (DefaultProject)  
INFO  REPORT: Processing input files:  (HeadlessAnalyzer)  
INFO       project: /home/analyst/ir-alalysis/./ghidra_projects/ghidra_analysis_3494602905a12ab991137416de5cece651e6ca2443a245d2f4627c48103bc72d.elf_20251025_201915 (HeadlessAnalyzer)  
INFO  IMPORTING: file:///home/analyst/ir-alalysis/samples/malware/3494602905a12ab991137416de5cece651e6ca2443a245d2f4627c48103bc72d.elf (HeadlessAnalyzer)  
INFO  Using Loader: Executable and Linking Format (ELF) (AutoImporter)  
INFO  Using Language/Compiler: ARM:LE:32:v8:default (AutoImporter)  
INFO  Using Library Search Path: [., /bin, /lib, /lib64, /lib/x86_64-linux-gnu, /lib/aarch64-linux-gnu, /usr/bin, /usr/lib, /usr/X11R6/bin, /usr/X11R6/lib, /usr/java/packages/lib, /usr/lib/x86_64-linux-gnu/jni, /usr/lib/x86_64-linux-gnu, /usr/lib/jni] (AutoImporter)  
INFO  Additional info:
Loading file:///home/analyst/ir-alalysis/samples/malware/3494602905a12ab991137416de5cece651e6ca2443a245d2f4627c48103bc72d.elf?MD5=0670c12cb86581e94907705f75890e94...
------------------------------------------------

 (AutoImporter)  
INFO  IMPORTING: Loaded 0 additional files (HeadlessAnalyzer)  
INFO  ANALYZING all memory and code: file:///home/analyst/ir-alalysis/samples/malware/3494602905a12ab991137416de5cece651e6ca2443a245d2f4627c48103bc72d.elf (HeadlessAnalyzer)  
ERROR REPORT: Analysis timed out at 0 seconds. Processing not completed for file: file:///home/analyst/ir-alalysis/samples/malware/3494602905a12ab991137416de5cece651e6ca2443a245d2f4627c48103bc72d.elf (HeadlessAnalyzer)  
INFO  SCRIPT: /home/analyst/ir-alalysis/scripts/get_cfg_stats.py (HeadlessAnalyzer)  
GHIDRA_STATS:Functions=1
GHIDRA_STATS:BasicBlocks=0
GHIDRA_STATS:TotalPcodeOps=0
INFO  ANALYZING changes made by post scripts: file:///home/analyst/ir-alalysis/samples/malware/3494602905a12ab991137416de5cece651e6ca2443a245d2f4627c48103bc72d.elf (HeadlessAnalyzer)  
INFO  REPORT: Post-analysis succeeded for file: file:///home/analyst/ir-alalysis/samples/malware/3494602905a12ab991137416de5cece651e6ca2443a245d2f4627c48103bc72d.elf (HeadlessAnalyzer)  
INFO  REPORT: Save succeeded for: /3494602905a12ab991137416de5cece651e6ca2443a245d2f4627c48103bc72d.elf (ghidra_analysis_3494602905a12ab991137416de5cece651e6ca2443a245d2f4627c48103bc72d.elf_20251025_201915:/3494602905a12ab991137416de5cece651e6ca2443a245d2f4627c48103bc72d.elf) (HeadlessAnalyzer)  
INFO  REPORT: Import succeeded (HeadlessAnalyzer)  
==========================================
Ghidra analysis completed successfully
==========================================

Ghidra CFG Stats:
GHIDRA_STATS:Functions=1
GHIDRA_STATS:BasicBlocks=0
GHIDRA_STATS:TotalPcodeOps=0

Ghidra Performance:
	Elapsed (wall clock) time (h:mm:ss or m:ss): 0:15.68
	Maximum resident set size (kbytes): 556520

--- angr VEX IR Analysis ---

angr analysis: SUCCESS
==================================================
angr VEX IR Analysis
==================================================
Binary: /home/analyst/ir-alalysis/samples/malware/3494602905a12ab991137416de5cece651e6ca2443a245d2f4627c48103bc72d.elf
==================================================
Loading binary with angr...
Architecture: ARMEL
Entry point: 0x8190
Binary base address: 0x8000

Generating CFG with angr...
Functions discovered: 224
Basic blocks (CFG nodes): 2675
CFG edges: 6831

Counting VEX IR statements...
Total VEX statements: 52888

--- angr CFG & IR Stats ---
ANGR_STATS:Functions=224
ANGR_STATS:Nodes=2675
ANGR_STATS:Edges=6831
ANGR_STATS:TotalVexStatements=52888
---------------------------

Sample functions (first 10):
  - sub_8094 @ 0x8094
  - sub_80b0 @ 0x80b0
  - sub_8128 @ 0x8128
  - sub_8130 @ 0x8130
  - sub_8188 @ 0x8188
  - _start @ 0x8190
  - sub_81bc @ 0x81bc
  - sub_81cc @ 0x81cc
  - sub_8230 @ 0x8230
  - sub_8320 @ 0x8320
==================================================
angr analysis completed successfully
==================================================

angr CFG Stats:
ANGR_STATS:Functions=224
ANGR_STATS:Nodes=2675
ANGR_STATS:Edges=6831
ANGR_STATS:TotalVexStatements=52888

angr Performance:
	Elapsed (wall clock) time (h:mm:ss or m:ss): 0:05.53
	Maximum resident set size (kbytes): 154220

--- LLVM IR Analysis ---

==========================================
LLVM IR Analysis
==========================================
Binary:  /home/analyst/ir-alalysis/samples/malware/3494602905a12ab991137416de5cece651e6ca2443a245d2f4627c48103bc72d.elf
==========================================

Detected native binary (not LLVM bitcode)
Performing LLVM-based binary analysis...

--- Binary Information ---

/home/analyst/ir-alalysis/samples/malware/3494602905a12ab991137416de5cece651e6ca2443a245d2f4627c48103bc72d.elf:	file format elf32-littlearm

Sections:
Idx Name          Size     VMA      Type
  0               00000000 00000000 
  1 .init         00000018 00008094 TEXT
  2 .text         0000bb10 000080b0 TEXT
  3 .fini         00000014 00013bc0 TEXT
  4 .rodata       00000aa4 00013bd4 DATA
  5 .ctors        00000008 0001c67c DATA
  6 .dtors        00000008 0001c684 DATA
  7 .data         0000021c 0001c690 DATA
  8 .bss          00000318 0001c8ac BSS
  9 .shstrtab     0000003e 00000000 

--- Disassembly (first 100 instructions) ---

/home/analyst/ir-alalysis/samples/malware/3494602905a12ab991137416de5cece651e6ca2443a245d2f4627c48103bc72d.elf:	file format elf32-littlearm

Disassembly of section .init:

00008094 <.init>:
    8094: 0d c0 a0 e1  	mov	r12, sp
    8098: f0 df 2d e9  	push	{r4, r5, r6, r7, r8, r9, r10, r11, r12, lr, pc}
    809c: 04 b0 4c e2  	sub	r11, r12, #4
    80a0: 22 00 00 eb  	bl	0x8130                  @ imm = #136
    80a4: b6 2e 00 eb  	bl	0x13b84                 @ imm = #47832
    80a8: f0 af 1b e9  	ldmdb	r11, {r4, r5, r6, r7, r8, r9, r10, r11, sp, pc}

Disassembly of section .text:

000080b0 <.text>:
    80b0: 30 40 2d e9  	push	{r4, r5, lr}
    80b4: 5c 50 9f e5  	ldr	r5, [pc, #92]           @ 0x8118 <.text+0x68>
    80b8: 00 30 d5 e5  	ldrb	r3, [r5]
    80bc: 00 00 53 e3  	cmp	r3, #0
    80c0: 30 80 bd 18  	popne	{r4, r5, pc}
    80c4: 50 40 9f e5  	ldr	r4, [pc, #80]           @ 0x811c <.text+0x6c>
    80c8: 00 30 94 e5  	ldr	r3, [r4]
    80cc: 00 20 93 e5  	ldr	r2, [r3]
    80d0: 00 00 52 e3  	cmp	r2, #0
    80d4: 07 00 00 0a  	beq	0x80f8 <.text+0x48>     @ imm = #28
    80d8: 04 30 83 e2  	add	r3, r3, #4
    80dc: 00 30 84 e5  	str	r3, [r4]
    80e0: 0f e0 a0 e1  	mov	lr, pc
    80e4: 02 f0 a0 e1  	mov	pc, r2
    80e8: 00 30 94 e5  	ldr	r3, [r4]
    80ec: 00 20 93 e5  	ldr	r2, [r3]
    80f0: 00 00 52 e3  	cmp	r2, #0
    80f4: f7 ff ff 1a  	bne	0x80d8 <.text+0x28>     @ imm = #-36
    80f8: 20 30 9f e5  	ldr	r3, [pc, #32]           @ 0x8120 <.text+0x70>
    80fc: 00 00 53 e3  	cmp	r3, #0
    8100: 1c 00 9f 15  	ldrne	r0, [pc, #28]           @ 0x8124 <.text+0x74>
    8104: 0f e0 a0 11  	movne	lr, pc
    8108: 03 f0 a0 11  	movne	pc, r3
    810c: 01 30 a0 e3  	mov	r3, #1
    8110: 00 30 c5 e5  	strb	r3, [r5]
    8114: 30 80 bd e8  	pop	{r4, r5, pc}
    8118: ac c8 01 00  	andeq	r12, r1, r12, lsr #17
    811c: 98 c6 01 00  	<unknown>
    8120: 00 00 00 00  	andeq	r0, r0, r0
    8124: 78 46 01 00  	andeq	r4, r1, r8, ror r6
    8128: 04 e0 2d e5  	str	lr, [sp, #-4]!
    812c: 04 f0 9d e4  	ldr	pc, [sp], #4
    8130: 3c 30 9f e5  	ldr	r3, [pc, #60]           @ 0x8174 <.text+0xc4>
    8134: 00 00 53 e3  	cmp	r3, #0
    8138: 04 e0 2d e5  	str	lr, [sp, #-4]!
    813c: 34 00 9f e5  	ldr	r0, [pc, #52]           @ 0x8178 <.text+0xc8>
    8140: 34 10 9f e5  	ldr	r1, [pc, #52]           @ 0x817c <.text+0xcc>
    8144: 0f e0 a0 11  	movne	lr, pc
    8148: 03 f0 a0 11  	movne	pc, r3
    814c: 2c 00 9f e5  	ldr	r0, [pc, #44]           @ 0x8180 <.text+0xd0>
    8150: 00 30 90 e5  	ldr	r3, [r0]
    8154: 00 00 53 e3  	cmp	r3, #0
    8158: 24 30 9f e5  	ldr	r3, [pc, #36]           @ 0x8184 <.text+0xd4>
    815c: 04 f0 9d 04  	ldreq	pc, [sp], #4
    8160: 00 00 53 e3  	cmp	r3, #0
    8164: 04 f0 9d 04  	ldreq	pc, [sp], #4
    8168: 0f e0 a0 e1  	mov	lr, pc
    816c: 03 f0 a0 e1  	mov	pc, r3
    8170: 04 f0 9d e4  	ldr	pc, [sp], #4
    8174: 00 00 00 00  	andeq	r0, r0, r0
    8178: 78 46 01 00  	andeq	r4, r1, r8, ror r6
    817c: b0 c8 01 00  	strheq	r12, [r1], -r0
    8180: 8c c6 01 00  	andeq	r12, r1, r12, lsl #13
    8184: 00 00 00 00  	andeq	r0, r0, r0
    8188: 04 e0 2d e5  	str	lr, [sp, #-4]!
    818c: 04 f0 9d e4  	ldr	pc, [sp], #4
    8190: 00 b0 a0 e3  	mov	r11, #0
    8194: 00 e0 a0 e3  	mov	lr, #0
    8198: 04 10 9d e4  	ldr	r1, [sp], #4
    819c: 0d 20 a0 e1  	mov	r2, sp
    81a0: 04 20 2d e5  	str	r2, [sp, #-4]!
    81a4: 04 00 2d e5  	str	r0, [sp, #-4]!
    81a8: 10 c0 9f e5  	ldr	r12, [pc, #16]          @ 0x81c0 <.text+0x110>
    81ac: 04 c0 2d e5  	str	r12, [sp, #-4]!
    81b0: 0c 00 9f e5  	ldr	r0, [pc, #12]           @ 0x81c4 <.text+0x114>
    81b4: 0c 30 9f e5  	ldr	r3, [pc, #12]           @ 0x81c8 <.text+0x118>
    81b8: c5 29 00 ea  	b	0x128d4 <.text+0xa824>  @ imm = #42772
    81bc: e2 26 00 eb  	bl	0x11d4c <.text+0x9c9c>  @ imm = #39816
    81c0: c0 3b 01 00  	andeq	r3, r1, r0, asr #23
    81c4: 20 e7 00 00  	andeq	lr, r0, r0, lsr #14
    81c8: 94 80 00 00  	<unknown>
    81cc: ff 00 00 e2  	and	r0, r0, #255
    81d0: 00 00 50 e3  	cmp	r0, #0
    81d4: 10 40 2d e9  	push	{r4, lr}
    81d8: ff 20 02 e2  	and	r2, r2, #255
    81dc: 03 40 a0 e1  	mov	r4, r3
    81e0: 0d 00 00 da  	ble	0x821c <.text+0x16c>    @ imm = #52
    81e4: 04 30 d1 e5  	ldrb	r3, [r1, #4]
    81e8: 02 00 53 e1  	cmp	r3, r2
    81ec: 08 c0 81 12  	addne	r12, r1, #8
    81f0: 00 e0 a0 13  	movne	lr, #0
    81f4: 04 00 00 1a  	bne	0x820c <.text+0x15c>    @ imm = #16
    81f8: 09 00 00 ea  	b	0x8224 <.text+0x174>    @ imm = #36
    81fc: 04 30 dc e5  	ldrb	r3, [r12, #4]
    8200: 02 00 53 e1  	cmp	r3, r2
    8204: 08 c0 8c e2  	add	r12, r12, #8
    8208: 05 00 00 0a  	beq	0x8224 <.text+0x174>    @ imm = #20
    820c: 01 e0 8e e2  	add	lr, lr, #1
    8210: 00 00 5e e1  	cmp	lr, r0
    8214: 0c 10 a0 e1  	mov	r1, r12
    8218: f7 ff ff 1a  	bne	0x81fc <.text+0x14c>    @ imm = #-36
    821c: 04 00 a0 e1  	mov	r0, r4
    8220: 10 80 bd e8  	pop	{r4, pc}
    8224: 00 40 91 e5  	ldr	r4, [r1]
    8228: 04 00 a0 e1  	mov	r0, r4
    822c: 10 80 bd e8  	pop	{r4, pc}
    8230: f0 47 2d e9  	push	{r4, r5, r6, r7, r8, r9, r10, lr}
    8234: 03 90 a0 e1  	mov	r9, r3
    8238: 00 60 a0 e1  	mov	r6, r0
    823c: ff 70 01 e2  	and	r7, r1, #255
    8240: ff 80 02 e2  	and	r8, r2, #255
    8244: 20 a0 dd e5  	ldrb	r10, [sp, #32]
    8248: 6a 22 00 eb  	bl	0x10bf8 <.text+0x8b48>  @ imm = #35240
    824c: 01 00 70 e3  	cmn	r0, #1
    8250: 00 30 a0 13  	movne	r3, #0
    8254: 01 30 a0 03  	moveq	r3, #1
    8258: 00 00 50 e3  	cmp	r0, #0
    825c: 03 50 a0 d1  	movle	r5, r3
    8260: 01 50 83 c3  	orrgt	r5, r3, #1
    8264: 00 00 55 e3  	cmp	r5, #0
    8268: f0 87 bd 18  	popne	{r4, r5, r6, r7, r8, r9, r10, pc}
    826c: 61 22 00 eb  	bl	0x10bf8 <.text+0x8b48>  @ imm = #35204
    8270: 01 00 70 e3  	cmn	r0, #1
    8274: 00 40 a0 e1  	mov	r4, r0
    8278: 08 00 00 0a  	beq	0x82a0 <.text+0x1f0>    @ imm = #32
    827c: 00 00 50 e3  	cmp	r0, #0
    8280: 08 00 00 1a  	bne	0x82a8 <.text+0x1f8>    @ imm = #32
    8284: 06 00 a0 e1  	mov	r0, r6
    8288: d2 28 00 eb  	bl	0x125d8 <.text+0xa528>  @ imm = #41800
    828c: 6f 22 00 eb  	bl	0x10c50 <.text+0x8ba0>  @ imm = #35260
    8290: 09 10 a0 e3  	mov	r1, #9
    8294: 8c 22 00 eb  	bl	0x10ccc <.text+0x8c1c>  @ imm = #35376
    8298: 04 00 a0 e1  	mov	r0, r4
    829c: a8 28 00 eb  	bl	0x12544 <.text+0xa494>  @ imm = #41632
    82a0: 05 00 a0 e1  	mov	r0, r5
    82a4: a6 28 00 eb  	bl	0x12544 <.text+0xa494>  @ imm = #41624
    82a8: 68 30 9f e5  	ldr	r3, [pc, #104]          @ 0x8318 <.text+0x268>
    82ac: 00 10 d3 e5  	ldrb	r1, [r3]
    82b0: 00 00 51 e3  	cmp	r1, #0
    82b4: 0e 00 00 da  	ble	0x82f4 <.text+0x244>    @ imm = #56
    82b8: 5c 30 9f e5  	ldr	r3, [pc, #92]           @ 0x831c <.text+0x26c>
    82bc: 00 20 93 e5  	ldr	r2, [r3]
    82c0: 00 c0 92 e5  	ldr	r12, [r2]
    82c4: 04 30 dc e5  	ldrb	r3, [r12, #4]

--- Symbol Table (first 50 entries) ---

/home/analyst/ir-alalysis/samples/malware/3494602905a12ab991137416de5cece651e6ca2443a245d2f4627c48103bc72d.elf:	file format elf32-littlearm

SYMBOL TABLE:

NOTE: For true binary-to-LLVM IR lifting, consider using:
  - mcsema: https://github.com/lifting-bits/mcsema
  - remill: https://github.com/lifting-bits/remill
  - rellic: https://github.com/lifting-bits/rellic

==========================================
LLVM analysis completed successfully
==========================================
LLVM analysis: SUCCESS
	Command being timed: "/home/analyst/ir-alalysis/scripts/analyze_llvm.sh /home/analyst/ir-alalysis/samples/malware/3494602905a12ab991137416de5cece651e6ca2443a245d2f4627c48103bc72d.elf"
	User time (seconds): 0.03
	System time (seconds): 0.05
	Percent of CPU this job got: 89%
	Elapsed (wall clock) time (h:mm:ss or m:ss): 0:00.10
	Average shared text size (kbytes): 0
	Average unshared data size (kbytes): 0
	Average stack size (kbytes): 0
	Average total size (kbytes): 0
	Maximum resident set size (kbytes): 51712
	Average resident set size (kbytes): 0
	Major (requiring I/O) page faults: 5
	Minor (reclaiming a frame) page faults: 9960
	Voluntary context switches: 27
	Involuntary context switches: 63
	Swaps: 0
	File system inputs: 848
	File system outputs: 16
	Socket messages sent: 0
	Socket messages received: 0
	Signals delivered: 0
	Page size (bytes): 4096
	Exit status: 0

Completed: 3494602905a12ab991137416de5cece651e6ca2443a245d2f4627c48103bc72d.elf

========================================
Processing sample 13: 38d0ec994415631efb0a1b3a06847cd4b2d96a0b95b986807c3ee71677688ff1.elf
========================================

--- Ghidra P-code Analysis ---

Ghidra analysis: SUCCESS
==========================================
Ghidra Headless Analysis
==========================================
Binary:  /home/analyst/ir-alalysis/samples/malware/38d0ec994415631efb0a1b3a06847cd4b2d96a0b95b986807c3ee71677688ff1.elf
Project: ghidra_analysis_38d0ec994415631efb0a1b3a06847cd4b2d96a0b95b986807c3ee71677688ff1.elf_20251025_201936
Location: ./ghidra_projects
==========================================
INFO  Using log config file: jar:file:/home/analyst/ghidra/Ghidra/Framework/Generic/lib/Generic.jar!/generic.log4j.xml (LoggingInitialization)  
INFO  Using log file: /home/analyst/.config/ghidra/ghidra_11.4.2_PUBLIC/application.log (LoggingInitialization)  
INFO  Loading user preferences: /home/analyst/.config/ghidra/ghidra_11.4.2_PUBLIC/preferences (Preferences)  
INFO  Searching for classes... (ClassSearcher)  
INFO  Class search complete (1128 ms) (ClassSearcher)  
INFO  Initializing SSL Context (SSLContextInitializer)  
INFO  Initializing Random Number Generator... (SecureRandomFactory)  
INFO  Random Number Generator initialization complete: NativePRNGNonBlocking (SecureRandomFactory)  
INFO  Trust manager disabled, cacerts have not been set (ApplicationTrustManagerFactory)  
INFO  Headless startup complete (3795 ms) (AnalyzeHeadless)  
INFO  Class searcher loaded 58 extension points (18 false positives) (ClassSearcher)  
INFO  HEADLESS Script Paths:
    /home/analyst/ghidra/Ghidra/Features/GnuDemangler/ghidra_scripts
    /home/analyst/ghidra/Ghidra/Features/BytePatterns/ghidra_scripts
    /home/analyst/ghidra/Ghidra/Features/SystemEmulation/ghidra_scripts
    /home/analyst/ghidra/Ghidra/Processors/DATA/ghidra_scripts
    /home/analyst/ghidra/Ghidra/Features/PyGhidra/ghidra_scripts
    /home/analyst/ghidra/Ghidra/Features/MicrosoftCodeAnalyzer/ghidra_scripts
    /home/analyst/ghidra/Ghidra/Features/Base/ghidra_scripts
    /home/analyst/ghidra/Ghidra/Features/Jython/ghidra_scripts
    /home/analyst/ghidra/Ghidra/Features/VersionTracking/ghidra_scripts
    /home/analyst/ghidra/Ghidra/Features/PDB/ghidra_scripts
    /home/analyst/ghidra/Ghidra/Processors/Atmel/ghidra_scripts
    /home/analyst/ghidra/Ghidra/Debug/Debugger-rmi-trace/ghidra_scripts
    /home/analyst/ghidra/Ghidra/Features/FileFormats/ghidra_scripts
    /home/analyst/ghidra/Ghidra/Processors/JVM/ghidra_scripts
    /home/analyst/ghidra/Ghidra/Debug/Debugger/ghidra_scripts
    /home/analyst/ghidra/Ghidra/Processors/PIC/ghidra_scripts
    /home/analyst/ghidra/Ghidra/Features/WildcardAssembler/ghidra_scripts
    /home/analyst/ghidra/Ghidra/Processors/8051/ghidra_scripts
    /home/analyst/ghidra/Ghidra/Features/Decompiler/ghidra_scripts
    /home/analyst/ghidra/Ghidra/Features/DecompilerDependent/ghidra_scripts
    /home/analyst/ghidra/Ghidra/Features/FunctionID/ghidra_scripts
    /home/analyst/ghidra/Ghidra/Features/SwiftDemangler/ghidra_scripts
    /home/analyst/ghidra/Ghidra/Features/BSim/ghidra_scripts (HeadlessAnalyzer)  
INFO  HEADLESS: execution starts (HeadlessAnalyzer)  
INFO  Creating temporary project: /home/analyst/ir-alalysis/./ghidra_projects/ghidra_analysis_38d0ec994415631efb0a1b3a06847cd4b2d96a0b95b986807c3ee71677688ff1.elf_20251025_201936 (HeadlessAnalyzer)  
INFO  Creating project: /home/analyst/ir-alalysis/./ghidra_projects/ghidra_analysis_38d0ec994415631efb0a1b3a06847cd4b2d96a0b95b986807c3ee71677688ff1.elf_20251025_201936 (DefaultProject)  
INFO  REPORT: Processing input files:  (HeadlessAnalyzer)  
INFO       project: /home/analyst/ir-alalysis/./ghidra_projects/ghidra_analysis_38d0ec994415631efb0a1b3a06847cd4b2d96a0b95b986807c3ee71677688ff1.elf_20251025_201936 (HeadlessAnalyzer)  
INFO  IMPORTING: file:///home/analyst/ir-alalysis/samples/malware/38d0ec994415631efb0a1b3a06847cd4b2d96a0b95b986807c3ee71677688ff1.elf (HeadlessAnalyzer)  
INFO  Using Loader: Executable and Linking Format (ELF) (AutoImporter)  
INFO  Using Language/Compiler: x86:LE:64:default:gcc (AutoImporter)  
INFO  Using Library Search Path: [., /bin, /lib, /lib64, /lib/x86_64-linux-gnu, /lib/aarch64-linux-gnu, /usr/bin, /usr/lib, /usr/X11R6/bin, /usr/X11R6/lib, /usr/java/packages/lib, /usr/lib/x86_64-linux-gnu/jni, /usr/lib/x86_64-linux-gnu, /usr/lib/jni] (AutoImporter)  
INFO  Additional info:
Loading file:///home/analyst/ir-alalysis/samples/malware/38d0ec994415631efb0a1b3a06847cd4b2d96a0b95b986807c3ee71677688ff1.elf?MD5=f5e36f1c49238852b9a86d0f1b5de96f...
Skipping zero-length segment [1,Loadable segment] at address ram:00518e88
------------------------------------------------

 (AutoImporter)  
INFO  IMPORTING: Loaded 0 additional files (HeadlessAnalyzer)  
INFO  ANALYZING all memory and code: file:///home/analyst/ir-alalysis/samples/malware/38d0ec994415631efb0a1b3a06847cd4b2d96a0b95b986807c3ee71677688ff1.elf (HeadlessAnalyzer)  
ERROR REPORT: Analysis timed out at 0 seconds. Processing not completed for file: file:///home/analyst/ir-alalysis/samples/malware/38d0ec994415631efb0a1b3a06847cd4b2d96a0b95b986807c3ee71677688ff1.elf (HeadlessAnalyzer)  
INFO  SCRIPT: /home/analyst/ir-alalysis/scripts/get_cfg_stats.py (HeadlessAnalyzer)  
GHIDRA_STATS:Functions=1
GHIDRA_STATS:BasicBlocks=0
GHIDRA_STATS:TotalPcodeOps=0
INFO  ANALYZING changes made by post scripts: file:///home/analyst/ir-alalysis/samples/malware/38d0ec994415631efb0a1b3a06847cd4b2d96a0b95b986807c3ee71677688ff1.elf (HeadlessAnalyzer)  
INFO  REPORT: Post-analysis succeeded for file: file:///home/analyst/ir-alalysis/samples/malware/38d0ec994415631efb0a1b3a06847cd4b2d96a0b95b986807c3ee71677688ff1.elf (HeadlessAnalyzer)  
INFO  REPORT: Save succeeded for: /38d0ec994415631efb0a1b3a06847cd4b2d96a0b95b986807c3ee71677688ff1.elf (ghidra_analysis_38d0ec994415631efb0a1b3a06847cd4b2d96a0b95b986807c3ee71677688ff1.elf_20251025_201936:/38d0ec994415631efb0a1b3a06847cd4b2d96a0b95b986807c3ee71677688ff1.elf) (HeadlessAnalyzer)  
INFO  REPORT: Import succeeded (HeadlessAnalyzer)  
==========================================
Ghidra analysis completed successfully
==========================================

Ghidra CFG Stats:
GHIDRA_STATS:Functions=1
GHIDRA_STATS:BasicBlocks=0
GHIDRA_STATS:TotalPcodeOps=0

Ghidra Performance:
	Elapsed (wall clock) time (h:mm:ss or m:ss): 0:15.43
	Maximum resident set size (kbytes): 576704

--- angr VEX IR Analysis ---

angr analysis: SUCCESS
==================================================
angr VEX IR Analysis
==================================================
Binary: /home/analyst/ir-alalysis/samples/malware/38d0ec994415631efb0a1b3a06847cd4b2d96a0b95b986807c3ee71677688ff1.elf
==================================================
Loading binary with angr...
Architecture: AMD64
Entry point: 0x109690
Binary base address: 0x100000

Generating CFG with angr...
Functions discovered: 2856
Basic blocks (CFG nodes): 4631
CFG edges: 2223

Counting VEX IR statements...
Total VEX statements: 132471

--- angr CFG & IR Stats ---
ANGR_STATS:Functions=2856
ANGR_STATS:Nodes=4631
ANGR_STATS:Edges=2223
ANGR_STATS:TotalVexStatements=132471
---------------------------

Sample functions (first 10):
  - sub_100000 @ 0x100000
  - sub_100069 @ 0x100069
  - sub_100080 @ 0x100080
  - sub_1000e0 @ 0x1000e0
  - sub_1000eb @ 0x1000eb
  - sub_100110 @ 0x100110
  - sub_100119 @ 0x100119
  - sub_10011b @ 0x10011b
  - sub_10012a @ 0x10012a
  - sub_100133 @ 0x100133
==================================================
angr analysis completed successfully
==================================================

angr CFG Stats:
ANGR_STATS:Functions=2856
ANGR_STATS:Nodes=4631
ANGR_STATS:Edges=2223
ANGR_STATS:TotalVexStatements=132471

angr Performance:
	Elapsed (wall clock) time (h:mm:ss or m:ss): 0:11.74
	Maximum resident set size (kbytes): 189272

--- LLVM IR Analysis ---

==========================================
LLVM IR Analysis
==========================================
Binary:  /home/analyst/ir-alalysis/samples/malware/38d0ec994415631efb0a1b3a06847cd4b2d96a0b95b986807c3ee71677688ff1.elf
==========================================

Detected native binary (not LLVM bitcode)
Performing LLVM-based binary analysis...

--- Binary Information ---

/home/analyst/ir-alalysis/samples/malware/38d0ec994415631efb0a1b3a06847cd4b2d96a0b95b986807c3ee71677688ff1.elf:	file format elf64-x86-64

Sections:
Idx Name          Size     VMA              Type

--- Disassembly (first 100 instructions) ---

/home/analyst/ir-alalysis/samples/malware/38d0ec994415631efb0a1b3a06847cd4b2d96a0b95b986807c3ee71677688ff1.elf:	file format elf64-x86-64

--- Symbol Table (first 50 entries) ---

/home/analyst/ir-alalysis/samples/malware/38d0ec994415631efb0a1b3a06847cd4b2d96a0b95b986807c3ee71677688ff1.elf:	file format elf64-x86-64

SYMBOL TABLE:

NOTE: For true binary-to-LLVM IR lifting, consider using:
  - mcsema: https://github.com/lifting-bits/mcsema
  - remill: https://github.com/lifting-bits/remill
  - rellic: https://github.com/lifting-bits/rellic

==========================================
LLVM analysis completed successfully
==========================================
LLVM analysis: SUCCESS
	Command being timed: "/home/analyst/ir-alalysis/scripts/analyze_llvm.sh /home/analyst/ir-alalysis/samples/malware/38d0ec994415631efb0a1b3a06847cd4b2d96a0b95b986807c3ee71677688ff1.elf"
	User time (seconds): 0.04
	System time (seconds): 0.05
	Percent of CPU this job got: 95%
	Elapsed (wall clock) time (h:mm:ss or m:ss): 0:00.10
	Average shared text size (kbytes): 0
	Average unshared data size (kbytes): 0
	Average stack size (kbytes): 0
	Average total size (kbytes): 0
	Maximum resident set size (kbytes): 51072
	Average resident set size (kbytes): 0
	Major (requiring I/O) page faults: 0
	Minor (reclaiming a frame) page faults: 9945
	Voluntary context switches: 17
	Involuntary context switches: 35
	Swaps: 0
	File system inputs: 0
	File system outputs: 0
	Socket messages sent: 0
	Socket messages received: 0
	Signals delivered: 0
	Page size (bytes): 4096
	Exit status: 0

Completed: 38d0ec994415631efb0a1b3a06847cd4b2d96a0b95b986807c3ee71677688ff1.elf

========================================
Processing sample 14: 39fdd742df6bfcf32a04c46dcbcda4a12c630506a4208a43251804f4ec05c520.exe
========================================

--- Ghidra P-code Analysis ---

Ghidra analysis: SUCCESS
==========================================
Ghidra Headless Analysis
==========================================
Binary:  /home/analyst/ir-alalysis/samples/malware/39fdd742df6bfcf32a04c46dcbcda4a12c630506a4208a43251804f4ec05c520.exe
Project: ghidra_analysis_39fdd742df6bfcf32a04c46dcbcda4a12c630506a4208a43251804f4ec05c520.exe_20251025_202004
Location: ./ghidra_projects
==========================================
INFO  Using log config file: jar:file:/home/analyst/ghidra/Ghidra/Framework/Generic/lib/Generic.jar!/generic.log4j.xml (LoggingInitialization)  
INFO  Using log file: /home/analyst/.config/ghidra/ghidra_11.4.2_PUBLIC/application.log (LoggingInitialization)  
INFO  Loading user preferences: /home/analyst/.config/ghidra/ghidra_11.4.2_PUBLIC/preferences (Preferences)  
INFO  Searching for classes... (ClassSearcher)  
INFO  Class search complete (1180 ms) (ClassSearcher)  
INFO  Initializing SSL Context (SSLContextInitializer)  
INFO  Initializing Random Number Generator... (SecureRandomFactory)  
INFO  Random Number Generator initialization complete: NativePRNGNonBlocking (SecureRandomFactory)  
INFO  Trust manager disabled, cacerts have not been set (ApplicationTrustManagerFactory)  
INFO  Headless startup complete (4108 ms) (AnalyzeHeadless)  
INFO  Class searcher loaded 58 extension points (18 false positives) (ClassSearcher)  
INFO  HEADLESS Script Paths:
    /home/analyst/ghidra/Ghidra/Features/GnuDemangler/ghidra_scripts
    /home/analyst/ghidra/Ghidra/Features/BytePatterns/ghidra_scripts
    /home/analyst/ghidra/Ghidra/Features/SystemEmulation/ghidra_scripts
    /home/analyst/ghidra/Ghidra/Processors/DATA/ghidra_scripts
    /home/analyst/ghidra/Ghidra/Features/PyGhidra/ghidra_scripts
    /home/analyst/ghidra/Ghidra/Features/MicrosoftCodeAnalyzer/ghidra_scripts
    /home/analyst/ghidra/Ghidra/Features/Base/ghidra_scripts
    /home/analyst/ghidra/Ghidra/Features/Jython/ghidra_scripts
    /home/analyst/ghidra/Ghidra/Features/VersionTracking/ghidra_scripts
    /home/analyst/ghidra/Ghidra/Features/PDB/ghidra_scripts
    /home/analyst/ghidra/Ghidra/Processors/Atmel/ghidra_scripts
    /home/analyst/ghidra/Ghidra/Debug/Debugger-rmi-trace/ghidra_scripts
    /home/analyst/ghidra/Ghidra/Features/FileFormats/ghidra_scripts
    /home/analyst/ghidra/Ghidra/Processors/JVM/ghidra_scripts
    /home/analyst/ghidra/Ghidra/Debug/Debugger/ghidra_scripts
    /home/analyst/ghidra/Ghidra/Processors/PIC/ghidra_scripts
    /home/analyst/ghidra/Ghidra/Features/WildcardAssembler/ghidra_scripts
    /home/analyst/ghidra/Ghidra/Processors/8051/ghidra_scripts
    /home/analyst/ghidra/Ghidra/Features/Decompiler/ghidra_scripts
    /home/analyst/ghidra/Ghidra/Features/DecompilerDependent/ghidra_scripts
    /home/analyst/ghidra/Ghidra/Features/FunctionID/ghidra_scripts
    /home/analyst/ghidra/Ghidra/Features/SwiftDemangler/ghidra_scripts
    /home/analyst/ghidra/Ghidra/Features/BSim/ghidra_scripts (HeadlessAnalyzer)  
INFO  HEADLESS: execution starts (HeadlessAnalyzer)  
INFO  Creating temporary project: /home/analyst/ir-alalysis/./ghidra_projects/ghidra_analysis_39fdd742df6bfcf32a04c46dcbcda4a12c630506a4208a43251804f4ec05c520.exe_20251025_202004 (HeadlessAnalyzer)  
INFO  Creating project: /home/analyst/ir-alalysis/./ghidra_projects/ghidra_analysis_39fdd742df6bfcf32a04c46dcbcda4a12c630506a4208a43251804f4ec05c520.exe_20251025_202004 (DefaultProject)  
INFO  REPORT: Processing input files:  (HeadlessAnalyzer)  
INFO       project: /home/analyst/ir-alalysis/./ghidra_projects/ghidra_analysis_39fdd742df6bfcf32a04c46dcbcda4a12c630506a4208a43251804f4ec05c520.exe_20251025_202004 (HeadlessAnalyzer)  
INFO  IMPORTING: file:///home/analyst/ir-alalysis/samples/malware/39fdd742df6bfcf32a04c46dcbcda4a12c630506a4208a43251804f4ec05c520.exe (HeadlessAnalyzer)  
INFO  Using Loader: Portable Executable (PE) (AutoImporter)  
INFO  Using Language/Compiler: x86:LE:32:default:windows (AutoImporter)  
INFO  Using Library Search Path: [., /bin, /lib, /lib64, /lib/x86_64-linux-gnu, /lib/aarch64-linux-gnu, /usr/bin, /usr/lib, /usr/X11R6/bin, /usr/X11R6/lib, /usr/java/packages/lib, /usr/lib/x86_64-linux-gnu/jni, /usr/lib/x86_64-linux-gnu, /usr/lib/jni] (AutoImporter)  
INFO  Removing 6 unused filesystems from cache (FileSystemInstanceManager)  
INFO  Additional info:
Loading file:///home/analyst/ir-alalysis/samples/malware/39fdd742df6bfcf32a04c46dcbcda4a12c630506a4208a43251804f4ec05c520.exe?MD5=25db0c86976093311f17280c5b9eecf2...
[39fdd742df6bfcf32a04c46dcbcda4a12c630506a4208a43251804f4ec05c520.exe]: failed to create TerminatedCString at 00482058: Failed to resolve data length for TerminatedCString
Cannot invoke "ghidra.app.util.bin.format.pe.cli.CliStreamHeader.getStream()" because the return value of "ghidra.app.util.bin.format.pe.cli.CliMetadataRoot.getStreamHeader(String)" is null
java.lang.NullPointerException: Cannot invoke "ghidra.app.util.bin.format.pe.cli.CliStreamHeader.getStream()" because the return value of "ghidra.app.util.bin.format.pe.cli.CliMetadataRoot.getStreamHeader(String)" is null
	at ghidra.app.util.bin.format.pe.ImageCor20Header.markup(ImageCor20Header.java:147)
	at ghidra.app.util.bin.format.pe.COMDescriptorDataDirectory.markup(COMDescriptorDataDirectory.java:83)
	at ghidra.app.util.opinion.PeLoader.load(PeLoader.java:141)
	at ghidra.app.util.opinion.AbstractLibrarySupportLoader.doLoad(AbstractLibrarySupportLoader.java:858)
	at ghidra.app.util.opinion.AbstractLibrarySupportLoader.loadProgram(AbstractLibrarySupportLoader.java:102)
	at ghidra.app.util.opinion.AbstractProgramLoader.load(AbstractProgramLoader.java:131)
	at ghidra.app.util.importer.AutoImporter.importFresh(AutoImporter.java:723)
	at ghidra.app.util.importer.AutoImporter.importFresh(AutoImporter.java:633)
	at ghidra.app.util.importer.AutoImporter.importByUsingBestGuess(AutoImporter.java:125)
	at ghidra.app.util.headless.HeadlessAnalyzer.loadPrograms(HeadlessAnalyzer.java:1655)
	at ghidra.app.util.headless.HeadlessAnalyzer.processFileWithImport(HeadlessAnalyzer.java:1538)
	at ghidra.app.util.headless.HeadlessAnalyzer.processWithLoader(HeadlessAnalyzer.java:1745)
	at ghidra.app.util.headless.HeadlessAnalyzer.processWithImport(HeadlessAnalyzer.java:1686)
	at ghidra.app.util.headless.HeadlessAnalyzer.processWithImport(HeadlessAnalyzer.java:1770)
	at ghidra.app.util.headless.HeadlessAnalyzer.processLocal(HeadlessAnalyzer.java:457)
	at ghidra.app.util.headless.AnalyzeHeadless.launch(AnalyzeHeadless.java:198)
	at ghidra.GhidraLauncher.launch(GhidraLauncher.java:81)
	at ghidra.Ghidra.main(Ghidra.java:54)

------------------------------------------------

Searching 9 paths for library MSCOREE.DLL...
Library not found.
------------------------------------------------

Linking the External Programs of '39fdd742df6bfcf32a04c46dcbcda4a12c630506a4208a43251804f4ec05c520.exe' to imported libraries...
  [MSCOREE.DLL] -> not found in project
------------------------------------------------

 (AutoImporter)  
INFO  IMPORTING: Loaded 0 additional files (HeadlessAnalyzer)  
INFO  ANALYZING all memory and code: file:///home/analyst/ir-alalysis/samples/malware/39fdd742df6bfcf32a04c46dcbcda4a12c630506a4208a43251804f4ec05c520.exe (HeadlessAnalyzer)  
ERROR REPORT: Analysis timed out at 0 seconds. Processing not completed for file: file:///home/analyst/ir-alalysis/samples/malware/39fdd742df6bfcf32a04c46dcbcda4a12c630506a4208a43251804f4ec05c520.exe (HeadlessAnalyzer)  
INFO  SCRIPT: /home/analyst/ir-alalysis/scripts/get_cfg_stats.py (HeadlessAnalyzer)  
GHIDRA_STATS:Functions=0
GHIDRA_STATS:BasicBlocks=0
GHIDRA_STATS:TotalPcodeOps=0
INFO  ANALYZING changes made by post scripts: file:///home/analyst/ir-alalysis/samples/malware/39fdd742df6bfcf32a04c46dcbcda4a12c630506a4208a43251804f4ec05c520.exe (HeadlessAnalyzer)  
INFO  REPORT: Post-analysis succeeded for file: file:///home/analyst/ir-alalysis/samples/malware/39fdd742df6bfcf32a04c46dcbcda4a12c630506a4208a43251804f4ec05c520.exe (HeadlessAnalyzer)  
INFO  REPORT: Save succeeded for: /39fdd742df6bfcf32a04c46dcbcda4a12c630506a4208a43251804f4ec05c520.exe (ghidra_analysis_39fdd742df6bfcf32a04c46dcbcda4a12c630506a4208a43251804f4ec05c520.exe_20251025_202004:/39fdd742df6bfcf32a04c46dcbcda4a12c630506a4208a43251804f4ec05c520.exe) (HeadlessAnalyzer)  
INFO  REPORT: Import succeeded (HeadlessAnalyzer)  
==========================================
Ghidra analysis completed successfully
==========================================

Ghidra CFG Stats:
GHIDRA_STATS:Functions=0
GHIDRA_STATS:BasicBlocks=0
GHIDRA_STATS:TotalPcodeOps=0

Ghidra Performance:
	Elapsed (wall clock) time (h:mm:ss or m:ss): 0:18.18
	Maximum resident set size (kbytes): 789724

--- angr VEX IR Analysis ---

angr analysis: SUCCESS
==================================================
angr VEX IR Analysis
==================================================
Binary: /home/analyst/ir-alalysis/samples/malware/39fdd742df6bfcf32a04c46dcbcda4a12c630506a4208a43251804f4ec05c520.exe
==================================================
Loading binary with angr...
Architecture: X86
Entry point: 0x48150e
Binary base address: 0x400000

Generating CFG with angr...
Functions discovered: 2
Basic blocks (CFG nodes): 2
CFG edges: 1

Counting VEX IR statements...
Total VEX statements: 2

--- angr CFG & IR Stats ---
ANGR_STATS:Functions=2
ANGR_STATS:Nodes=2
ANGR_STATS:Edges=1
ANGR_STATS:TotalVexStatements=2
---------------------------

Sample functions (first 10):
  - _start @ 0x48150e
  - _CorExeMain @ 0x500000
==================================================
angr analysis completed successfully
==================================================

angr CFG Stats:
ANGR_STATS:Functions=2
ANGR_STATS:Nodes=2
ANGR_STATS:Edges=1
ANGR_STATS:TotalVexStatements=2

angr Performance:
	Elapsed (wall clock) time (h:mm:ss or m:ss): 0:01.71
	Maximum resident set size (kbytes): 132104

--- LLVM IR Analysis ---

==========================================
LLVM IR Analysis
==========================================
Binary:  /home/analyst/ir-alalysis/samples/malware/39fdd742df6bfcf32a04c46dcbcda4a12c630506a4208a43251804f4ec05c520.exe
==========================================

Detected native binary (not LLVM bitcode)
Performing LLVM-based binary analysis...

--- Binary Information ---

/home/analyst/ir-alalysis/samples/malware/39fdd742df6bfcf32a04c46dcbcda4a12c630506a4208a43251804f4ec05c520.exe:	file format coff-i386

Sections:
Idx Name          Size     VMA      Type
  0 .text         0007f514 00402000 TEXT
  1 .rsrc         00000400 00482000 DATA
  2 .reloc        0000000c 00484000 DATA
  3 qlXi2+wJ      0000c4a8 00486000 DATA

--- Disassembly (first 100 instructions) ---

/home/analyst/ir-alalysis/samples/malware/39fdd742df6bfcf32a04c46dcbcda4a12c630506a4208a43251804f4ec05c520.exe:	file format coff-i386

Disassembly of section .text:

00402000 <.text>:
  402000: f0                           	lock
  402001: 14 08                        	adcb	$8, %al
  402003: 00 00                        	addb	%al, (%eax)
  402005: 00 00                        	addb	%al, (%eax)
  402007: 00 48 00                     	addb	%cl, (%eax)
  40200a: 00 00                        	addb	%al, (%eax)
  40200c: 02 00                        	addb	(%eax), %al
  40200e: 05 00 ec bd 04               	addl	$79555584, %eax         # imm = 0x4BDEC00
  402013: 00 d0                        	addb	%dl, %al
  402015: 56                           	pushl	%esi
  402016: 03 00                        	addl	(%eax), %eax
  402018: 03 00                        	addl	(%eax), %eax
  40201a: 00 00                        	addb	%al, (%eax)
  40201c: 0a 00                        	orb	(%eax), %al
  40201e: 00 06                        	addb	%al, (%esi)
  402020: 44                           	incl	%esp
  402021: dc 00                        	faddl	(%eax)
  402023: 00 a8 e1 03 00 00            	addb	%ch, 993(%eax)
		...
  40204d: 00 00                        	addb	%al, (%eax)
  40204f: 00 13                        	addb	%dl, (%ebx)
  402051: 30 16                        	xorb	%dl, (%esi)
  402053: 00 f3                        	addb	%dh, %bl
  402055: 03 00                        	addl	(%eax), %eax
  402057: 00 02                        	addb	%al, (%edx)
  402059: 00 00                        	addb	%al, (%eax)
  40205b: 11 28                        	adcl	%ebp, (%eax)
  40205d: 1d 00 00 0a 14               	sbbl	$336199680, %eax        # imm = 0x140A0000
  402062: fe 06                        	incb	(%esi)
  402064: 04 00                        	addb	$0, %al
  402066: 00 06                        	addb	%al, (%esi)
  402068: 73 21                        	jae	0x40208b <.text+0x8b>
  40206a: 00 00                        	addb	%al, (%eax)
  40206c: 0a 6f 22                     	orb	34(%edi), %ch
  40206f: 00 00                        	addb	%al, (%eax)
  402071: 0a 17                        	orb	(%edi), %dl
  402073: 13 0f                        	adcl	(%edi), %ecx
  402075: 2b 0e                        	subl	(%esi), %ecx
  402077: d0 03                        	rolb	(%ebx)
  402079: 00 00                        	addb	%al, (%eax)
  40207b: 04 1b                        	addb	$27, %al
  40207d: 19 30                        	sbbl	%esi, (%eax)
  40207f: 03 26                        	addl	(%esi), %esp
  402081: 2b 01                        	subl	(%ecx), %eax
  402083: 26 01 11                     	addl	%edx, %es:(%ecx)
  402086: 0f 45 15 00 00 00 7c         	cmovnel	2080374784, %edx
  40208d: ff ff                        	<unknown>
  40208f: ff 00                        	incl	(%eax)
  402091: 00 00                        	addb	%al, (%eax)
  402093: 00 13                        	addb	%dl, (%ebx)
  402095: 00 00                        	addb	%al, (%eax)
  402097: 00 72 00                     	addb	%dh, (%edx)
  40209a: 00 00                        	addb	%al, (%eax)
  40209c: ca 00 00                     	lretl	$0
  40209f: 00 ec                        	addb	%ch, %ah
  4020a1: 00 00                        	addb	%al, (%eax)
  4020a3: 00 39                        	addb	%bh, (%ecx)
  4020a5: 01 00                        	addl	%eax, (%eax)
  4020a7: 00 69 01                     	addb	%ch, 1(%ecx)
  4020aa: 00 00                        	addb	%al, (%eax)
  4020ac: 8b 01                        	movl	(%ecx), %eax
  4020ae: 00 00                        	addb	%al, (%eax)
  4020b0: b1 01                        	movb	$1, %cl
  4020b2: 00 00                        	addb	%al, (%eax)
  4020b4: e2 01                        	loop	0x4020b7 <.text+0xb7>
  4020b6: 00 00                        	addb	%al, (%eax)
  4020b8: 06                           	pushl	%es
  4020b9: 02 00                        	addb	(%eax), %al
  4020bb: 00 47 02                     	addb	%al, 2(%edi)
  4020be: 00 00                        	addb	%al, (%eax)
  4020c0: 73 02                        	jae	0x4020c4 <.text+0xc4>
  4020c2: 00 00                        	addb	%al, (%eax)
  4020c4: a2 02 00 00 be               	movb	%al, 3187671042
  4020c9: 02 00                        	addb	(%eax), %al
  4020cb: 00 dd                        	addb	%bl, %ch
  4020cd: 02 00                        	addb	(%eax), %al
  4020cf: 00 15 03 00 00 35            	addb	%dl, 889192451
  4020d5: 03 00                        	addl	(%eax), %eax
  4020d7: 00 49 03                     	addb	%cl, 3(%ecx)
  4020da: 00 00                        	addb	%al, (%eax)
  4020dc: 4c                           	decl	%esp
  4020dd: 03 00                        	addl	(%eax), %eax
  4020df: 00 28                        	addb	%ch, (%eax)
  4020e1: d9 00                        	flds	(%eax)
  4020e3: 00 06                        	addb	%al, (%esi)
  4020e5: 1e                           	pushl	%ds
  4020e6: 13 0f                        	adcl	(%edi), %ecx
  4020e8: 2b 9b d0 01 00 00            	subl	464(%ebx), %ebx
  4020ee: 04 1c                        	addb	$28, %al
  4020f0: 13 0f                        	adcl	(%edi), %ecx
  4020f2: 26 11 07                     	adcl	%eax, %es:(%edi)
  4020f5: 28 13                        	subb	%dl, (%ebx)
  4020f7: 00 00                        	addb	%al, (%eax)
  4020f9: 0a 20                        	orb	(%eax), %ah
  4020fb: 39 ee                        	cmpl	%ebp, %esi
  4020fd: f7 a2 20 69 41 ee            	mull	-297703136(%edx)
  402103: 54                           	pushl	%esp
  402104: 59                           	popl	%ecx
  402105: 28 23                        	subb	%ah, (%ebx)
  402107: 00 00                        	addb	%al, (%eax)
  402109: 0a 6f 15                     	orb	21(%edi), %ch
  40210c: 00 00                        	addb	%al, (%eax)
  40210e: 0a 6f 12                     	orb	18(%edi), %ch
  402111: 00 00                        	addb	%al, (%eax)
  402113: 0a 13                        	orb	(%ebx), %dl
  402115: 04 11                        	addb	$17, %al
  402117: 04 6f                        	addb	$111, %al
  402119: 0a 00                        	orb	(%eax), %al
  40211b: 00 0a                        	addb	%cl, (%edx)
  40211d: d4 8d                        	aam	$-115
  40211f: 1a 00                        	sbbb	(%eax), %al
  402121: 00 01                        	addb	%al, (%ecx)
  402123: 13 09                        	adcl	(%ecx), %ecx
  402125: 11 04 11                     	adcl	%eax, (%ecx,%edx)
  402128: 09 16                        	orl	%edx, (%esi)
  40212a: 11 09                        	adcl	%ecx, (%ecx)
  40212c: 8e 69 6f                     	movw	111(%ecx), %gs
  40212f: 11 00                        	adcl	%eax, (%eax)
  402131: 00 0a                        	addb	%cl, (%edx)
  402133: 26 28 24 00                  	subb	%ah, %es:(%eax,%eax)
  402137: 00 0a                        	addb	%cl, (%edx)
  402139: 13 06                        	adcl	(%esi), %eax
  40213b: 1f                           	popl	%ds
  40213c: 0b 13                        	orl	(%ebx), %edx
  40213e: 0f 38 41                     	<unknown>
  402141: ff ff                        	<unknown>
  402143: ff d0                        	calll	*%eax
  402145: 01 00                        	addl	%eax, (%eax)
  402147: 00 06                        	addb	%al, (%esi)
  402149: 18 19                        	sbbb	%bl, (%ecx)
  40214b: 31 03                        	xorl	%eax, (%ebx)
  40214d: 26 2b 01                     	subl	%es:(%ecx), %eax
  402150: 26 01 11                     	addl	%edx, %es:(%ecx)
  402153: 0a 17                        	orb	(%edi), %dl
  402155: 58                           	popl	%eax
  402156: 13 0a                        	adcl	(%edx), %ecx
  402158: 11 0a                        	adcl	%ecx, (%edx)
  40215a: 11 09                        	adcl	%ecx, (%ecx)
  40215c: 8e 69 3f                     	movw	63(%ecx), %gs
  40215f: 5a                           	popl	%edx
  402160: 02 00                        	addb	(%eax), %al
  402162: 00 11                        	addb	%dl, (%ecx)
  402164: 09 73 05                     	orl	%esi, 5(%ebx)
  402167: 00 00                        	addb	%al, (%eax)

--- Symbol Table (first 50 entries) ---

/home/analyst/ir-alalysis/samples/malware/39fdd742df6bfcf32a04c46dcbcda4a12c630506a4208a43251804f4ec05c520.exe:	file format coff-i386

SYMBOL TABLE:

NOTE: For true binary-to-LLVM IR lifting, consider using:
  - mcsema: https://github.com/lifting-bits/mcsema
  - remill: https://github.com/lifting-bits/remill
  - rellic: https://github.com/lifting-bits/rellic

==========================================
LLVM analysis completed successfully
==========================================
LLVM analysis: SUCCESS
	Command being timed: "/home/analyst/ir-alalysis/scripts/analyze_llvm.sh /home/analyst/ir-alalysis/samples/malware/39fdd742df6bfcf32a04c46dcbcda4a12c630506a4208a43251804f4ec05c520.exe"
	User time (seconds): 0.03
	System time (seconds): 0.06
	Percent of CPU this job got: 89%
	Elapsed (wall clock) time (h:mm:ss or m:ss): 0:00.10
	Average shared text size (kbytes): 0
	Average unshared data size (kbytes): 0
	Average stack size (kbytes): 0
	Average total size (kbytes): 0
	Maximum resident set size (kbytes): 51840
	Average resident set size (kbytes): 0
	Major (requiring I/O) page faults: 1
	Minor (reclaiming a frame) page faults: 10299
	Voluntary context switches: 19
	Involuntary context switches: 82
	Swaps: 0
	File system inputs: 256
	File system outputs: 16
	Socket messages sent: 0
	Socket messages received: 0
	Signals delivered: 0
	Page size (bytes): 4096
	Exit status: 0

Completed: 39fdd742df6bfcf32a04c46dcbcda4a12c630506a4208a43251804f4ec05c520.exe

========================================
Processing sample 15: 43c4fa8cb81a092e521ea181596dbdc8bb294274df1249d20d0ee8a597ac8c22.elf
========================================

--- Ghidra P-code Analysis ---

Ghidra analysis: SUCCESS
==========================================
Ghidra Headless Analysis
==========================================
Binary:  /home/analyst/ir-alalysis/samples/malware/43c4fa8cb81a092e521ea181596dbdc8bb294274df1249d20d0ee8a597ac8c22.elf
Project: ghidra_analysis_43c4fa8cb81a092e521ea181596dbdc8bb294274df1249d20d0ee8a597ac8c22.elf_20251025_202024
Location: ./ghidra_projects
==========================================
INFO  Using log config file: jar:file:/home/analyst/ghidra/Ghidra/Framework/Generic/lib/Generic.jar!/generic.log4j.xml (LoggingInitialization)  
INFO  Using log file: /home/analyst/.config/ghidra/ghidra_11.4.2_PUBLIC/application.log (LoggingInitialization)  
INFO  Loading user preferences: /home/analyst/.config/ghidra/ghidra_11.4.2_PUBLIC/preferences (Preferences)  
INFO  Searching for classes... (ClassSearcher)  
INFO  Class search complete (1055 ms) (ClassSearcher)  
INFO  Initializing SSL Context (SSLContextInitializer)  
INFO  Initializing Random Number Generator... (SecureRandomFactory)  
INFO  Random Number Generator initialization complete: NativePRNGNonBlocking (SecureRandomFactory)  
INFO  Trust manager disabled, cacerts have not been set (ApplicationTrustManagerFactory)  
INFO  Headless startup complete (3813 ms) (AnalyzeHeadless)  
INFO  Class searcher loaded 58 extension points (18 false positives) (ClassSearcher)  
INFO  HEADLESS Script Paths:
    /home/analyst/ghidra/Ghidra/Features/GnuDemangler/ghidra_scripts
    /home/analyst/ghidra/Ghidra/Features/BytePatterns/ghidra_scripts
    /home/analyst/ghidra/Ghidra/Features/SystemEmulation/ghidra_scripts
    /home/analyst/ghidra/Ghidra/Processors/DATA/ghidra_scripts
    /home/analyst/ghidra/Ghidra/Features/PyGhidra/ghidra_scripts
    /home/analyst/ghidra/Ghidra/Features/MicrosoftCodeAnalyzer/ghidra_scripts
    /home/analyst/ghidra/Ghidra/Features/Base/ghidra_scripts
    /home/analyst/ghidra/Ghidra/Features/Jython/ghidra_scripts
    /home/analyst/ghidra/Ghidra/Features/VersionTracking/ghidra_scripts
    /home/analyst/ghidra/Ghidra/Features/PDB/ghidra_scripts
    /home/analyst/ghidra/Ghidra/Processors/Atmel/ghidra_scripts
    /home/analyst/ghidra/Ghidra/Debug/Debugger-rmi-trace/ghidra_scripts
    /home/analyst/ghidra/Ghidra/Features/FileFormats/ghidra_scripts
    /home/analyst/ghidra/Ghidra/Processors/JVM/ghidra_scripts
    /home/analyst/ghidra/Ghidra/Debug/Debugger/ghidra_scripts
    /home/analyst/ghidra/Ghidra/Processors/PIC/ghidra_scripts
    /home/analyst/ghidra/Ghidra/Features/WildcardAssembler/ghidra_scripts
    /home/analyst/ghidra/Ghidra/Processors/8051/ghidra_scripts
    /home/analyst/ghidra/Ghidra/Features/Decompiler/ghidra_scripts
    /home/analyst/ghidra/Ghidra/Features/DecompilerDependent/ghidra_scripts
    /home/analyst/ghidra/Ghidra/Features/FunctionID/ghidra_scripts
    /home/analyst/ghidra/Ghidra/Features/SwiftDemangler/ghidra_scripts
    /home/analyst/ghidra/Ghidra/Features/BSim/ghidra_scripts (HeadlessAnalyzer)  
INFO  HEADLESS: execution starts (HeadlessAnalyzer)  
INFO  Creating temporary project: /home/analyst/ir-alalysis/./ghidra_projects/ghidra_analysis_43c4fa8cb81a092e521ea181596dbdc8bb294274df1249d20d0ee8a597ac8c22.elf_20251025_202024 (HeadlessAnalyzer)  
INFO  Creating project: /home/analyst/ir-alalysis/./ghidra_projects/ghidra_analysis_43c4fa8cb81a092e521ea181596dbdc8bb294274df1249d20d0ee8a597ac8c22.elf_20251025_202024 (DefaultProject)  
INFO  REPORT: Processing input files:  (HeadlessAnalyzer)  
INFO       project: /home/analyst/ir-alalysis/./ghidra_projects/ghidra_analysis_43c4fa8cb81a092e521ea181596dbdc8bb294274df1249d20d0ee8a597ac8c22.elf_20251025_202024 (HeadlessAnalyzer)  
INFO  IMPORTING: file:///home/analyst/ir-alalysis/samples/malware/43c4fa8cb81a092e521ea181596dbdc8bb294274df1249d20d0ee8a597ac8c22.elf (HeadlessAnalyzer)  
INFO  Using Loader: Executable and Linking Format (ELF) (AutoImporter)  
INFO  Using Language/Compiler: MIPS:LE:32:default:default (AutoImporter)  
INFO  Using Library Search Path: [., /bin, /lib, /lib64, /lib/x86_64-linux-gnu, /lib/aarch64-linux-gnu, /usr/bin, /usr/lib, /usr/X11R6/bin, /usr/X11R6/lib, /usr/java/packages/lib, /usr/lib/x86_64-linux-gnu/jni, /usr/lib/x86_64-linux-gnu, /usr/lib/jni] (AutoImporter)  
INFO  Additional info:
Loading file:///home/analyst/ir-alalysis/samples/malware/43c4fa8cb81a092e521ea181596dbdc8bb294274df1249d20d0ee8a597ac8c22.elf?MD5=a0ac64f6d69942324dca2bc29a81bca9...
Skipping PT_LOAD segment[1, Loadable segment] with invalid file offset
------------------------------------------------

 (AutoImporter)  
INFO  IMPORTING: Loaded 0 additional files (HeadlessAnalyzer)  
INFO  ANALYZING all memory and code: file:///home/analyst/ir-alalysis/samples/malware/43c4fa8cb81a092e521ea181596dbdc8bb294274df1249d20d0ee8a597ac8c22.elf (HeadlessAnalyzer)  
ERROR REPORT: Analysis timed out at 0 seconds. Processing not completed for file: file:///home/analyst/ir-alalysis/samples/malware/43c4fa8cb81a092e521ea181596dbdc8bb294274df1249d20d0ee8a597ac8c22.elf (HeadlessAnalyzer)  
INFO  SCRIPT: /home/analyst/ir-alalysis/scripts/get_cfg_stats.py (HeadlessAnalyzer)  
GHIDRA_STATS:Functions=1
GHIDRA_STATS:BasicBlocks=0
GHIDRA_STATS:TotalPcodeOps=0
INFO  ANALYZING changes made by post scripts: file:///home/analyst/ir-alalysis/samples/malware/43c4fa8cb81a092e521ea181596dbdc8bb294274df1249d20d0ee8a597ac8c22.elf (HeadlessAnalyzer)  
INFO  REPORT: Post-analysis succeeded for file: file:///home/analyst/ir-alalysis/samples/malware/43c4fa8cb81a092e521ea181596dbdc8bb294274df1249d20d0ee8a597ac8c22.elf (HeadlessAnalyzer)  
INFO  REPORT: Save succeeded for: /43c4fa8cb81a092e521ea181596dbdc8bb294274df1249d20d0ee8a597ac8c22.elf (ghidra_analysis_43c4fa8cb81a092e521ea181596dbdc8bb294274df1249d20d0ee8a597ac8c22.elf_20251025_202024:/43c4fa8cb81a092e521ea181596dbdc8bb294274df1249d20d0ee8a597ac8c22.elf) (HeadlessAnalyzer)  
INFO  REPORT: Import succeeded (HeadlessAnalyzer)  
==========================================
Ghidra analysis completed successfully
==========================================

Ghidra CFG Stats:
GHIDRA_STATS:Functions=1
GHIDRA_STATS:BasicBlocks=0
GHIDRA_STATS:TotalPcodeOps=0

Ghidra Performance:
	Elapsed (wall clock) time (h:mm:ss or m:ss): 0:15.38
	Maximum resident set size (kbytes): 645996

--- angr VEX IR Analysis ---

angr analysis: SUCCESS
==================================================
angr VEX IR Analysis
==================================================
Binary: /home/analyst/ir-alalysis/samples/malware/43c4fa8cb81a092e521ea181596dbdc8bb294274df1249d20d0ee8a597ac8c22.elf
==================================================
Loading binary with angr...
Architecture: MIPS32
Entry point: 0x109d90
Binary base address: 0x100000

Generating CFG with angr...
Functions discovered: 70
Basic blocks (CFG nodes): 241
CFG edges: 291

Counting VEX IR statements...
Total VEX statements: 5018

--- angr CFG & IR Stats ---
ANGR_STATS:Functions=70
ANGR_STATS:Nodes=241
ANGR_STATS:Edges=291
ANGR_STATS:TotalVexStatements=5018
---------------------------

Sample functions (first 10):
  - sub_100004 @ 0x100004
  - sub_100024 @ 0x100024
  - sub_100048 @ 0x100048
  - sub_100078 @ 0x100078
  - sub_1000b4 @ 0x1000b4
  - sub_1000d8 @ 0x1000d8
  - sub_100104 @ 0x100104
  - sub_100118 @ 0x100118
  - sub_10012c @ 0x10012c
  - sub_100140 @ 0x100140
==================================================
angr analysis completed successfully
==================================================

angr CFG Stats:
ANGR_STATS:Functions=70
ANGR_STATS:Nodes=241
ANGR_STATS:Edges=291
ANGR_STATS:TotalVexStatements=5018

angr Performance:
	Elapsed (wall clock) time (h:mm:ss or m:ss): 0:02.34
	Maximum resident set size (kbytes): 107732

--- LLVM IR Analysis ---

==========================================
LLVM IR Analysis
==========================================
Binary:  /home/analyst/ir-alalysis/samples/malware/43c4fa8cb81a092e521ea181596dbdc8bb294274df1249d20d0ee8a597ac8c22.elf
==========================================

Detected native binary (not LLVM bitcode)
Performing LLVM-based binary analysis...

--- Binary Information ---

/home/analyst/ir-alalysis/samples/malware/43c4fa8cb81a092e521ea181596dbdc8bb294274df1249d20d0ee8a597ac8c22.elf:	file format elf32-mips

Sections:
Idx Name          Size     VMA      Type

--- Disassembly (first 100 instructions) ---

/home/analyst/ir-alalysis/samples/malware/43c4fa8cb81a092e521ea181596dbdc8bb294274df1249d20d0ee8a597ac8c22.elf:	file format elf32-mips

--- Symbol Table (first 50 entries) ---

/home/analyst/ir-alalysis/samples/malware/43c4fa8cb81a092e521ea181596dbdc8bb294274df1249d20d0ee8a597ac8c22.elf:	file format elf32-mips

SYMBOL TABLE:

NOTE: For true binary-to-LLVM IR lifting, consider using:
  - mcsema: https://github.com/lifting-bits/mcsema
  - remill: https://github.com/lifting-bits/remill
  - rellic: https://github.com/lifting-bits/rellic

==========================================
LLVM analysis completed successfully
==========================================
LLVM analysis: SUCCESS
	Command being timed: "/home/analyst/ir-alalysis/scripts/analyze_llvm.sh /home/analyst/ir-alalysis/samples/malware/43c4fa8cb81a092e521ea181596dbdc8bb294274df1249d20d0ee8a597ac8c22.elf"
	User time (seconds): 0.03
	System time (seconds): 0.06
	Percent of CPU this job got: 96%
	Elapsed (wall clock) time (h:mm:ss or m:ss): 0:00.09
	Average shared text size (kbytes): 0
	Average unshared data size (kbytes): 0
	Average stack size (kbytes): 0
	Average total size (kbytes): 0
	Maximum resident set size (kbytes): 51072
	Average resident set size (kbytes): 0
	Major (requiring I/O) page faults: 0
	Minor (reclaiming a frame) page faults: 9937
	Voluntary context switches: 18
	Involuntary context switches: 33
	Swaps: 0
	File system inputs: 0
	File system outputs: 0
	Socket messages sent: 0
	Socket messages received: 0
	Signals delivered: 0
	Page size (bytes): 4096
	Exit status: 0

Completed: 43c4fa8cb81a092e521ea181596dbdc8bb294274df1249d20d0ee8a597ac8c22.elf

========================================
Processing sample 16: 4c3c48a9eb04126462dd2622cc80c8768c001009436ebed5f7bcc24ddfe6f157.elf
========================================

--- Ghidra P-code Analysis ---

Ghidra analysis: SUCCESS
==========================================
Ghidra Headless Analysis
==========================================
Binary:  /home/analyst/ir-alalysis/samples/malware/4c3c48a9eb04126462dd2622cc80c8768c001009436ebed5f7bcc24ddfe6f157.elf
Project: ghidra_analysis_4c3c48a9eb04126462dd2622cc80c8768c001009436ebed5f7bcc24ddfe6f157.elf_20251025_202042
Location: ./ghidra_projects
==========================================
INFO  Using log config file: jar:file:/home/analyst/ghidra/Ghidra/Framework/Generic/lib/Generic.jar!/generic.log4j.xml (LoggingInitialization)  
INFO  Using log file: /home/analyst/.config/ghidra/ghidra_11.4.2_PUBLIC/application.log (LoggingInitialization)  
INFO  Loading user preferences: /home/analyst/.config/ghidra/ghidra_11.4.2_PUBLIC/preferences (Preferences)  
INFO  Searching for classes... (ClassSearcher)  
INFO  Class search complete (1251 ms) (ClassSearcher)  
INFO  Initializing SSL Context (SSLContextInitializer)  
INFO  Initializing Random Number Generator... (SecureRandomFactory)  
INFO  Random Number Generator initialization complete: NativePRNGNonBlocking (SecureRandomFactory)  
INFO  Trust manager disabled, cacerts have not been set (ApplicationTrustManagerFactory)  
INFO  Headless startup complete (4002 ms) (AnalyzeHeadless)  
INFO  Class searcher loaded 58 extension points (18 false positives) (ClassSearcher)  
INFO  HEADLESS Script Paths:
    /home/analyst/ghidra/Ghidra/Features/GnuDemangler/ghidra_scripts
    /home/analyst/ghidra/Ghidra/Features/BytePatterns/ghidra_scripts
    /home/analyst/ghidra/Ghidra/Features/SystemEmulation/ghidra_scripts
    /home/analyst/ghidra/Ghidra/Processors/DATA/ghidra_scripts
    /home/analyst/ghidra/Ghidra/Features/PyGhidra/ghidra_scripts
    /home/analyst/ghidra/Ghidra/Features/MicrosoftCodeAnalyzer/ghidra_scripts
    /home/analyst/ghidra/Ghidra/Features/Base/ghidra_scripts
    /home/analyst/ghidra/Ghidra/Features/Jython/ghidra_scripts
    /home/analyst/ghidra/Ghidra/Features/VersionTracking/ghidra_scripts
    /home/analyst/ghidra/Ghidra/Features/PDB/ghidra_scripts
    /home/analyst/ghidra/Ghidra/Processors/Atmel/ghidra_scripts
    /home/analyst/ghidra/Ghidra/Debug/Debugger-rmi-trace/ghidra_scripts
    /home/analyst/ghidra/Ghidra/Features/FileFormats/ghidra_scripts
    /home/analyst/ghidra/Ghidra/Processors/JVM/ghidra_scripts
    /home/analyst/ghidra/Ghidra/Debug/Debugger/ghidra_scripts
    /home/analyst/ghidra/Ghidra/Processors/PIC/ghidra_scripts
    /home/analyst/ghidra/Ghidra/Features/WildcardAssembler/ghidra_scripts
    /home/analyst/ghidra/Ghidra/Processors/8051/ghidra_scripts
    /home/analyst/ghidra/Ghidra/Features/Decompiler/ghidra_scripts
    /home/analyst/ghidra/Ghidra/Features/DecompilerDependent/ghidra_scripts
    /home/analyst/ghidra/Ghidra/Features/FunctionID/ghidra_scripts
    /home/analyst/ghidra/Ghidra/Features/SwiftDemangler/ghidra_scripts
    /home/analyst/ghidra/Ghidra/Features/BSim/ghidra_scripts (HeadlessAnalyzer)  
INFO  HEADLESS: execution starts (HeadlessAnalyzer)  
INFO  Creating temporary project: /home/analyst/ir-alalysis/./ghidra_projects/ghidra_analysis_4c3c48a9eb04126462dd2622cc80c8768c001009436ebed5f7bcc24ddfe6f157.elf_20251025_202042 (HeadlessAnalyzer)  
INFO  Creating project: /home/analyst/ir-alalysis/./ghidra_projects/ghidra_analysis_4c3c48a9eb04126462dd2622cc80c8768c001009436ebed5f7bcc24ddfe6f157.elf_20251025_202042 (DefaultProject)  
INFO  REPORT: Processing input files:  (HeadlessAnalyzer)  
INFO       project: /home/analyst/ir-alalysis/./ghidra_projects/ghidra_analysis_4c3c48a9eb04126462dd2622cc80c8768c001009436ebed5f7bcc24ddfe6f157.elf_20251025_202042 (HeadlessAnalyzer)  
INFO  IMPORTING: file:///home/analyst/ir-alalysis/samples/malware/4c3c48a9eb04126462dd2622cc80c8768c001009436ebed5f7bcc24ddfe6f157.elf (HeadlessAnalyzer)  
INFO  Using Loader: Executable and Linking Format (ELF) (AutoImporter)  
INFO  Using Language/Compiler: 68000:BE:32:Coldfire:default (AutoImporter)  
INFO  Using Library Search Path: [., /bin, /lib, /lib64, /lib/x86_64-linux-gnu, /lib/aarch64-linux-gnu, /usr/bin, /usr/lib, /usr/X11R6/bin, /usr/X11R6/lib, /usr/java/packages/lib, /usr/lib/x86_64-linux-gnu/jni, /usr/lib/x86_64-linux-gnu, /usr/lib/jni] (AutoImporter)  
INFO  Additional info:
Loading file:///home/analyst/ir-alalysis/samples/malware/4c3c48a9eb04126462dd2622cc80c8768c001009436ebed5f7bcc24ddfe6f157.elf?MD5=979c3a202ab58ac86c6f1756d6766098...
------------------------------------------------

 (AutoImporter)  
INFO  IMPORTING: Loaded 0 additional files (HeadlessAnalyzer)  
INFO  ANALYZING all memory and code: file:///home/analyst/ir-alalysis/samples/malware/4c3c48a9eb04126462dd2622cc80c8768c001009436ebed5f7bcc24ddfe6f157.elf (HeadlessAnalyzer)  
ERROR REPORT: Analysis timed out at 0 seconds. Processing not completed for file: file:///home/analyst/ir-alalysis/samples/malware/4c3c48a9eb04126462dd2622cc80c8768c001009436ebed5f7bcc24ddfe6f157.elf (HeadlessAnalyzer)  
INFO  SCRIPT: /home/analyst/ir-alalysis/scripts/get_cfg_stats.py (HeadlessAnalyzer)  
GHIDRA_STATS:Functions=1
GHIDRA_STATS:BasicBlocks=0
GHIDRA_STATS:TotalPcodeOps=0
INFO  ANALYZING changes made by post scripts: file:///home/analyst/ir-alalysis/samples/malware/4c3c48a9eb04126462dd2622cc80c8768c001009436ebed5f7bcc24ddfe6f157.elf (HeadlessAnalyzer)  
INFO  REPORT: Post-analysis succeeded for file: file:///home/analyst/ir-alalysis/samples/malware/4c3c48a9eb04126462dd2622cc80c8768c001009436ebed5f7bcc24ddfe6f157.elf (HeadlessAnalyzer)  
INFO  REPORT: Save succeeded for: /4c3c48a9eb04126462dd2622cc80c8768c001009436ebed5f7bcc24ddfe6f157.elf (ghidra_analysis_4c3c48a9eb04126462dd2622cc80c8768c001009436ebed5f7bcc24ddfe6f157.elf_20251025_202042:/4c3c48a9eb04126462dd2622cc80c8768c001009436ebed5f7bcc24ddfe6f157.elf) (HeadlessAnalyzer)  
INFO  REPORT: Import succeeded (HeadlessAnalyzer)  
==========================================
Ghidra analysis completed successfully
==========================================

Ghidra CFG Stats:
GHIDRA_STATS:Functions=1
GHIDRA_STATS:BasicBlocks=0
GHIDRA_STATS:TotalPcodeOps=0

Ghidra Performance:
	Elapsed (wall clock) time (h:mm:ss or m:ss): 0:14.18
	Maximum resident set size (kbytes): 692144

--- angr VEX IR Analysis ---

angr analysis: SUCCESS
==================================================
angr VEX IR Analysis
==================================================
Binary: /home/analyst/ir-alalysis/samples/malware/4c3c48a9eb04126462dd2622cc80c8768c001009436ebed5f7bcc24ddfe6f157.elf
==================================================
Loading binary with angr...
Architecture: 68000:BE:32:default
Entry point: 0x80000144
Binary base address: 0x80000000

Generating CFG with angr...
Functions discovered: 348
Basic blocks (CFG nodes): 5428
CFG edges: 10792

Counting VEX IR statements...
Total VEX statements: 0

--- angr CFG & IR Stats ---
ANGR_STATS:Functions=348
ANGR_STATS:Nodes=5428
ANGR_STATS:Edges=10792
ANGR_STATS:TotalVexStatements=0
---------------------------

Sample functions (first 10):
  - LinuxLoader @ 0x0
  - UnresolvableJumpTarget @ 0x4c
  - UnresolvableCallTarget @ 0x50
  - sub_80000094 @ 0x80000094
  - sub_800000a8 @ 0x800000a8
  - sub_800000f6 @ 0x800000f6
  - sub_800000fe @ 0x800000fe
  - sub_8000013c @ 0x8000013c
  - _start @ 0x80000144
  - sub_8000016c @ 0x8000016c
==================================================
angr analysis completed successfully
==================================================

angr CFG Stats:
ANGR_STATS:Functions=348
ANGR_STATS:Nodes=5428
ANGR_STATS:Edges=10792
ANGR_STATS:TotalVexStatements=0

angr Performance:
	Elapsed (wall clock) time (h:mm:ss or m:ss): 0:07.83
	Maximum resident set size (kbytes): 287664

--- LLVM IR Analysis ---

==========================================
LLVM IR Analysis
==========================================
Binary:  /home/analyst/ir-alalysis/samples/malware/4c3c48a9eb04126462dd2622cc80c8768c001009436ebed5f7bcc24ddfe6f157.elf
==========================================

Detected native binary (not LLVM bitcode)
Performing LLVM-based binary analysis...

--- Binary Information ---

/home/analyst/ir-alalysis/samples/malware/4c3c48a9eb04126462dd2622cc80c8768c001009436ebed5f7bcc24ddfe6f157.elf:	file format elf32-m68k

Sections:
Idx Name          Size     VMA      Type
  0               00000000 00000000 
  1 .init         00000014 80000094 TEXT
  2 .text         000151fa 800000a8 TEXT
  3 .fini         0000000e 800152a2 TEXT
  4 .rodata       000030d9 800152b0 DATA
  5 .ctors        00000008 8001a390 DATA
  6 .dtors        00000008 8001a398 DATA
  7 .data         000003fc 8001a3a4 DATA
  8 .bss          00002638 8001a7a0 BSS
  9 .shstrtab     0000003e 00000000 

--- Disassembly (first 100 instructions) ---

/home/analyst/ir-alalysis/samples/malware/4c3c48a9eb04126462dd2622cc80c8768c001009436ebed5f7bcc24ddfe6f157.elf:	file format elf32-m68k

Disassembly of section .init:

80000094 <.init>:
80000094: 4e           	<unknown>
80000095: 56           	<unknown>
80000096: 00           	<unknown>
80000097: 00           	<unknown>
80000098: 61           	<unknown>
80000099: ff           	<unknown>
8000009a: 00           	<unknown>
8000009b: 00           	<unknown>
8000009c: 00           	<unknown>
8000009d: 64 61        	bcc	$61
8000009f: ff 00        	<unknown>
800000a1: 01 51        	<unknown>
800000a3: d0 4e        	add.w	%a6, %d0
800000a5: 5e 4e        	<unknown>
800000a7: 75 4e        	<unknown>

Disassembly of section .text:

800000a8 <.text>:
800000a8: 4e           	<unknown>
800000a9: 56           	<unknown>
800000aa: 00           	<unknown>
800000ab: 00           	<unknown>
800000ac: 4a           	<unknown>
800000ad: 39           	<unknown>
800000ae: 80 01        	or.b	%d1, %d0
800000b0: a7 a0        	<unknown>
800000b2: 66 3e        	bne	$3e
800000b4: 22 79 80 01 a3 a8    	move.l	$a3a88001, %a1
800000ba: 20 51        	move.l	(%a1), %a0
800000bc: 4a 88        	<unknown>
800000be: 67 16        	beq	$16
800000c0: 58 89        	<unknown>
800000c2: 23 c9 80 01 a3 a8    	move.l	%a1, $a3a88001
800000c8: 4e 90        	jsr	(%a0)
800000ca: 22 79 80 01 a3 a8    	move.l	$a3a88001, %a1
800000d0: 20 51        	move.l	(%a1), %a0
800000d2: 4a 88        	<unknown>
800000d4: 66 ea        	bne	$ea
800000d6: 41 f9 00 00 00 00    	lea	$0, %a0
800000dc: 4a 88 67 0a 48 79    	<unknown>
800000e2: 80 01        	or.b	%d1, %d0
800000e4: 83 8c        	<unknown>
800000e6: 4e 90        	jsr	(%a0)
800000e8: 58 8f        	<unknown>
800000ea: 13 fc 00 01 80 01 a7 a0      	move.b	#1, $a7a08001
800000f2: 4e 5e 4e 75 4e 56 00 00      	<unknown>
800000fa: 4e 5e 4e 75 4e 56 00 00      	<unknown>
80000102: 41 f9 00 00 00 00    	lea	$0, %a0
80000108: 4a 88 67 10 48 79    	<unknown>
8000010e: 80 01        	or.b	%d1, %d0
80000110: a7 a2        	<unknown>
80000112: 48 79        	<unknown>
80000114: 80 01        	or.b	%d1, %d0
80000116: 83 8c        	<unknown>
80000118: 4e 90        	jsr	(%a0)
8000011a: 50 8f        	<unknown>
8000011c: 4a b9        	<unknown>
8000011e: 80 01        	or.b	%d1, %d0
80000120: a3 a0        	<unknown>
80000122: 67 14        	beq	$14
80000124: 41 f9 00 00 00 00    	lea	$0, %a0
8000012a: 4a 88 67 0a 48 79    	<unknown>
80000130: 80 01        	or.b	%d1, %d0
80000132: a3 a0        	<unknown>
80000134: 4e 90        	jsr	(%a0)
80000136: 58 8f        	<unknown>
80000138: 4e 5e        	<unknown>
8000013a: 4e 75        	rts
8000013c: 4e 56        	<unknown>
8000013e: 00 00        	<unknown>
80000140: 4e 5e        	<unknown>
80000142: 4e 75        	rts
80000144: 9d ce        	suba.l	%a6, %a6
80000146: 20 1f        	move.l	(%sp)+, %d0
80000148: 20 4f        	move.l	%sp, %a0
8000014a: 48 57        	<unknown>
8000014c: 48 51        	<unknown>
8000014e: 48 79        	<unknown>
80000150: 80 01        	or.b	%d1, %d0
80000152: 52 a2        	<unknown>
80000154: 48 79        	<unknown>
80000156: 80 00        	or.b	%d0, %d0
80000158: 00 94 48 50 2f 00    	or.l	#788547664, (%a4)
8000015e: 48 79 80 00 67 f4    	<unknown>
80000164: 4e b9 80 01 00 76    	jsr	$768001
8000016a: 4a fc 4f ef ae a0    	<unknown>
80000170: 48 e7 3f 3e 2c 6f    	<unknown>
80000176: 51 94 24 2f 51 9c    	<unknown>
8000017c: 1f 6f 51 93 00 4b    	move.b	(20883,%sp), (75,%sp)
80000182: 42 83 16 2f 51 9b    	<unknown>
80000188: 42 a7 48 78 00 15    	<unknown>
8000018e: 2f 02        	move.l	%d2, -(%sp)
80000190: 2f 03        	move.l	%d3, -(%sp)
80000192: 45 f9 80 00 20 78    	lea	$20788000, %a2
80000198: 4e 92        	jsr	(%a2)
8000019a: 2f 48 00 60  	move.l	%a0, (96,%sp)
8000019e: 48 79 80 01  	<unknown>
800001a2: 52 b0 48 78  	<unknown>
800001a6: 00 14 2f 02  	or.b	#12034, (%a4)
800001aa: 2f 03        	move.l	%d3, -(%sp)
800001ac: 4e 92        	jsr	(%a2)
800001ae: 2e 08        	move.l	%a0, %d7
800001b0: 4f ef 00 1c  	lea	(28,%sp), %sp
800001b4: 42 97 48 78  	<unknown>
800001b8: 00 08 2f 02  	<unknown>
800001bc: 2f 03        	move.l	%d3, -(%sp)
800001be: 4e 92        	jsr	(%a2)
800001c0: 2c 08        	move.l	%a0, %d6
800001c2: 48 79        	<unknown>
800001c4: 80 01        	or.b	%d1, %d0
800001c6: 6e 61        	bgt	$61
800001c8: 48 78        	<unknown>
800001ca: 00 16 2f 02  	or.b	#12034, (%a6)
800001ce: 2f 03        	move.l	%d3, -(%sp)
800001d0: 4e 92        	jsr	(%a2)
800001d2: 2a 08        	move.l	%a0, %d5
800001d4: 4f ef 00 1c  	lea	(28,%sp), %sp
800001d8: 2e bc 00 00 00 01    	move.l	#65536, (%sp)
800001de: 48 78 00 18 2f 02    	<unknown>
800001e4: 2f 03        	move.l	%d3, -(%sp)
800001e6: 45 f9 80 00 23 ee    	lea	$23ee8000, %a2
800001ec: 4e 92        	jsr	(%a2)
800001ee: 28 00        	move.l	%d0, %d4
800001f0: 48 78        	<unknown>
800001f2: 00 50 48 78  	or.w	#18552, (%a0)
800001f6: 00 07 2f 02  	<unknown>
800001fa: 2f 03        	move.l	%d3, -(%sp)
800001fc: 4e 92        	jsr	(%a2)
800001fe: 3f 40 00 74  	move.w	%d0, (116,%sp)
80000202: 4f ef 00 1c  	lea	(28,%sp), %sp
80000206: 2e bc 00 00 28 01    	move.l	#671154176, (%sp)
8000020c: 42 a7 48 6f 00 6f    	<unknown>
80000212: 61 ff 00 00 cc b4    	<unknown>
80000218: 4f ef 00 0c  	lea	(12,%sp), %sp
8000021c: 4a 86 67 00  	<unknown>
80000220: 1e 4e 4a 85  	<unknown>
80000224: 67 00 1e 48  	beq	$1e48
80000228: 2f 05        	move.l	%d5, -(%sp)
8000022a: 61 ff        	<unknown>
8000022c: 00 00        	<unknown>
8000022e: 8d 10        	or.b	%d6, (%a0)
80000230: 58 8f        	<unknown>
80000232: 0c 80 00 00 00 ff    	cmpi.l	#16711680, %d0

--- Symbol Table (first 50 entries) ---

/home/analyst/ir-alalysis/samples/malware/4c3c48a9eb04126462dd2622cc80c8768c001009436ebed5f7bcc24ddfe6f157.elf:	file format elf32-m68k

SYMBOL TABLE:

NOTE: For true binary-to-LLVM IR lifting, consider using:
  - mcsema: https://github.com/lifting-bits/mcsema
  - remill: https://github.com/lifting-bits/remill
  - rellic: https://github.com/lifting-bits/rellic

==========================================
LLVM analysis completed successfully
==========================================
LLVM analysis: SUCCESS
	Command being timed: "/home/analyst/ir-alalysis/scripts/analyze_llvm.sh /home/analyst/ir-alalysis/samples/malware/4c3c48a9eb04126462dd2622cc80c8768c001009436ebed5f7bcc24ddfe6f157.elf"
	User time (seconds): 0.03
	System time (seconds): 0.07
	Percent of CPU this job got: 59%
	Elapsed (wall clock) time (h:mm:ss or m:ss): 0:00.17
	Average shared text size (kbytes): 0
	Average unshared data size (kbytes): 0
	Average stack size (kbytes): 0
	Average total size (kbytes): 0
	Maximum resident set size (kbytes): 51584
	Average resident set size (kbytes): 0
	Major (requiring I/O) page faults: 0
	Minor (reclaiming a frame) page faults: 11280
	Voluntary context switches: 102
	Involuntary context switches: 163
	Swaps: 0
	File system inputs: 760
	File system outputs: 8
	Socket messages sent: 0
	Socket messages received: 0
	Signals delivered: 0
	Page size (bytes): 4096
	Exit status: 0

Completed: 4c3c48a9eb04126462dd2622cc80c8768c001009436ebed5f7bcc24ddfe6f157.elf

========================================
Processing sample 17: 4e5ba156c453eb9d8f530d4fa179697cb7be57008b5896201e04cf4848718a9d.elf
========================================

--- Ghidra P-code Analysis ---

Ghidra analysis: SUCCESS
==========================================
Ghidra Headless Analysis
==========================================
Binary:  /home/analyst/ir-alalysis/samples/malware/4e5ba156c453eb9d8f530d4fa179697cb7be57008b5896201e04cf4848718a9d.elf
Project: ghidra_analysis_4e5ba156c453eb9d8f530d4fa179697cb7be57008b5896201e04cf4848718a9d.elf_20251025_202104
Location: ./ghidra_projects
==========================================
INFO  Using log config file: jar:file:/home/analyst/ghidra/Ghidra/Framework/Generic/lib/Generic.jar!/generic.log4j.xml (LoggingInitialization)  
INFO  Using log file: /home/analyst/.config/ghidra/ghidra_11.4.2_PUBLIC/application.log (LoggingInitialization)  
INFO  Loading user preferences: /home/analyst/.config/ghidra/ghidra_11.4.2_PUBLIC/preferences (Preferences)  
INFO  Searching for classes... (ClassSearcher)  
INFO  Class search complete (1060 ms) (ClassSearcher)  
INFO  Initializing SSL Context (SSLContextInitializer)  
INFO  Initializing Random Number Generator... (SecureRandomFactory)  
INFO  Random Number Generator initialization complete: NativePRNGNonBlocking (SecureRandomFactory)  
INFO  Trust manager disabled, cacerts have not been set (ApplicationTrustManagerFactory)  
INFO  Headless startup complete (3443 ms) (AnalyzeHeadless)  
INFO  Class searcher loaded 58 extension points (18 false positives) (ClassSearcher)  
INFO  HEADLESS Script Paths:
    /home/analyst/ghidra/Ghidra/Features/GnuDemangler/ghidra_scripts
    /home/analyst/ghidra/Ghidra/Features/BytePatterns/ghidra_scripts
    /home/analyst/ghidra/Ghidra/Features/SystemEmulation/ghidra_scripts
    /home/analyst/ghidra/Ghidra/Processors/DATA/ghidra_scripts
    /home/analyst/ghidra/Ghidra/Features/PyGhidra/ghidra_scripts
    /home/analyst/ghidra/Ghidra/Features/MicrosoftCodeAnalyzer/ghidra_scripts
    /home/analyst/ghidra/Ghidra/Features/Base/ghidra_scripts
    /home/analyst/ghidra/Ghidra/Features/Jython/ghidra_scripts
    /home/analyst/ghidra/Ghidra/Features/VersionTracking/ghidra_scripts
    /home/analyst/ghidra/Ghidra/Features/PDB/ghidra_scripts
    /home/analyst/ghidra/Ghidra/Processors/Atmel/ghidra_scripts
    /home/analyst/ghidra/Ghidra/Debug/Debugger-rmi-trace/ghidra_scripts
    /home/analyst/ghidra/Ghidra/Features/FileFormats/ghidra_scripts
    /home/analyst/ghidra/Ghidra/Processors/JVM/ghidra_scripts
    /home/analyst/ghidra/Ghidra/Debug/Debugger/ghidra_scripts
    /home/analyst/ghidra/Ghidra/Processors/PIC/ghidra_scripts
    /home/analyst/ghidra/Ghidra/Features/WildcardAssembler/ghidra_scripts
    /home/analyst/ghidra/Ghidra/Processors/8051/ghidra_scripts
    /home/analyst/ghidra/Ghidra/Features/Decompiler/ghidra_scripts
    /home/analyst/ghidra/Ghidra/Features/DecompilerDependent/ghidra_scripts
    /home/analyst/ghidra/Ghidra/Features/FunctionID/ghidra_scripts
    /home/analyst/ghidra/Ghidra/Features/SwiftDemangler/ghidra_scripts
    /home/analyst/ghidra/Ghidra/Features/BSim/ghidra_scripts (HeadlessAnalyzer)  
INFO  HEADLESS: execution starts (HeadlessAnalyzer)  
INFO  Creating temporary project: /home/analyst/ir-alalysis/./ghidra_projects/ghidra_analysis_4e5ba156c453eb9d8f530d4fa179697cb7be57008b5896201e04cf4848718a9d.elf_20251025_202104 (HeadlessAnalyzer)  
INFO  Creating project: /home/analyst/ir-alalysis/./ghidra_projects/ghidra_analysis_4e5ba156c453eb9d8f530d4fa179697cb7be57008b5896201e04cf4848718a9d.elf_20251025_202104 (DefaultProject)  
INFO  REPORT: Processing input files:  (HeadlessAnalyzer)  
INFO       project: /home/analyst/ir-alalysis/./ghidra_projects/ghidra_analysis_4e5ba156c453eb9d8f530d4fa179697cb7be57008b5896201e04cf4848718a9d.elf_20251025_202104 (HeadlessAnalyzer)  
INFO  IMPORTING: file:///home/analyst/ir-alalysis/samples/malware/4e5ba156c453eb9d8f530d4fa179697cb7be57008b5896201e04cf4848718a9d.elf (HeadlessAnalyzer)  
INFO  Using Loader: Executable and Linking Format (ELF) (AutoImporter)  
INFO  Using Language/Compiler: ARM:LE:32:v8:default (AutoImporter)  
INFO  Using Library Search Path: [., /bin, /lib, /lib64, /lib/x86_64-linux-gnu, /lib/aarch64-linux-gnu, /usr/bin, /usr/lib, /usr/X11R6/bin, /usr/X11R6/lib, /usr/java/packages/lib, /usr/lib/x86_64-linux-gnu/jni, /usr/lib/x86_64-linux-gnu, /usr/lib/jni] (AutoImporter)  
INFO  Additional info:
Loading file:///home/analyst/ir-alalysis/samples/malware/4e5ba156c453eb9d8f530d4fa179697cb7be57008b5896201e04cf4848718a9d.elf?MD5=e8807253415e49186d5e014f08b39e00...
Skipping zero-length segment [1,Loadable segment] at address ram:0001def8
------------------------------------------------

 (AutoImporter)  
INFO  IMPORTING: Loaded 0 additional files (HeadlessAnalyzer)  
INFO  ANALYZING all memory and code: file:///home/analyst/ir-alalysis/samples/malware/4e5ba156c453eb9d8f530d4fa179697cb7be57008b5896201e04cf4848718a9d.elf (HeadlessAnalyzer)  
ERROR REPORT: Analysis timed out at 0 seconds. Processing not completed for file: file:///home/analyst/ir-alalysis/samples/malware/4e5ba156c453eb9d8f530d4fa179697cb7be57008b5896201e04cf4848718a9d.elf (HeadlessAnalyzer)  
INFO  SCRIPT: /home/analyst/ir-alalysis/scripts/get_cfg_stats.py (HeadlessAnalyzer)  
GHIDRA_STATS:Functions=1
GHIDRA_STATS:BasicBlocks=0
GHIDRA_STATS:TotalPcodeOps=0
INFO  ANALYZING changes made by post scripts: file:///home/analyst/ir-alalysis/samples/malware/4e5ba156c453eb9d8f530d4fa179697cb7be57008b5896201e04cf4848718a9d.elf (HeadlessAnalyzer)  
INFO  REPORT: Post-analysis succeeded for file: file:///home/analyst/ir-alalysis/samples/malware/4e5ba156c453eb9d8f530d4fa179697cb7be57008b5896201e04cf4848718a9d.elf (HeadlessAnalyzer)  
INFO  REPORT: Save succeeded for: /4e5ba156c453eb9d8f530d4fa179697cb7be57008b5896201e04cf4848718a9d.elf (ghidra_analysis_4e5ba156c453eb9d8f530d4fa179697cb7be57008b5896201e04cf4848718a9d.elf_20251025_202104:/4e5ba156c453eb9d8f530d4fa179697cb7be57008b5896201e04cf4848718a9d.elf) (HeadlessAnalyzer)  
INFO  REPORT: Import succeeded (HeadlessAnalyzer)  
==========================================
Ghidra analysis completed successfully
==========================================

Ghidra CFG Stats:
GHIDRA_STATS:Functions=1
GHIDRA_STATS:BasicBlocks=0
GHIDRA_STATS:TotalPcodeOps=0

Ghidra Performance:
	Elapsed (wall clock) time (h:mm:ss or m:ss): 0:20.22
	Maximum resident set size (kbytes): 633296

--- angr VEX IR Analysis ---

angr analysis: SUCCESS
==================================================
angr VEX IR Analysis
==================================================
Binary: /home/analyst/ir-alalysis/samples/malware/4e5ba156c453eb9d8f530d4fa179697cb7be57008b5896201e04cf4848718a9d.elf
==================================================
Loading binary with angr...
Architecture: ARMEL
Entry point: 0xcf90
Binary base address: 0x8000

Generating CFG with angr...
Functions discovered: 181
Basic blocks (CFG nodes): 244
CFG edges: 80

Counting VEX IR statements...
Total VEX statements: 8283

--- angr CFG & IR Stats ---
ANGR_STATS:Functions=181
ANGR_STATS:Nodes=244
ANGR_STATS:Edges=80
ANGR_STATS:TotalVexStatements=8283
---------------------------

Sample functions (first 10):
  - sub_8000 @ 0x8000
  - sub_805f @ 0x805f
  - sub_806c @ 0x806c
  - sub_80c3 @ 0x80c3
  - sub_80d1 @ 0x80d1
  - sub_80dc @ 0x80dc
  - sub_80eb @ 0x80eb
  - sub_80f8 @ 0x80f8
  - sub_810d @ 0x810d
  - sub_8119 @ 0x8119
==================================================
angr analysis completed successfully
==================================================

angr CFG Stats:
ANGR_STATS:Functions=181
ANGR_STATS:Nodes=244
ANGR_STATS:Edges=80
ANGR_STATS:TotalVexStatements=8283

angr Performance:
	Elapsed (wall clock) time (h:mm:ss or m:ss): 0:04.40
	Maximum resident set size (kbytes): 132568

--- LLVM IR Analysis ---

==========================================
LLVM IR Analysis
==========================================
Binary:  /home/analyst/ir-alalysis/samples/malware/4e5ba156c453eb9d8f530d4fa179697cb7be57008b5896201e04cf4848718a9d.elf
==========================================

Detected native binary (not LLVM bitcode)
Performing LLVM-based binary analysis...

--- Binary Information ---

/home/analyst/ir-alalysis/samples/malware/4e5ba156c453eb9d8f530d4fa179697cb7be57008b5896201e04cf4848718a9d.elf:	file format elf32-littlearm

Sections:
Idx Name          Size     VMA      Type

--- Disassembly (first 100 instructions) ---

/home/analyst/ir-alalysis/samples/malware/4e5ba156c453eb9d8f530d4fa179697cb7be57008b5896201e04cf4848718a9d.elf:	file format elf32-littlearm

--- Symbol Table (first 50 entries) ---

/home/analyst/ir-alalysis/samples/malware/4e5ba156c453eb9d8f530d4fa179697cb7be57008b5896201e04cf4848718a9d.elf:	file format elf32-littlearm

SYMBOL TABLE:

NOTE: For true binary-to-LLVM IR lifting, consider using:
  - mcsema: https://github.com/lifting-bits/mcsema
  - remill: https://github.com/lifting-bits/remill
  - rellic: https://github.com/lifting-bits/rellic

==========================================
LLVM analysis completed successfully
==========================================
LLVM analysis: SUCCESS
	Command being timed: "/home/analyst/ir-alalysis/scripts/analyze_llvm.sh /home/analyst/ir-alalysis/samples/malware/4e5ba156c453eb9d8f530d4fa179697cb7be57008b5896201e04cf4848718a9d.elf"
	User time (seconds): 0.03
	System time (seconds): 0.06
	Percent of CPU this job got: 93%
	Elapsed (wall clock) time (h:mm:ss or m:ss): 0:00.10
	Average shared text size (kbytes): 0
	Average unshared data size (kbytes): 0
	Average stack size (kbytes): 0
	Average total size (kbytes): 0
	Maximum resident set size (kbytes): 51072
	Average resident set size (kbytes): 0
	Major (requiring I/O) page faults: 0
	Minor (reclaiming a frame) page faults: 9933
	Voluntary context switches: 20
	Involuntary context switches: 73
	Swaps: 0
	File system inputs: 0
	File system outputs: 8
	Socket messages sent: 0
	Socket messages received: 0
	Signals delivered: 0
	Page size (bytes): 4096
	Exit status: 0

Completed: 4e5ba156c453eb9d8f530d4fa179697cb7be57008b5896201e04cf4848718a9d.elf

========================================
Processing sample 18: 511b25ed223e2c3d10fdace548405b886e3b958df125802ef7eb108caef84280.elf
========================================

--- Ghidra P-code Analysis ---

Ghidra analysis: SUCCESS
==========================================
Ghidra Headless Analysis
==========================================
Binary:  /home/analyst/ir-alalysis/samples/malware/511b25ed223e2c3d10fdace548405b886e3b958df125802ef7eb108caef84280.elf
Project: ghidra_analysis_511b25ed223e2c3d10fdace548405b886e3b958df125802ef7eb108caef84280.elf_20251025_202129
Location: ./ghidra_projects
==========================================
INFO  Using log config file: jar:file:/home/analyst/ghidra/Ghidra/Framework/Generic/lib/Generic.jar!/generic.log4j.xml (LoggingInitialization)  
INFO  Using log file: /home/analyst/.config/ghidra/ghidra_11.4.2_PUBLIC/application.log (LoggingInitialization)  
INFO  Loading user preferences: /home/analyst/.config/ghidra/ghidra_11.4.2_PUBLIC/preferences (Preferences)  
INFO  Searching for classes... (ClassSearcher)  
INFO  Class search complete (1304 ms) (ClassSearcher)  
INFO  Initializing SSL Context (SSLContextInitializer)  
INFO  Initializing Random Number Generator... (SecureRandomFactory)  
INFO  Random Number Generator initialization complete: NativePRNGNonBlocking (SecureRandomFactory)  
INFO  Trust manager disabled, cacerts have not been set (ApplicationTrustManagerFactory)  
INFO  Headless startup complete (3776 ms) (AnalyzeHeadless)  
INFO  Class searcher loaded 58 extension points (18 false positives) (ClassSearcher)  
INFO  HEADLESS Script Paths:
    /home/analyst/ghidra/Ghidra/Features/GnuDemangler/ghidra_scripts
    /home/analyst/ghidra/Ghidra/Features/BytePatterns/ghidra_scripts
    /home/analyst/ghidra/Ghidra/Features/SystemEmulation/ghidra_scripts
    /home/analyst/ghidra/Ghidra/Processors/DATA/ghidra_scripts
    /home/analyst/ghidra/Ghidra/Features/PyGhidra/ghidra_scripts
    /home/analyst/ghidra/Ghidra/Features/MicrosoftCodeAnalyzer/ghidra_scripts
    /home/analyst/ghidra/Ghidra/Features/Base/ghidra_scripts
    /home/analyst/ghidra/Ghidra/Features/Jython/ghidra_scripts
    /home/analyst/ghidra/Ghidra/Features/VersionTracking/ghidra_scripts
    /home/analyst/ghidra/Ghidra/Features/PDB/ghidra_scripts
    /home/analyst/ghidra/Ghidra/Processors/Atmel/ghidra_scripts
    /home/analyst/ghidra/Ghidra/Debug/Debugger-rmi-trace/ghidra_scripts
    /home/analyst/ghidra/Ghidra/Features/FileFormats/ghidra_scripts
    /home/analyst/ghidra/Ghidra/Processors/JVM/ghidra_scripts
    /home/analyst/ghidra/Ghidra/Debug/Debugger/ghidra_scripts
    /home/analyst/ghidra/Ghidra/Processors/PIC/ghidra_scripts
    /home/analyst/ghidra/Ghidra/Features/WildcardAssembler/ghidra_scripts
    /home/analyst/ghidra/Ghidra/Processors/8051/ghidra_scripts
    /home/analyst/ghidra/Ghidra/Features/Decompiler/ghidra_scripts
    /home/analyst/ghidra/Ghidra/Features/DecompilerDependent/ghidra_scripts
    /home/analyst/ghidra/Ghidra/Features/FunctionID/ghidra_scripts
    /home/analyst/ghidra/Ghidra/Features/SwiftDemangler/ghidra_scripts
    /home/analyst/ghidra/Ghidra/Features/BSim/ghidra_scripts (HeadlessAnalyzer)  
INFO  HEADLESS: execution starts (HeadlessAnalyzer)  
INFO  Creating temporary project: /home/analyst/ir-alalysis/./ghidra_projects/ghidra_analysis_511b25ed223e2c3d10fdace548405b886e3b958df125802ef7eb108caef84280.elf_20251025_202129 (HeadlessAnalyzer)  
INFO  Creating project: /home/analyst/ir-alalysis/./ghidra_projects/ghidra_analysis_511b25ed223e2c3d10fdace548405b886e3b958df125802ef7eb108caef84280.elf_20251025_202129 (DefaultProject)  
INFO  REPORT: Processing input files:  (HeadlessAnalyzer)  
INFO       project: /home/analyst/ir-alalysis/./ghidra_projects/ghidra_analysis_511b25ed223e2c3d10fdace548405b886e3b958df125802ef7eb108caef84280.elf_20251025_202129 (HeadlessAnalyzer)  
INFO  IMPORTING: file:///home/analyst/ir-alalysis/samples/malware/511b25ed223e2c3d10fdace548405b886e3b958df125802ef7eb108caef84280.elf (HeadlessAnalyzer)  
INFO  Using Loader: Executable and Linking Format (ELF) (AutoImporter)  
INFO  Using Language/Compiler: ARM:LE:32:v8:default (AutoImporter)  
INFO  Using Library Search Path: [., /bin, /lib, /lib64, /lib/x86_64-linux-gnu, /lib/aarch64-linux-gnu, /usr/bin, /usr/lib, /usr/X11R6/bin, /usr/X11R6/lib, /usr/java/packages/lib, /usr/lib/x86_64-linux-gnu/jni, /usr/lib/x86_64-linux-gnu, /usr/lib/jni] (AutoImporter)  
INFO  Additional info:
Loading file:///home/analyst/ir-alalysis/samples/malware/511b25ed223e2c3d10fdace548405b886e3b958df125802ef7eb108caef84280.elf?MD5=3851ed77151606ce9ec844279e718f0c...
------------------------------------------------

 (AutoImporter)  
INFO  IMPORTING: Loaded 0 additional files (HeadlessAnalyzer)  
INFO  ANALYZING all memory and code: file:///home/analyst/ir-alalysis/samples/malware/511b25ed223e2c3d10fdace548405b886e3b958df125802ef7eb108caef84280.elf (HeadlessAnalyzer)  
ERROR REPORT: Analysis timed out at 0 seconds. Processing not completed for file: file:///home/analyst/ir-alalysis/samples/malware/511b25ed223e2c3d10fdace548405b886e3b958df125802ef7eb108caef84280.elf (HeadlessAnalyzer)  
INFO  SCRIPT: /home/analyst/ir-alalysis/scripts/get_cfg_stats.py (HeadlessAnalyzer)  
GHIDRA_STATS:Functions=1
GHIDRA_STATS:BasicBlocks=0
GHIDRA_STATS:TotalPcodeOps=0
INFO  ANALYZING changes made by post scripts: file:///home/analyst/ir-alalysis/samples/malware/511b25ed223e2c3d10fdace548405b886e3b958df125802ef7eb108caef84280.elf (HeadlessAnalyzer)  
INFO  REPORT: Post-analysis succeeded for file: file:///home/analyst/ir-alalysis/samples/malware/511b25ed223e2c3d10fdace548405b886e3b958df125802ef7eb108caef84280.elf (HeadlessAnalyzer)  
INFO  REPORT: Save succeeded for: /511b25ed223e2c3d10fdace548405b886e3b958df125802ef7eb108caef84280.elf (ghidra_analysis_511b25ed223e2c3d10fdace548405b886e3b958df125802ef7eb108caef84280.elf_20251025_202129:/511b25ed223e2c3d10fdace548405b886e3b958df125802ef7eb108caef84280.elf) (HeadlessAnalyzer)  
INFO  REPORT: Import succeeded (HeadlessAnalyzer)  
==========================================
Ghidra analysis completed successfully
==========================================

Ghidra CFG Stats:
GHIDRA_STATS:Functions=1
GHIDRA_STATS:BasicBlocks=0
GHIDRA_STATS:TotalPcodeOps=0

Ghidra Performance:
	Elapsed (wall clock) time (h:mm:ss or m:ss): 0:14.98
	Maximum resident set size (kbytes): 594476

--- angr VEX IR Analysis ---

angr analysis: SUCCESS
==================================================
angr VEX IR Analysis
==================================================
Binary: /home/analyst/ir-alalysis/samples/malware/511b25ed223e2c3d10fdace548405b886e3b958df125802ef7eb108caef84280.elf
==================================================
Loading binary with angr...
Architecture: ARMEL
Entry point: 0x8190
Binary base address: 0x8000

Generating CFG with angr...
Functions discovered: 343
Basic blocks (CFG nodes): 4654
CFG edges: 11619

Counting VEX IR statements...
Total VEX statements: 92873

--- angr CFG & IR Stats ---
ANGR_STATS:Functions=343
ANGR_STATS:Nodes=4654
ANGR_STATS:Edges=11619
ANGR_STATS:TotalVexStatements=92873
---------------------------

Sample functions (first 10):
  - sub_8094 @ 0x8094
  - sub_80b0 @ 0x80b0
  - sub_8128 @ 0x8128
  - sub_8130 @ 0x8130
  - sub_8188 @ 0x8188
  - _start @ 0x8190
  - sub_81bc @ 0x81bc
  - sub_81cc @ 0x81cc
  - sub_a164 @ 0xa164
  - sub_a1c8 @ 0xa1c8
==================================================
angr analysis completed successfully
==================================================

angr CFG Stats:
ANGR_STATS:Functions=343
ANGR_STATS:Nodes=4654
ANGR_STATS:Edges=11619
ANGR_STATS:TotalVexStatements=92873

angr Performance:
	Elapsed (wall clock) time (h:mm:ss or m:ss): 0:05.99
	Maximum resident set size (kbytes): 176936

--- LLVM IR Analysis ---

==========================================
LLVM IR Analysis
==========================================
Binary:  /home/analyst/ir-alalysis/samples/malware/511b25ed223e2c3d10fdace548405b886e3b958df125802ef7eb108caef84280.elf
==========================================

Detected native binary (not LLVM bitcode)
Performing LLVM-based binary analysis...

--- Binary Information ---

/home/analyst/ir-alalysis/samples/malware/511b25ed223e2c3d10fdace548405b886e3b958df125802ef7eb108caef84280.elf:	file format elf32-littlearm

Sections:
Idx Name          Size     VMA      Type
  0               00000000 00000000 
  1 .init         00000018 00008094 TEXT
  2 .text         0001394c 000080b0 TEXT
  3 .fini         00000014 0001b9fc TEXT
  4 .rodata       00003284 0001ba10 DATA
  5 .ctors        00000008 00027000 DATA
  6 .dtors        00000008 00027008 DATA
  7 .data         00000404 00027014 DATA
  8 .bss          00002658 00027418 BSS
  9 .shstrtab     0000003e 00000000 

--- Disassembly (first 100 instructions) ---

/home/analyst/ir-alalysis/samples/malware/511b25ed223e2c3d10fdace548405b886e3b958df125802ef7eb108caef84280.elf:	file format elf32-littlearm

Disassembly of section .init:

00008094 <.init>:
    8094: 0d c0 a0 e1  	mov	r12, sp
    8098: f0 df 2d e9  	push	{r4, r5, r6, r7, r8, r9, r10, r11, r12, lr, pc}
    809c: 04 b0 4c e2  	sub	r11, r12, #4
    80a0: 22 00 00 eb  	bl	0x8130                  @ imm = #136
    80a4: 45 4e 00 eb  	bl	0x1b9c0                 @ imm = #80148
    80a8: f0 af 1b e9  	ldmdb	r11, {r4, r5, r6, r7, r8, r9, r10, r11, sp, pc}

Disassembly of section .text:

000080b0 <.text>:
    80b0: 30 40 2d e9  	push	{r4, r5, lr}
    80b4: 5c 50 9f e5  	ldr	r5, [pc, #92]           @ 0x8118 <.text+0x68>
    80b8: 00 30 d5 e5  	ldrb	r3, [r5]
    80bc: 00 00 53 e3  	cmp	r3, #0
    80c0: 30 80 bd 18  	popne	{r4, r5, pc}
    80c4: 50 40 9f e5  	ldr	r4, [pc, #80]           @ 0x811c <.text+0x6c>
    80c8: 00 30 94 e5  	ldr	r3, [r4]
    80cc: 00 20 93 e5  	ldr	r2, [r3]
    80d0: 00 00 52 e3  	cmp	r2, #0
    80d4: 07 00 00 0a  	beq	0x80f8 <.text+0x48>     @ imm = #28
    80d8: 04 30 83 e2  	add	r3, r3, #4
    80dc: 00 30 84 e5  	str	r3, [r4]
    80e0: 0f e0 a0 e1  	mov	lr, pc
    80e4: 02 f0 a0 e1  	mov	pc, r2
    80e8: 00 30 94 e5  	ldr	r3, [r4]
    80ec: 00 20 93 e5  	ldr	r2, [r3]
    80f0: 00 00 52 e3  	cmp	r2, #0
    80f4: f7 ff ff 1a  	bne	0x80d8 <.text+0x28>     @ imm = #-36
    80f8: 20 30 9f e5  	ldr	r3, [pc, #32]           @ 0x8120 <.text+0x70>
    80fc: 00 00 53 e3  	cmp	r3, #0
    8100: 1c 00 9f 15  	ldrne	r0, [pc, #28]           @ 0x8124 <.text+0x74>
    8104: 0f e0 a0 11  	movne	lr, pc
    8108: 03 f0 a0 11  	movne	pc, r3
    810c: 01 30 a0 e3  	mov	r3, #1
    8110: 00 30 c5 e5  	strb	r3, [r5]
    8114: 30 80 bd e8  	pop	{r4, r5, pc}
    8118: 18 74 02 00  	andeq	r7, r2, r8, lsl r4
    811c: 1c 70 02 00  	andeq	r7, r2, r12, lsl r0
    8120: 00 00 00 00  	andeq	r0, r0, r0
    8124: 94 ec 01 00  	<unknown>
    8128: 04 e0 2d e5  	str	lr, [sp, #-4]!
    812c: 04 f0 9d e4  	ldr	pc, [sp], #4
    8130: 3c 30 9f e5  	ldr	r3, [pc, #60]           @ 0x8174 <.text+0xc4>
    8134: 00 00 53 e3  	cmp	r3, #0
    8138: 04 e0 2d e5  	str	lr, [sp, #-4]!
    813c: 34 00 9f e5  	ldr	r0, [pc, #52]           @ 0x8178 <.text+0xc8>
    8140: 34 10 9f e5  	ldr	r1, [pc, #52]           @ 0x817c <.text+0xcc>
    8144: 0f e0 a0 11  	movne	lr, pc
    8148: 03 f0 a0 11  	movne	pc, r3
    814c: 2c 00 9f e5  	ldr	r0, [pc, #44]           @ 0x8180 <.text+0xd0>
    8150: 00 30 90 e5  	ldr	r3, [r0]
    8154: 00 00 53 e3  	cmp	r3, #0
    8158: 24 30 9f e5  	ldr	r3, [pc, #36]           @ 0x8184 <.text+0xd4>
    815c: 04 f0 9d 04  	ldreq	pc, [sp], #4
    8160: 00 00 53 e3  	cmp	r3, #0
    8164: 04 f0 9d 04  	ldreq	pc, [sp], #4
    8168: 0f e0 a0 e1  	mov	lr, pc
    816c: 03 f0 a0 e1  	mov	pc, r3
    8170: 04 f0 9d e4  	ldr	pc, [sp], #4
    8174: 00 00 00 00  	andeq	r0, r0, r0
    8178: 94 ec 01 00  	<unknown>
    817c: 1c 74 02 00  	andeq	r7, r2, r12, lsl r4
    8180: 10 70 02 00  	andeq	r7, r2, r0, lsl r0
    8184: 00 00 00 00  	andeq	r0, r0, r0
    8188: 04 e0 2d e5  	str	lr, [sp, #-4]!
    818c: 04 f0 9d e4  	ldr	pc, [sp], #4
    8190: 00 b0 a0 e3  	mov	r11, #0
    8194: 00 e0 a0 e3  	mov	lr, #0
    8198: 04 10 9d e4  	ldr	r1, [sp], #4
    819c: 0d 20 a0 e1  	mov	r2, sp
    81a0: 04 20 2d e5  	str	r2, [sp, #-4]!
    81a4: 04 00 2d e5  	str	r0, [sp, #-4]!
    81a8: 10 c0 9f e5  	ldr	r12, [pc, #16]          @ 0x81c0 <.text+0x110>
    81ac: 04 c0 2d e5  	str	r12, [sp, #-4]!
    81b0: 0c 00 9f e5  	ldr	r0, [pc, #12]           @ 0x81c4 <.text+0x114>
    81b4: 0c 30 9f e5  	ldr	r3, [pc, #12]           @ 0x81c8 <.text+0x118>
    81b8: a5 3a 00 ea  	b	0x16c54 <.text+0xeba4>  @ imm = #60052
    81bc: 4b 37 00 eb  	bl	0x15ef0 <.text+0xde40>  @ imm = #56620
    81c0: fc b9 01 00  	strdeq	r11, r12, [r1], -r12
    81c4: 70 f3 00 00  	andeq	pc, r0, r0, ror r3
    81c8: 94 80 00 00  	<unknown>
    81cc: f0 4f 2d e9  	push	{r4, r5, r6, r7, r8, r9, r10, r11, lr}
    81d0: 51 dc 4d e2  	sub	sp, sp, #20736
    81d4: 70 d0 4d e2  	sub	sp, sp, #112
    81d8: ff 40 02 e2  	and	r4, r2, #255
    81dc: 03 50 a0 e1  	mov	r5, r3
    81e0: 00 c0 a0 e1  	mov	r12, r0
    81e4: ff c0 0c e2  	and	r12, r12, #255
    81e8: 28 10 8d e5  	str	r1, [sp, #40]
    81ec: 15 20 a0 e3  	mov	r2, #21
    81f0: 00 30 a0 e3  	mov	r3, #0
    81f4: 04 00 a0 e1  	mov	r0, r4
    81f8: 05 10 a0 e1  	mov	r1, r5
    81fc: 2c c0 8d e5  	str	r12, [sp, #44]
    8200: d7 07 00 eb  	bl	0xa164 <.text+0x20b4>   @ imm = #8028
    8204: 05 10 a0 e1  	mov	r1, r5
    8208: 3c 00 8d e5  	str	r0, [sp, #60]
    820c: 14 20 a0 e3  	mov	r2, #20
    8210: 04 00 a0 e1  	mov	r0, r4
    8214: d0 3b 9f e5  	ldr	r3, [pc, #3024]         @ 0x8dec <.text+0xd3c>
    8218: d1 07 00 eb  	bl	0xa164 <.text+0x20b4>   @ imm = #8004
    821c: 05 10 a0 e1  	mov	r1, r5
    8220: 08 20 a0 e3  	mov	r2, #8
    8224: 00 30 a0 e3  	mov	r3, #0
    8228: 00 b0 a0 e1  	mov	r11, r0
    822c: 04 00 a0 e1  	mov	r0, r4
    8230: cb 07 00 eb  	bl	0xa164 <.text+0x20b4>   @ imm = #7980
    8234: 05 10 a0 e1  	mov	r1, r5
    8238: 00 90 a0 e1  	mov	r9, r0
    823c: 16 20 a0 e3  	mov	r2, #22
    8240: 04 00 a0 e1  	mov	r0, r4
    8244: 70 3b 9f e5  	ldr	r3, [pc, #2928]         @ 0x8dbc <.text+0xd0c>
    8248: c5 07 00 eb  	bl	0xa164 <.text+0x20b4>   @ imm = #7956
    824c: 05 10 a0 e1  	mov	r1, r5
    8250: 00 a0 a0 e1  	mov	r10, r0
    8254: 18 20 a0 e3  	mov	r2, #24
    8258: 04 00 a0 e1  	mov	r0, r4
    825c: 01 30 a0 e3  	mov	r3, #1
    8260: c6 08 00 eb  	bl	0xa580 <.text+0x24d0>   @ imm = #8984
    8264: 05 10 a0 e1  	mov	r1, r5
    8268: 07 20 a0 e3  	mov	r2, #7
    826c: 50 30 a0 e3  	mov	r3, #80
    8270: 00 60 a0 e1  	mov	r6, r0
    8274: 04 00 a0 e1  	mov	r0, r4
    8278: c0 08 00 eb  	bl	0xa580 <.text+0x24d0>   @ imm = #8960
    827c: 70 10 8d e2  	add	r1, sp, #112
    8280: 25 10 41 e2  	sub	r1, r1, #37
    8284: 0a 2b a0 e3  	mov	r2, #10240
    8288: 00 38 a0 e1  	lsl	r3, r0, #16
    828c: 1c 10 8d e5  	str	r1, [sp, #28]
    8290: 01 00 a0 e1  	mov	r0, r1
    8294: 01 20 82 e2  	add	r2, r2, #1
    8298: 00 10 a0 e3  	mov	r1, #0
    829c: 23 88 a0 e1  	lsr	r8, r3, #16
    82a0: d2 31 00 eb  	bl	0x149f0 <.text+0xc940>  @ imm = #51016
    82a4: 00 00 5a e3  	cmp	r10, #0
    82a8: 00 00 59 13  	cmpne	r9, #0
    82ac: 00 40 a0 13  	movne	r4, #0
    82b0: 01 40 a0 03  	moveq	r4, #1
    82b4: 02 00 00 1a  	bne	0x82c4 <.text+0x214>    @ imm = #8
    82b8: 17 de 8d e2  	add	sp, sp, #368
    82bc: 05 da 8d e2  	add	sp, sp, #20480
    82c0: f0 8f bd e8  	pop	{r4, r5, r6, r7, r8, r9, r10, r11, pc}
    82c4: 0a 00 a0 e1  	mov	r0, r10

--- Symbol Table (first 50 entries) ---

/home/analyst/ir-alalysis/samples/malware/511b25ed223e2c3d10fdace548405b886e3b958df125802ef7eb108caef84280.elf:	file format elf32-littlearm

SYMBOL TABLE:

NOTE: For true binary-to-LLVM IR lifting, consider using:
  - mcsema: https://github.com/lifting-bits/mcsema
  - remill: https://github.com/lifting-bits/remill
  - rellic: https://github.com/lifting-bits/rellic

==========================================
LLVM analysis completed successfully
==========================================
LLVM analysis: SUCCESS
	Command being timed: "/home/analyst/ir-alalysis/scripts/analyze_llvm.sh /home/analyst/ir-alalysis/samples/malware/511b25ed223e2c3d10fdace548405b886e3b958df125802ef7eb108caef84280.elf"
	User time (seconds): 0.03
	System time (seconds): 0.06
	Percent of CPU this job got: 85%
	Elapsed (wall clock) time (h:mm:ss or m:ss): 0:00.11
	Average shared text size (kbytes): 0
	Average unshared data size (kbytes): 0
	Average stack size (kbytes): 0
	Average total size (kbytes): 0
	Maximum resident set size (kbytes): 51968
	Average resident set size (kbytes): 0
	Major (requiring I/O) page faults: 1
	Minor (reclaiming a frame) page faults: 10011
	Voluntary context switches: 39
	Involuntary context switches: 87
	Swaps: 0
	File system inputs: 152
	File system outputs: 16
	Socket messages sent: 0
	Socket messages received: 0
	Signals delivered: 0
	Page size (bytes): 4096
	Exit status: 0

Completed: 511b25ed223e2c3d10fdace548405b886e3b958df125802ef7eb108caef84280.elf

========================================
Processing sample 19: 522237c03f1500054532ad7ae6eb5838fd73f84c3303911db849558e928be643.elf
========================================

--- Ghidra P-code Analysis ---

Ghidra analysis: SUCCESS
==========================================
Ghidra Headless Analysis
==========================================
Binary:  /home/analyst/ir-alalysis/samples/malware/522237c03f1500054532ad7ae6eb5838fd73f84c3303911db849558e928be643.elf
Project: ghidra_analysis_522237c03f1500054532ad7ae6eb5838fd73f84c3303911db849558e928be643.elf_20251025_202150
Location: ./ghidra_projects
==========================================
INFO  Using log config file: jar:file:/home/analyst/ghidra/Ghidra/Framework/Generic/lib/Generic.jar!/generic.log4j.xml (LoggingInitialization)  
INFO  Using log file: /home/analyst/.config/ghidra/ghidra_11.4.2_PUBLIC/application.log (LoggingInitialization)  
INFO  Loading user preferences: /home/analyst/.config/ghidra/ghidra_11.4.2_PUBLIC/preferences (Preferences)  
INFO  Searching for classes... (ClassSearcher)  
INFO  Class search complete (1223 ms) (ClassSearcher)  
INFO  Initializing SSL Context (SSLContextInitializer)  
INFO  Initializing Random Number Generator... (SecureRandomFactory)  
INFO  Random Number Generator initialization complete: NativePRNGNonBlocking (SecureRandomFactory)  
INFO  Trust manager disabled, cacerts have not been set (ApplicationTrustManagerFactory)  
INFO  Headless startup complete (3834 ms) (AnalyzeHeadless)  
INFO  Class searcher loaded 58 extension points (18 false positives) (ClassSearcher)  
INFO  HEADLESS Script Paths:
    /home/analyst/ghidra/Ghidra/Features/GnuDemangler/ghidra_scripts
    /home/analyst/ghidra/Ghidra/Features/BytePatterns/ghidra_scripts
    /home/analyst/ghidra/Ghidra/Features/SystemEmulation/ghidra_scripts
    /home/analyst/ghidra/Ghidra/Processors/DATA/ghidra_scripts
    /home/analyst/ghidra/Ghidra/Features/PyGhidra/ghidra_scripts
    /home/analyst/ghidra/Ghidra/Features/MicrosoftCodeAnalyzer/ghidra_scripts
    /home/analyst/ghidra/Ghidra/Features/Base/ghidra_scripts
    /home/analyst/ghidra/Ghidra/Features/Jython/ghidra_scripts
    /home/analyst/ghidra/Ghidra/Features/VersionTracking/ghidra_scripts
    /home/analyst/ghidra/Ghidra/Features/PDB/ghidra_scripts
    /home/analyst/ghidra/Ghidra/Processors/Atmel/ghidra_scripts
    /home/analyst/ghidra/Ghidra/Debug/Debugger-rmi-trace/ghidra_scripts
    /home/analyst/ghidra/Ghidra/Features/FileFormats/ghidra_scripts
    /home/analyst/ghidra/Ghidra/Processors/JVM/ghidra_scripts
    /home/analyst/ghidra/Ghidra/Debug/Debugger/ghidra_scripts
    /home/analyst/ghidra/Ghidra/Processors/PIC/ghidra_scripts
    /home/analyst/ghidra/Ghidra/Features/WildcardAssembler/ghidra_scripts
    /home/analyst/ghidra/Ghidra/Processors/8051/ghidra_scripts
    /home/analyst/ghidra/Ghidra/Features/Decompiler/ghidra_scripts
    /home/analyst/ghidra/Ghidra/Features/DecompilerDependent/ghidra_scripts
    /home/analyst/ghidra/Ghidra/Features/FunctionID/ghidra_scripts
    /home/analyst/ghidra/Ghidra/Features/SwiftDemangler/ghidra_scripts
    /home/analyst/ghidra/Ghidra/Features/BSim/ghidra_scripts (HeadlessAnalyzer)  
INFO  HEADLESS: execution starts (HeadlessAnalyzer)  
INFO  Creating temporary project: /home/analyst/ir-alalysis/./ghidra_projects/ghidra_analysis_522237c03f1500054532ad7ae6eb5838fd73f84c3303911db849558e928be643.elf_20251025_202150 (HeadlessAnalyzer)  
INFO  Creating project: /home/analyst/ir-alalysis/./ghidra_projects/ghidra_analysis_522237c03f1500054532ad7ae6eb5838fd73f84c3303911db849558e928be643.elf_20251025_202150 (DefaultProject)  
INFO  REPORT: Processing input files:  (HeadlessAnalyzer)  
INFO       project: /home/analyst/ir-alalysis/./ghidra_projects/ghidra_analysis_522237c03f1500054532ad7ae6eb5838fd73f84c3303911db849558e928be643.elf_20251025_202150 (HeadlessAnalyzer)  
INFO  IMPORTING: file:///home/analyst/ir-alalysis/samples/malware/522237c03f1500054532ad7ae6eb5838fd73f84c3303911db849558e928be643.elf (HeadlessAnalyzer)  
INFO  Using Loader: Executable and Linking Format (ELF) (AutoImporter)  
INFO  Using Language/Compiler: x86:LE:32:default:gcc (AutoImporter)  
INFO  Using Library Search Path: [., /bin, /lib, /lib64, /lib/x86_64-linux-gnu, /lib/aarch64-linux-gnu, /usr/bin, /usr/lib, /usr/X11R6/bin, /usr/X11R6/lib, /usr/java/packages/lib, /usr/lib/x86_64-linux-gnu/jni, /usr/lib/x86_64-linux-gnu, /usr/lib/jni] (AutoImporter)  
INFO  Additional info:
Loading file:///home/analyst/ir-alalysis/samples/malware/522237c03f1500054532ad7ae6eb5838fd73f84c3303911db849558e928be643.elf?MD5=1a22014c9d3742dcaad0b7bdbad8b386...
------------------------------------------------

 (AutoImporter)  
INFO  IMPORTING: Loaded 0 additional files (HeadlessAnalyzer)  
INFO  ANALYZING all memory and code: file:///home/analyst/ir-alalysis/samples/malware/522237c03f1500054532ad7ae6eb5838fd73f84c3303911db849558e928be643.elf (HeadlessAnalyzer)  
ERROR REPORT: Analysis timed out at 0 seconds. Processing not completed for file: file:///home/analyst/ir-alalysis/samples/malware/522237c03f1500054532ad7ae6eb5838fd73f84c3303911db849558e928be643.elf (HeadlessAnalyzer)  
INFO  SCRIPT: /home/analyst/ir-alalysis/scripts/get_cfg_stats.py (HeadlessAnalyzer)  
GHIDRA_STATS:Functions=1
GHIDRA_STATS:BasicBlocks=0
GHIDRA_STATS:TotalPcodeOps=0
INFO  ANALYZING changes made by post scripts: file:///home/analyst/ir-alalysis/samples/malware/522237c03f1500054532ad7ae6eb5838fd73f84c3303911db849558e928be643.elf (HeadlessAnalyzer)  
INFO  REPORT: Post-analysis succeeded for file: file:///home/analyst/ir-alalysis/samples/malware/522237c03f1500054532ad7ae6eb5838fd73f84c3303911db849558e928be643.elf (HeadlessAnalyzer)  
INFO  REPORT: Save succeeded for: /522237c03f1500054532ad7ae6eb5838fd73f84c3303911db849558e928be643.elf (ghidra_analysis_522237c03f1500054532ad7ae6eb5838fd73f84c3303911db849558e928be643.elf_20251025_202150:/522237c03f1500054532ad7ae6eb5838fd73f84c3303911db849558e928be643.elf) (HeadlessAnalyzer)  
INFO  REPORT: Import succeeded (HeadlessAnalyzer)  
==========================================
Ghidra analysis completed successfully
==========================================

Ghidra CFG Stats:
GHIDRA_STATS:Functions=1
GHIDRA_STATS:BasicBlocks=0
GHIDRA_STATS:TotalPcodeOps=0

Ghidra Performance:
	Elapsed (wall clock) time (h:mm:ss or m:ss): 0:15.43
	Maximum resident set size (kbytes): 692488

--- angr VEX IR Analysis ---

angr analysis: SUCCESS
==================================================
angr VEX IR Analysis
==================================================
Binary: /home/analyst/ir-alalysis/samples/malware/522237c03f1500054532ad7ae6eb5838fd73f84c3303911db849558e928be643.elf
==================================================
Loading binary with angr...
Architecture: X86
Entry point: 0x8048164
Binary base address: 0x8048000

Generating CFG with angr...
Functions discovered: 263
Basic blocks (CFG nodes): 2954
CFG edges: 6820

Counting VEX IR statements...
Total VEX statements: 75011

--- angr CFG & IR Stats ---
ANGR_STATS:Functions=263
ANGR_STATS:Nodes=2954
ANGR_STATS:Edges=6820
ANGR_STATS:TotalVexStatements=75011
---------------------------

Sample functions (first 10):
  - sub_8048094 @ 0x8048094
  - sub_80480b0 @ 0x80480b0
  - sub_80480b4 @ 0x80480b4
  - sub_80480c0 @ 0x80480c0
  - sub_8048108 @ 0x8048108
  - sub_8048110 @ 0x8048110
  - sub_8048161 @ 0x8048161
  - _start @ 0x8048164
  - sub_8048186 @ 0x8048186
  - sub_8048190 @ 0x8048190
==================================================
angr analysis completed successfully
==================================================

angr CFG Stats:
ANGR_STATS:Functions=263
ANGR_STATS:Nodes=2954
ANGR_STATS:Edges=6820
ANGR_STATS:TotalVexStatements=75011

angr Performance:
	Elapsed (wall clock) time (h:mm:ss or m:ss): 0:04.56
	Maximum resident set size (kbytes): 157788

--- LLVM IR Analysis ---

==========================================
LLVM IR Analysis
==========================================
Binary:  /home/analyst/ir-alalysis/samples/malware/522237c03f1500054532ad7ae6eb5838fd73f84c3303911db849558e928be643.elf
==========================================

Detected native binary (not LLVM bitcode)
Performing LLVM-based binary analysis...

--- Binary Information ---

/home/analyst/ir-alalysis/samples/malware/522237c03f1500054532ad7ae6eb5838fd73f84c3303911db849558e928be643.elf:	file format elf32-i386

Sections:
Idx Name          Size     VMA      Type
  0               00000000 00000000 
  1 .init         0000001c 08048094 TEXT
  2 .text         0000a5a6 080480b0 TEXT
  3 .fini         00000017 08052656 TEXT
  4 .rodata       00000c40 08052680 DATA
  5 .ctors        00000008 080542c4 DATA
  6 .dtors        00000008 080542cc DATA
  7 .data         00000140 08054300 DATA
  8 .bss          00000660 08054440 BSS
  9 .shstrtab     0000003e 00000000 

--- Disassembly (first 100 instructions) ---

/home/analyst/ir-alalysis/samples/malware/522237c03f1500054532ad7ae6eb5838fd73f84c3303911db849558e928be643.elf:	file format elf32-i386

Disassembly of section .init:

08048094 <.init>:
 8048094: 55                           	pushl	%ebp
 8048095: 89 e5                        	movl	%esp, %ebp
 8048097: 53                           	pushl	%ebx
 8048098: e8 13 00 00 00               	calll	0x80480b0
 804809d: 81 c3 3b c2 00 00            	addl	$49723, %ebx            # imm = 0xC23B
 80480a3: e8 68 00 00 00               	calll	0x8048110
 80480a8: e8 83 a5 00 00               	calll	0x8052630
 80480ad: 5b                           	popl	%ebx
 80480ae: 5d                           	popl	%ebp
 80480af: c3                           	retl

Disassembly of section .text:

080480b0 <.text>:
 80480b0: 8b 1c 24                     	movl	(%esp), %ebx
 80480b3: c3                           	retl
 80480b4: 90                           	nop
 80480b5: 90                           	nop
 80480b6: 90                           	nop
 80480b7: 90                           	nop
 80480b8: 90                           	nop
 80480b9: 90                           	nop
 80480ba: 90                           	nop
 80480bb: 90                           	nop
 80480bc: 90                           	nop
 80480bd: 90                           	nop
 80480be: 90                           	nop
 80480bf: 90                           	nop
 80480c0: 55                           	pushl	%ebp
 80480c1: 89 e5                        	movl	%esp, %ebp
 80480c3: 83 ec 08                     	subl	$8, %esp
 80480c6: 80 3d 40 44 05 08 00         	cmpb	$0, 134562880
 80480cd: 74 0c                        	je	0x80480db <.text+0x2b>
 80480cf: eb 35                        	jmp	0x8048106 <.text+0x56>
 80480d1: 83 c0 04                     	addl	$4, %eax
 80480d4: a3 04 43 05 08               	movl	%eax, 134562564
 80480d9: ff d2                        	calll	*%edx
 80480db: a1 04 43 05 08               	movl	134562564, %eax
 80480e0: 8b 10                        	movl	(%eax), %edx
 80480e2: 85 d2                        	testl	%edx, %edx
 80480e4: 75 eb                        	jne	0x80480d1 <.text+0x21>
 80480e6: b8 00 00 00 00               	movl	$0, %eax
 80480eb: 85 c0                        	testl	%eax, %eax
 80480ed: 74 10                        	je	0x80480ff <.text+0x4f>
 80480ef: 83 ec 0c                     	subl	$12, %esp
 80480f2: 68 c0 32 05 08               	pushl	$134558400              # imm = 0x80532C0
 80480f7: e8 04 7f fb f7               	calll	0x0
 80480fc: 83 c4 10                     	addl	$16, %esp
 80480ff: c6 05 40 44 05 08 01         	movb	$1, 134562880
 8048106: c9                           	leave
 8048107: c3                           	retl
 8048108: 90                           	nop
 8048109: 8d b4 26 00 00 00 00         	leal	(%esi,%eiz), %esi
 8048110: 55                           	pushl	%ebp
 8048111: b8 00 00 00 00               	movl	$0, %eax
 8048116: 89 e5                        	movl	%esp, %ebp
 8048118: 83 ec 08                     	subl	$8, %esp
 804811b: e8 00 00 00 00               	calll	0x8048120 <.text+0x70>
 8048120: 5a                           	popl	%edx
 8048121: 81 c2 b8 c1 00 00            	addl	$49592, %edx            # imm = 0xC1B8
 8048127: 85 c0                        	testl	%eax, %eax
 8048129: 74 15                        	je	0x8048140 <.text+0x90>
 804812b: 52                           	pushl	%edx
 804812c: 6a 00                        	pushl	$0
 804812e: 68 44 44 05 08               	pushl	$134562884              # imm = 0x8054444
 8048133: 68 c0 32 05 08               	pushl	$134558400              # imm = 0x80532C0
 8048138: e8 c3 7e fb f7               	calll	0x0
 804813d: 83 c4 10                     	addl	$16, %esp
 8048140: a1 d4 42 05 08               	movl	134562516, %eax
 8048145: 85 c0                        	testl	%eax, %eax
 8048147: 74 16                        	je	0x804815f <.text+0xaf>
 8048149: b8 00 00 00 00               	movl	$0, %eax
 804814e: 85 c0                        	testl	%eax, %eax
 8048150: 74 0d                        	je	0x804815f <.text+0xaf>
 8048152: 83 ec 0c                     	subl	$12, %esp
 8048155: 68 d4 42 05 08               	pushl	$134562516              # imm = 0x80542D4
 804815a: ff d0                        	calll	*%eax
 804815c: 83 c4 10                     	addl	$16, %esp
 804815f: c9                           	leave
 8048160: c3                           	retl
 8048161: 90                           	nop
 8048162: 90                           	nop
 8048163: 90                           	nop
 8048164: 31 ed                        	xorl	%ebp, %ebp
 8048166: 5e                           	popl	%esi
 8048167: 89 e1                        	movl	%esp, %ecx
 8048169: 83 e4 f0                     	andl	$-16, %esp
 804816c: 50                           	pushl	%eax
 804816d: 54                           	pushl	%esp
 804816e: 52                           	pushl	%edx
 804816f: 68 56 26 05 08               	pushl	$134555222              # imm = 0x8052656
 8048174: 68 94 80 04 08               	pushl	$134512788              # imm = 0x8048094
 8048179: 51                           	pushl	%ecx
 804817a: 56                           	pushl	%esi
 804817b: 68 40 dc 04 08               	pushl	$134536256              # imm = 0x804DC40
 8048180: e8 2c 9b 00 00               	calll	0x8051cb1 <.text+0x9c01>
 8048185: f4                           	hlt
 8048186: 90                           	nop
 8048187: 90                           	nop
 8048188: 90                           	nop
 8048189: 90                           	nop
 804818a: 90                           	nop
 804818b: 90                           	nop
 804818c: 90                           	nop
 804818d: 90                           	nop
 804818e: 90                           	nop
 804818f: 90                           	nop
 8048190: 56                           	pushl	%esi
 8048191: 53                           	pushl	%ebx
 8048192: 83 ec 04                     	subl	$4, %esp
 8048195: 8a 44 24 18                  	movb	24(%esp), %al
 8048199: 8b 5c 24 14                  	movl	20(%esp), %ebx
 804819d: 88 44 24 03                  	movb	%al, 3(%esp)
 80481a1: 8a 44 24 10                  	movb	16(%esp), %al
 80481a5: 25 ff 00 00 00               	andl	$255, %eax
 80481aa: 89 c6                        	movl	%eax, %esi
 80481ac: 85 c0                        	testl	%eax, %eax
 80481ae: 7e 23                        	jle	0x80481d3 <.text+0x123>
 80481b0: 8a 44 24 03                  	movb	3(%esp), %al
 80481b4: 3a 43 04                     	cmpb	4(%ebx), %al
 80481b7: 74 22                        	je	0x80481db <.text+0x12b>
 80481b9: 8d 53 08                     	leal	8(%ebx), %edx
 80481bc: 31 c9                        	xorl	%ecx, %ecx
 80481be: eb 0e                        	jmp	0x80481ce <.text+0x11e>
 80481c0: 8a 42 04                     	movb	4(%edx), %al
 80481c3: 89 d3                        	movl	%edx, %ebx
 80481c5: 83 c2 08                     	addl	$8, %edx
 80481c8: 3a 44 24 03                  	cmpb	3(%esp), %al
 80481cc: 74 0d                        	je	0x80481db <.text+0x12b>
 80481ce: 41                           	incl	%ecx
 80481cf: 39 f1                        	cmpl	%esi, %ecx
 80481d1: 75 ed                        	jne	0x80481c0 <.text+0x110>
 80481d3: 8b 44 24 1c                  	movl	28(%esp), %eax
 80481d7: 5a                           	popl	%edx
 80481d8: 5b                           	popl	%ebx
 80481d9: 5e                           	popl	%esi
 80481da: c3                           	retl
 80481db: 8b 1b                        	movl	(%ebx), %ebx
 80481dd: 89 5c 24 1c                  	movl	%ebx, 28(%esp)
 80481e1: 8b 44 24 1c                  	movl	28(%esp), %eax
 80481e5: 5a                           	popl	%edx
 80481e6: 5b                           	popl	%ebx
 80481e7: 5e                           	popl	%esi
 80481e8: c3                           	retl

--- Symbol Table (first 50 entries) ---

/home/analyst/ir-alalysis/samples/malware/522237c03f1500054532ad7ae6eb5838fd73f84c3303911db849558e928be643.elf:	file format elf32-i386

SYMBOL TABLE:

NOTE: For true binary-to-LLVM IR lifting, consider using:
  - mcsema: https://github.com/lifting-bits/mcsema
  - remill: https://github.com/lifting-bits/remill
  - rellic: https://github.com/lifting-bits/rellic

==========================================
LLVM analysis completed successfully
==========================================
LLVM analysis: SUCCESS
	Command being timed: "/home/analyst/ir-alalysis/scripts/analyze_llvm.sh /home/analyst/ir-alalysis/samples/malware/522237c03f1500054532ad7ae6eb5838fd73f84c3303911db849558e928be643.elf"
	User time (seconds): 0.02
	System time (seconds): 0.07
	Percent of CPU this job got: 80%
	Elapsed (wall clock) time (h:mm:ss or m:ss): 0:00.12
	Average shared text size (kbytes): 0
	Average unshared data size (kbytes): 0
	Average stack size (kbytes): 0
	Average total size (kbytes): 0
	Maximum resident set size (kbytes): 51712
	Average resident set size (kbytes): 0
	Major (requiring I/O) page faults: 0
	Minor (reclaiming a frame) page faults: 9987
	Voluntary context switches: 20
	Involuntary context switches: 65
	Swaps: 0
	File system inputs: 0
	File system outputs: 16
	Socket messages sent: 0
	Socket messages received: 0
	Signals delivered: 0
	Page size (bytes): 4096
	Exit status: 0

Completed: 522237c03f1500054532ad7ae6eb5838fd73f84c3303911db849558e928be643.elf

========================================
Processing sample 20: 562b2cc9216dce670b665eac68b4860772f0d1ff1c3ceeb1a798307dc9b948b3.elf
========================================

--- Ghidra P-code Analysis ---

Ghidra analysis: SUCCESS
==========================================
Ghidra Headless Analysis
==========================================
Binary:  /home/analyst/ir-alalysis/samples/malware/562b2cc9216dce670b665eac68b4860772f0d1ff1c3ceeb1a798307dc9b948b3.elf
Project: ghidra_analysis_562b2cc9216dce670b665eac68b4860772f0d1ff1c3ceeb1a798307dc9b948b3.elf_20251025_202211
Location: ./ghidra_projects
==========================================
INFO  Using log config file: jar:file:/home/analyst/ghidra/Ghidra/Framework/Generic/lib/Generic.jar!/generic.log4j.xml (LoggingInitialization)  
INFO  Using log file: /home/analyst/.config/ghidra/ghidra_11.4.2_PUBLIC/application.log (LoggingInitialization)  
INFO  Loading user preferences: /home/analyst/.config/ghidra/ghidra_11.4.2_PUBLIC/preferences (Preferences)  
INFO  Searching for classes... (ClassSearcher)  
INFO  Class search complete (1214 ms) (ClassSearcher)  
INFO  Initializing SSL Context (SSLContextInitializer)  
INFO  Initializing Random Number Generator... (SecureRandomFactory)  
INFO  Random Number Generator initialization complete: NativePRNGNonBlocking (SecureRandomFactory)  
INFO  Trust manager disabled, cacerts have not been set (ApplicationTrustManagerFactory)  
INFO  Headless startup complete (3834 ms) (AnalyzeHeadless)  
INFO  Class searcher loaded 58 extension points (18 false positives) (ClassSearcher)  
INFO  HEADLESS Script Paths:
    /home/analyst/ghidra/Ghidra/Features/GnuDemangler/ghidra_scripts
    /home/analyst/ghidra/Ghidra/Features/BytePatterns/ghidra_scripts
    /home/analyst/ghidra/Ghidra/Features/SystemEmulation/ghidra_scripts
    /home/analyst/ghidra/Ghidra/Processors/DATA/ghidra_scripts
    /home/analyst/ghidra/Ghidra/Features/PyGhidra/ghidra_scripts
    /home/analyst/ghidra/Ghidra/Features/MicrosoftCodeAnalyzer/ghidra_scripts
    /home/analyst/ghidra/Ghidra/Features/Base/ghidra_scripts
    /home/analyst/ghidra/Ghidra/Features/Jython/ghidra_scripts
    /home/analyst/ghidra/Ghidra/Features/VersionTracking/ghidra_scripts
    /home/analyst/ghidra/Ghidra/Features/PDB/ghidra_scripts
    /home/analyst/ghidra/Ghidra/Processors/Atmel/ghidra_scripts
    /home/analyst/ghidra/Ghidra/Debug/Debugger-rmi-trace/ghidra_scripts
    /home/analyst/ghidra/Ghidra/Features/FileFormats/ghidra_scripts
    /home/analyst/ghidra/Ghidra/Processors/JVM/ghidra_scripts
    /home/analyst/ghidra/Ghidra/Debug/Debugger/ghidra_scripts
    /home/analyst/ghidra/Ghidra/Processors/PIC/ghidra_scripts
    /home/analyst/ghidra/Ghidra/Features/WildcardAssembler/ghidra_scripts
    /home/analyst/ghidra/Ghidra/Processors/8051/ghidra_scripts
    /home/analyst/ghidra/Ghidra/Features/Decompiler/ghidra_scripts
    /home/analyst/ghidra/Ghidra/Features/DecompilerDependent/ghidra_scripts
    /home/analyst/ghidra/Ghidra/Features/FunctionID/ghidra_scripts
    /home/analyst/ghidra/Ghidra/Features/SwiftDemangler/ghidra_scripts
    /home/analyst/ghidra/Ghidra/Features/BSim/ghidra_scripts (HeadlessAnalyzer)  
INFO  HEADLESS: execution starts (HeadlessAnalyzer)  
INFO  Creating temporary project: /home/analyst/ir-alalysis/./ghidra_projects/ghidra_analysis_562b2cc9216dce670b665eac68b4860772f0d1ff1c3ceeb1a798307dc9b948b3.elf_20251025_202211 (HeadlessAnalyzer)  
INFO  Creating project: /home/analyst/ir-alalysis/./ghidra_projects/ghidra_analysis_562b2cc9216dce670b665eac68b4860772f0d1ff1c3ceeb1a798307dc9b948b3.elf_20251025_202211 (DefaultProject)  
INFO  REPORT: Processing input files:  (HeadlessAnalyzer)  
INFO       project: /home/analyst/ir-alalysis/./ghidra_projects/ghidra_analysis_562b2cc9216dce670b665eac68b4860772f0d1ff1c3ceeb1a798307dc9b948b3.elf_20251025_202211 (HeadlessAnalyzer)  
INFO  IMPORTING: file:///home/analyst/ir-alalysis/samples/malware/562b2cc9216dce670b665eac68b4860772f0d1ff1c3ceeb1a798307dc9b948b3.elf (HeadlessAnalyzer)  
INFO  No load spec found for import file: /home/analyst/ir-alalysis/samples/malware/562b2cc9216dce670b665eac68b4860772f0d1ff1c3ceeb1a798307dc9b948b3.elf (AutoImporter)  
ERROR The AutoImporter could not successfully load file:///home/analyst/ir-alalysis/samples/malware/562b2cc9216dce670b665eac68b4860772f0d1ff1c3ceeb1a798307dc9b948b3.elf with the provided import parameters. Please ensure that any specified processor/cspec arguments are compatible with the loader that is used during import and try again. (HeadlessAnalyzer)  
ERROR REPORT: Import failed for file: file:///home/analyst/ir-alalysis/samples/malware/562b2cc9216dce670b665eac68b4860772f0d1ff1c3ceeb1a798307dc9b948b3.elf (HeadlessAnalyzer)  
==========================================
Ghidra analysis completed successfully
==========================================

Ghidra CFG Stats:
  (CFG stats not available)

Ghidra Performance:
	Elapsed (wall clock) time (h:mm:ss or m:ss): 0:06.20
	Maximum resident set size (kbytes): 189808

--- angr VEX IR Analysis ---

angr analysis: FAILED
==================================================
angr VEX IR Analysis
==================================================
Binary: /home/analyst/ir-alalysis/samples/malware/562b2cc9216dce670b665eac68b4860772f0d1ff1c3ceeb1a798307dc9b948b3.elf
==================================================
Loading binary with angr...

angr CFG Stats:
  (CFG stats not available)

angr Performance:
	Elapsed (wall clock) time (h:mm:ss or m:ss): 0:01.44
	Maximum resident set size (kbytes): 101728

--- LLVM IR Analysis ---

==========================================
LLVM IR Analysis
==========================================
Binary:  /home/analyst/ir-alalysis/samples/malware/562b2cc9216dce670b665eac68b4860772f0d1ff1c3ceeb1a798307dc9b948b3.elf
==========================================

Detected native binary (not LLVM bitcode)
Performing LLVM-based binary analysis...

--- Binary Information ---

/home/analyst/ir-alalysis/samples/malware/562b2cc9216dce670b665eac68b4860772f0d1ff1c3ceeb1a798307dc9b948b3.elf:	file format elf32-unknown

Sections:
Idx Name            Size     VMA      Type
  0                 00000000 00000000 
  1 .init           00000022 00010114 TEXT
  2 .text           0000e398 00010138 TEXT
  3 .fini           00000016 0001e4d0 TEXT
  4 .rodata         00009664 0001e4e8 DATA
  5 .tbss           00000008 00029fe0 BSS
  6 .fini_array     00000004 00029fe0 
  7 .ctors          00000008 00029fe4 DATA
  8 .dtors          00000008 00029fec DATA
  9 .got            00000008 00029ff4 DATA
 10 .data           000001e0 0002a008 DATA
 11 .bss            00003f10 0002a1e8 BSS
 12 .ARC.attributes 00000032 00000000 
 13 .shstrtab       00000065 00000000 

--- Disassembly (first 100 instructions) ---

/home/analyst/ir-alalysis/samples/malware/562b2cc9216dce670b665eac68b4860772f0d1ff1c3ceeb1a798307dc9b948b3.elf:	file format elf32-unknown
llvm-objdump: error: '/home/analyst/ir-alalysis/samples/malware/562b2cc9216dce670b665eac68b4860772f0d1ff1c3ceeb1a798307dc9b948b3.elf': can't find target: : error: unable to get target for 'unknown--', see --version and --triple.


--- Symbol Table (first 50 entries) ---

/home/analyst/ir-alalysis/samples/malware/562b2cc9216dce670b665eac68b4860772f0d1ff1c3ceeb1a798307dc9b948b3.elf:	file format elf32-unknown

SYMBOL TABLE:

NOTE: For true binary-to-LLVM IR lifting, consider using:
  - mcsema: https://github.com/lifting-bits/mcsema
  - remill: https://github.com/lifting-bits/remill
  - rellic: https://github.com/lifting-bits/rellic

==========================================
LLVM analysis completed successfully
==========================================
LLVM analysis: SUCCESS
	Command being timed: "/home/analyst/ir-alalysis/scripts/analyze_llvm.sh /home/analyst/ir-alalysis/samples/malware/562b2cc9216dce670b665eac68b4860772f0d1ff1c3ceeb1a798307dc9b948b3.elf"
	User time (seconds): 0.02
	System time (seconds): 0.06
	Percent of CPU this job got: 70%
	Elapsed (wall clock) time (h:mm:ss or m:ss): 0:00.11
	Average shared text size (kbytes): 0
	Average unshared data size (kbytes): 0
	Average stack size (kbytes): 0
	Average total size (kbytes): 0
	Maximum resident set size (kbytes): 50688
	Average resident set size (kbytes): 0
	Major (requiring I/O) page faults: 0
	Minor (reclaiming a frame) page faults: 9958
	Voluntary context switches: 18
	Involuntary context switches: 79
	Swaps: 0
	File system inputs: 0
	File system outputs: 8
	Socket messages sent: 0
	Socket messages received: 0
	Signals delivered: 0
	Page size (bytes): 4096
	Exit status: 0

Completed: 562b2cc9216dce670b665eac68b4860772f0d1ff1c3ceeb1a798307dc9b948b3.elf

========================================
Processing sample 21: 5d9649d3907e87cc8cca8517388190a7341c0fdae31c8134206c539fd0b44ae0.elf
========================================

--- Ghidra P-code Analysis ---

Ghidra analysis: SUCCESS
==========================================
Ghidra Headless Analysis
==========================================
Binary:  /home/analyst/ir-alalysis/samples/malware/5d9649d3907e87cc8cca8517388190a7341c0fdae31c8134206c539fd0b44ae0.elf
Project: ghidra_analysis_5d9649d3907e87cc8cca8517388190a7341c0fdae31c8134206c539fd0b44ae0.elf_20251025_202219
Location: ./ghidra_projects
==========================================
INFO  Using log config file: jar:file:/home/analyst/ghidra/Ghidra/Framework/Generic/lib/Generic.jar!/generic.log4j.xml (LoggingInitialization)  
INFO  Using log file: /home/analyst/.config/ghidra/ghidra_11.4.2_PUBLIC/application.log (LoggingInitialization)  
INFO  Loading user preferences: /home/analyst/.config/ghidra/ghidra_11.4.2_PUBLIC/preferences (Preferences)  
INFO  Searching for classes... (ClassSearcher)  
INFO  Class search complete (1046 ms) (ClassSearcher)  
INFO  Initializing SSL Context (SSLContextInitializer)  
INFO  Initializing Random Number Generator... (SecureRandomFactory)  
INFO  Random Number Generator initialization complete: NativePRNGNonBlocking (SecureRandomFactory)  
INFO  Trust manager disabled, cacerts have not been set (ApplicationTrustManagerFactory)  
INFO  Headless startup complete (3459 ms) (AnalyzeHeadless)  
INFO  Class searcher loaded 58 extension points (18 false positives) (ClassSearcher)  
INFO  HEADLESS Script Paths:
    /home/analyst/ghidra/Ghidra/Features/GnuDemangler/ghidra_scripts
    /home/analyst/ghidra/Ghidra/Features/BytePatterns/ghidra_scripts
    /home/analyst/ghidra/Ghidra/Features/SystemEmulation/ghidra_scripts
    /home/analyst/ghidra/Ghidra/Processors/DATA/ghidra_scripts
    /home/analyst/ghidra/Ghidra/Features/PyGhidra/ghidra_scripts
    /home/analyst/ghidra/Ghidra/Features/MicrosoftCodeAnalyzer/ghidra_scripts
    /home/analyst/ghidra/Ghidra/Features/Base/ghidra_scripts
    /home/analyst/ghidra/Ghidra/Features/Jython/ghidra_scripts
    /home/analyst/ghidra/Ghidra/Features/VersionTracking/ghidra_scripts
    /home/analyst/ghidra/Ghidra/Features/PDB/ghidra_scripts
    /home/analyst/ghidra/Ghidra/Processors/Atmel/ghidra_scripts
    /home/analyst/ghidra/Ghidra/Debug/Debugger-rmi-trace/ghidra_scripts
    /home/analyst/ghidra/Ghidra/Features/FileFormats/ghidra_scripts
    /home/analyst/ghidra/Ghidra/Processors/JVM/ghidra_scripts
    /home/analyst/ghidra/Ghidra/Debug/Debugger/ghidra_scripts
    /home/analyst/ghidra/Ghidra/Processors/PIC/ghidra_scripts
    /home/analyst/ghidra/Ghidra/Features/WildcardAssembler/ghidra_scripts
    /home/analyst/ghidra/Ghidra/Processors/8051/ghidra_scripts
    /home/analyst/ghidra/Ghidra/Features/Decompiler/ghidra_scripts
    /home/analyst/ghidra/Ghidra/Features/DecompilerDependent/ghidra_scripts
    /home/analyst/ghidra/Ghidra/Features/FunctionID/ghidra_scripts
    /home/analyst/ghidra/Ghidra/Features/SwiftDemangler/ghidra_scripts
    /home/analyst/ghidra/Ghidra/Features/BSim/ghidra_scripts (HeadlessAnalyzer)  
INFO  HEADLESS: execution starts (HeadlessAnalyzer)  
INFO  Creating temporary project: /home/analyst/ir-alalysis/./ghidra_projects/ghidra_analysis_5d9649d3907e87cc8cca8517388190a7341c0fdae31c8134206c539fd0b44ae0.elf_20251025_202219 (HeadlessAnalyzer)  
INFO  Creating project: /home/analyst/ir-alalysis/./ghidra_projects/ghidra_analysis_5d9649d3907e87cc8cca8517388190a7341c0fdae31c8134206c539fd0b44ae0.elf_20251025_202219 (DefaultProject)  
INFO  REPORT: Processing input files:  (HeadlessAnalyzer)  
INFO       project: /home/analyst/ir-alalysis/./ghidra_projects/ghidra_analysis_5d9649d3907e87cc8cca8517388190a7341c0fdae31c8134206c539fd0b44ae0.elf_20251025_202219 (HeadlessAnalyzer)  
INFO  IMPORTING: file:///home/analyst/ir-alalysis/samples/malware/5d9649d3907e87cc8cca8517388190a7341c0fdae31c8134206c539fd0b44ae0.elf (HeadlessAnalyzer)  
INFO  Using Loader: Executable and Linking Format (ELF) (AutoImporter)  
INFO  Using Language/Compiler: MIPS:LE:32:default:default (AutoImporter)  
INFO  Using Library Search Path: [., /bin, /lib, /lib64, /lib/x86_64-linux-gnu, /lib/aarch64-linux-gnu, /usr/bin, /usr/lib, /usr/X11R6/bin, /usr/X11R6/lib, /usr/java/packages/lib, /usr/lib/x86_64-linux-gnu/jni, /usr/lib/x86_64-linux-gnu, /usr/lib/jni] (AutoImporter)  
INFO  Additional info:
Loading file:///home/analyst/ir-alalysis/samples/malware/5d9649d3907e87cc8cca8517388190a7341c0fdae31c8134206c539fd0b44ae0.elf?MD5=8a96deccefb13cfb24f313f8f47df1aa...
------------------------------------------------

 (AutoImporter)  
INFO  IMPORTING: Loaded 0 additional files (HeadlessAnalyzer)  
INFO  ANALYZING all memory and code: file:///home/analyst/ir-alalysis/samples/malware/5d9649d3907e87cc8cca8517388190a7341c0fdae31c8134206c539fd0b44ae0.elf (HeadlessAnalyzer)  
ERROR REPORT: Analysis timed out at 0 seconds. Processing not completed for file: file:///home/analyst/ir-alalysis/samples/malware/5d9649d3907e87cc8cca8517388190a7341c0fdae31c8134206c539fd0b44ae0.elf (HeadlessAnalyzer)  
INFO  SCRIPT: /home/analyst/ir-alalysis/scripts/get_cfg_stats.py (HeadlessAnalyzer)  
GHIDRA_STATS:Functions=1
GHIDRA_STATS:BasicBlocks=0
GHIDRA_STATS:TotalPcodeOps=0
INFO  ANALYZING changes made by post scripts: file:///home/analyst/ir-alalysis/samples/malware/5d9649d3907e87cc8cca8517388190a7341c0fdae31c8134206c539fd0b44ae0.elf (HeadlessAnalyzer)  
INFO  REPORT: Post-analysis succeeded for file: file:///home/analyst/ir-alalysis/samples/malware/5d9649d3907e87cc8cca8517388190a7341c0fdae31c8134206c539fd0b44ae0.elf (HeadlessAnalyzer)  
INFO  REPORT: Save succeeded for: /5d9649d3907e87cc8cca8517388190a7341c0fdae31c8134206c539fd0b44ae0.elf (ghidra_analysis_5d9649d3907e87cc8cca8517388190a7341c0fdae31c8134206c539fd0b44ae0.elf_20251025_202219:/5d9649d3907e87cc8cca8517388190a7341c0fdae31c8134206c539fd0b44ae0.elf) (HeadlessAnalyzer)  
INFO  REPORT: Import succeeded (HeadlessAnalyzer)  
==========================================
Ghidra analysis completed successfully
==========================================

Ghidra CFG Stats:
GHIDRA_STATS:Functions=1
GHIDRA_STATS:BasicBlocks=0
GHIDRA_STATS:TotalPcodeOps=0

Ghidra Performance:
	Elapsed (wall clock) time (h:mm:ss or m:ss): 0:14.41
	Maximum resident set size (kbytes): 694888

--- angr VEX IR Analysis ---

angr analysis: SUCCESS
==================================================
angr VEX IR Analysis
==================================================
Binary: /home/analyst/ir-alalysis/samples/malware/5d9649d3907e87cc8cca8517388190a7341c0fdae31c8134206c539fd0b44ae0.elf
==================================================
Loading binary with angr...
Architecture: MIPS32
Entry point: 0x400260
Binary base address: 0x400000

Generating CFG with angr...
Functions discovered: 205
Basic blocks (CFG nodes): 2912
CFG edges: 6959

Counting VEX IR statements...
Total VEX statements: 60731

--- angr CFG & IR Stats ---
ANGR_STATS:Functions=205
ANGR_STATS:Nodes=2912
ANGR_STATS:Edges=6959
ANGR_STATS:TotalVexStatements=60731
---------------------------

Sample functions (first 10):
  - sub_400094 @ 0x400094
  - sub_4000b8 @ 0x4000b8
  - sub_4000e8 @ 0x4000e8
  - sub_400120 @ 0x400120
  - sub_4001dc @ 0x4001dc
  - _start @ 0x400260
  - sub_40026c @ 0x40026c
  - sub_4002d0 @ 0x4002d0
  - sub_400324 @ 0x400324
  - sub_4004b0 @ 0x4004b0
==================================================
angr analysis completed successfully
==================================================

angr CFG Stats:
ANGR_STATS:Functions=205
ANGR_STATS:Nodes=2912
ANGR_STATS:Edges=6959
ANGR_STATS:TotalVexStatements=60731

angr Performance:
	Elapsed (wall clock) time (h:mm:ss or m:ss): 0:06.79
	Maximum resident set size (kbytes): 175524

--- LLVM IR Analysis ---

==========================================
LLVM IR Analysis
==========================================
Binary:  /home/analyst/ir-alalysis/samples/malware/5d9649d3907e87cc8cca8517388190a7341c0fdae31c8134206c539fd0b44ae0.elf
==========================================

Detected native binary (not LLVM bitcode)
Performing LLVM-based binary analysis...

--- Binary Information ---

/home/analyst/ir-alalysis/samples/malware/5d9649d3907e87cc8cca8517388190a7341c0fdae31c8134206c539fd0b44ae0.elf:	file format elf32-mips

Sections:
Idx Name          Size     VMA      Type
  0               00000000 00000000 
  1 .init         0000008c 00400094 TEXT
  2 .text         0000f710 00400120 TEXT
  3 .fini         0000005c 0040f830 TEXT
  4 .rodata       00000af0 0040f890 DATA
  5 .ctors        00000008 00450384 DATA
  6 .dtors        00000008 0045038c DATA
  7 .data         00000250 004503a0 DATA
  8 .got          00000354 004505f0 DATA
  9 .sbss         00000018 00450944 BSS
 10 .bss          00000348 00450960 BSS
 11 .shstrtab     00000049 00000000 

--- Disassembly (first 100 instructions) ---

/home/analyst/ir-alalysis/samples/malware/5d9649d3907e87cc8cca8517388190a7341c0fdae31c8134206c539fd0b44ae0.elf:	file format elf32-mips

Disassembly of section .init:

00400094 <.init>:
  400094: 06 00 1c 3c  	lui	$gp, 6
  400098: 4c 85 9c 27  	addiu	$gp, $gp, -31412
  40009c: 21 e0 99 03  	addu	$gp, $gp, $25
  4000a0: e0 ff bd 27  	addiu	$sp, $sp, -32
  4000a4: 10 00 bc af  	sw	$gp, 16($sp)
  4000a8: 1c 00 bf af  	sw	$ra, 28($sp)
  4000ac: 18 00 bc af  	sw	$gp, 24($sp)
  4000b0: 01 00 11 04  	bal	8 <.init+0x24>
  4000b4: 00 00 00 00  	nop
  4000b8: 06 00 1c 3c  	lui	$gp, 6
  4000bc: 28 85 9c 27  	addiu	$gp, $gp, -31448
  4000c0: 21 e0 9f 03  	addu	$gp, $gp, $ra
  4000c4: 20 80 99 8f  	lw	$25, -32736($gp)
  4000c8: 00 00 00 00  	nop
  4000cc: dc 01 39 27  	addiu	$25, $25, 476
  4000d0: 09 f8 20 03  	jalr	$25
  4000d4: 00 00 00 00  	nop
  4000d8: 10 00 bc 8f  	lw	$gp, 16($sp)
  4000dc: 00 00 00 00  	nop
  4000e0: 01 00 11 04  	bal	8 <.init+0x54>
  4000e4: 00 00 00 00  	nop
  4000e8: 06 00 1c 3c  	lui	$gp, 6
  4000ec: f8 84 9c 27  	addiu	$gp, $gp, -31496
  4000f0: 21 e0 9f 03  	addu	$gp, $gp, $ra
  4000f4: 1c 80 99 8f  	lw	$25, -32740($gp)
  4000f8: 00 00 00 00  	nop
  4000fc: c0 f7 39 27  	addiu	$25, $25, -2112
  400100: 09 f8 20 03  	jalr	$25
  400104: 00 00 00 00  	nop
  400108: 10 00 bc 8f  	lw	$gp, 16($sp)
  40010c: 00 00 00 00  	nop
  400110: 1c 00 bf 8f  	lw	$ra, 28($sp)
  400114: 00 00 00 00  	nop
  400118: 08 00 e0 03  	jr	$ra
  40011c: 20 00 bd 27  	addiu	$sp, $sp, 32

Disassembly of section .text:

00400120 <.text>:
  400120: 06 00 1c 3c  	lui	$gp, 6
  400124: c0 84 9c 27  	addiu	$gp, $gp, -31552
  400128: 21 e0 99 03  	addu	$gp, $gp, $25
  40012c: d8 ff bd 27  	addiu	$sp, $sp, -40
  400130: 20 00 bf af  	sw	$ra, 32($sp)
  400134: 1c 00 b1 af  	sw	$17, 28($sp)
  400138: 18 00 b0 af  	sw	$16, 24($sp)
  40013c: 10 00 bc af  	sw	$gp, 16($sp)
  400140: 18 80 91 8f  	lw	$17, -32744($gp)
  400144: 00 00 00 00  	nop
  400148: 60 09 22 92  	lbu	$2, 2400($17)
  40014c: 00 00 00 00  	nop
  400150: 1d 00 40 14  	bnez	$2, 120 <.text+0xa8>
  400154: 00 00 00 00  	nop
  400158: 18 80 90 8f  	lw	$16, -32744($gp)
  40015c: 00 00 00 00  	nop
  400160: a0 03 02 8e  	lw	$2, 928($16)
  400164: 00 00 00 00  	nop
  400168: 00 00 59 8c  	lw	$25, 0($2)
  40016c: 00 00 00 00  	nop
  400170: 09 00 20 13  	beqz	$25, 40 <.text+0x78>
  400174: 04 00 42 24  	addiu	$2, $2, 4
  400178: 09 f8 20 03  	jalr	$25
  40017c: a0 03 02 ae  	sw	$2, 928($16)
  400180: a0 03 02 8e  	lw	$2, 928($16)
  400184: 10 00 bc 8f  	lw	$gp, 16($sp)
  400188: 00 00 59 8c  	lw	$25, 0($2)
  40018c: 00 00 00 00  	nop
  400190: f9 ff 20 17  	bnez	$25, -24 <.text+0x58>
  400194: 04 00 42 24  	addiu	$2, $2, 4
  400198: 54 82 82 8f  	lw	$2, -32172($gp)
  40019c: 00 00 00 00  	nop
  4001a0: 08 00 40 10  	beqz	$2, 36 <.text+0xa4>
  4001a4: 01 00 02 24  	addiu	$2, $zero, 1
  4001a8: 1c 80 84 8f  	lw	$4, -32740($gp)
  4001ac: 54 82 99 8f  	lw	$25, -32172($gp)
  4001b0: 00 00 00 00  	nop
  4001b4: 09 f8 20 03  	jalr	$25
  4001b8: 80 03 84 24  	addiu	$4, $4, 896
  4001bc: 10 00 bc 8f  	lw	$gp, 16($sp)
  4001c0: 01 00 02 24  	addiu	$2, $zero, 1
  4001c4: 60 09 22 a2  	sb	$2, 2400($17)
  4001c8: 20 00 bf 8f  	lw	$ra, 32($sp)
  4001cc: 1c 00 b1 8f  	lw	$17, 28($sp)
  4001d0: 18 00 b0 8f  	lw	$16, 24($sp)
  4001d4: 08 00 e0 03  	jr	$ra
  4001d8: 28 00 bd 27  	addiu	$sp, $sp, 40
  4001dc: 06 00 1c 3c  	lui	$gp, 6
  4001e0: 04 84 9c 27  	addiu	$gp, $gp, -31740
  4001e4: 21 e0 99 03  	addu	$gp, $gp, $25
  4001e8: e0 ff bd 27  	addiu	$sp, $sp, -32
  4001ec: 18 00 bf af  	sw	$ra, 24($sp)
  4001f0: 10 00 bc af  	sw	$gp, 16($sp)
  4001f4: 1c 80 84 8f  	lw	$4, -32740($gp)
  4001f8: 18 80 85 8f  	lw	$5, -32744($gp)
  4001fc: d0 80 82 8f  	lw	$2, -32560($gp)
  400200: d0 80 99 8f  	lw	$25, -32560($gp)
  400204: 80 03 84 24  	addiu	$4, $4, 896
  400208: 05 00 40 10  	beqz	$2, 24 <.text+0x100>
  40020c: 64 09 a5 24  	addiu	$5, $5, 2404
  400210: 09 f8 20 03  	jalr	$25
  400214: 00 00 00 00  	nop
  400218: 10 00 bc 8f  	lw	$gp, 16($sp)
  40021c: 00 00 00 00  	nop
  400220: 18 80 84 8f  	lw	$4, -32744($gp)
  400224: dc 80 99 8f  	lw	$25, -32548($gp)
  400228: 94 03 82 8c  	lw	$2, 916($4)
  40022c: 00 00 00 00  	nop
  400230: 06 00 40 10  	beqz	$2, 28 <.text+0x12c>
  400234: 94 03 84 24  	addiu	$4, $4, 916
  400238: 04 00 20 13  	beqz	$25, 20 <.text+0x12c>
  40023c: 00 00 00 00  	nop
  400240: 18 00 bf 8f  	lw	$ra, 24($sp)
  400244: 08 00 20 03  	jr	$25
  400248: 20 00 bd 27  	addiu	$sp, $sp, 32
  40024c: 18 00 bf 8f  	lw	$ra, 24($sp)
  400250: 00 00 00 00  	nop
  400254: 08 00 e0 03  	jr	$ra
  400258: 20 00 bd 27  	addiu	$sp, $sp, 32
  40025c: 00 00 00 00  	nop
  400260: 21 00 e0 03  	move	$zero, $ra
  400264: 01 00 11 04  	bal	8 <.text+0x14c>
  400268: 00 00 00 00  	nop
  40026c: 06 00 1c 3c  	lui	$gp, 6
  400270: 74 83 9c 27  	addiu	$gp, $gp, -31884
  400274: 21 e0 9f 03  	addu	$gp, $gp, $ra
  400278: 21 f8 00 00  	move	$ra, $zero
  40027c: d0 81 84 8f  	lw	$4, -32304($gp)
  400280: 00 00 a5 8f  	lw	$5, 0($sp)
  400284: 04 00 a6 27  	addiu	$6, $sp, 4
  400288: f8 ff 01 24  	addiu	$1, $zero, -8
  40028c: 24 e8 a1 03  	and	$sp, $sp, $1
  400290: e0 ff bd 27  	addiu	$sp, $sp, -32
  400294: 9c 82 87 8f  	lw	$7, -32100($gp)
  400298: 90 81 88 8f  	lw	$8, -32368($gp)
  40029c: 00 00 00 00  	nop
  4002a0: 10 00 a8 af  	sw	$8, 16($sp)
  4002a4: 14 00 a2 af  	sw	$2, 20($sp)
  4002a8: 18 00 bd af  	sw	$sp, 24($sp)
  4002ac: e8 81 99 8f  	lw	$25, -32280($gp)
  4002b0: 00 00 00 00  	nop
  4002b4: 09 f8 20 03  	jalr	$25
  4002b8: 00 00 00 00  	nop
  4002bc: ff ff 00 10  	b	0 <.text+0x19c>
		...

--- Symbol Table (first 50 entries) ---

/home/analyst/ir-alalysis/samples/malware/5d9649d3907e87cc8cca8517388190a7341c0fdae31c8134206c539fd0b44ae0.elf:	file format elf32-mips

SYMBOL TABLE:

NOTE: For true binary-to-LLVM IR lifting, consider using:
  - mcsema: https://github.com/lifting-bits/mcsema
  - remill: https://github.com/lifting-bits/remill
  - rellic: https://github.com/lifting-bits/rellic

==========================================
LLVM analysis completed successfully
==========================================
LLVM analysis: SUCCESS
	Command being timed: "/home/analyst/ir-alalysis/scripts/analyze_llvm.sh /home/analyst/ir-alalysis/samples/malware/5d9649d3907e87cc8cca8517388190a7341c0fdae31c8134206c539fd0b44ae0.elf"
	User time (seconds): 0.03
	System time (seconds): 0.06
	Percent of CPU this job got: 73%
	Elapsed (wall clock) time (h:mm:ss or m:ss): 0:00.13
	Average shared text size (kbytes): 0
	Average unshared data size (kbytes): 0
	Average stack size (kbytes): 0
	Average total size (kbytes): 0
	Maximum resident set size (kbytes): 51456
	Average resident set size (kbytes): 0
	Major (requiring I/O) page faults: 0
	Minor (reclaiming a frame) page faults: 9965
	Voluntary context switches: 146
	Involuntary context switches: 207
	Swaps: 0
	File system inputs: 0
	File system outputs: 8
	Socket messages sent: 0
	Socket messages received: 0
	Signals delivered: 0
	Page size (bytes): 4096
	Exit status: 0

Completed: 5d9649d3907e87cc8cca8517388190a7341c0fdae31c8134206c539fd0b44ae0.elf

========================================
Processing sample 22: 62944f72786ba50b7ef79b92e6e39d88701c4ff6170122034e9e78bbd30b0f5e.elf
========================================

--- Ghidra P-code Analysis ---

Ghidra analysis: SUCCESS
==========================================
Ghidra Headless Analysis
==========================================
Binary:  /home/analyst/ir-alalysis/samples/malware/62944f72786ba50b7ef79b92e6e39d88701c4ff6170122034e9e78bbd30b0f5e.elf
Project: ghidra_analysis_62944f72786ba50b7ef79b92e6e39d88701c4ff6170122034e9e78bbd30b0f5e.elf_20251025_202240
Location: ./ghidra_projects
==========================================
INFO  Using log config file: jar:file:/home/analyst/ghidra/Ghidra/Framework/Generic/lib/Generic.jar!/generic.log4j.xml (LoggingInitialization)  
INFO  Using log file: /home/analyst/.config/ghidra/ghidra_11.4.2_PUBLIC/application.log (LoggingInitialization)  
INFO  Loading user preferences: /home/analyst/.config/ghidra/ghidra_11.4.2_PUBLIC/preferences (Preferences)  
INFO  Searching for classes... (ClassSearcher)  
INFO  Class search complete (1185 ms) (ClassSearcher)  
INFO  Initializing SSL Context (SSLContextInitializer)  
INFO  Initializing Random Number Generator... (SecureRandomFactory)  
INFO  Random Number Generator initialization complete: NativePRNGNonBlocking (SecureRandomFactory)  
INFO  Trust manager disabled, cacerts have not been set (ApplicationTrustManagerFactory)  
INFO  Headless startup complete (4366 ms) (AnalyzeHeadless)  
INFO  Class searcher loaded 58 extension points (18 false positives) (ClassSearcher)  
INFO  HEADLESS Script Paths:
    /home/analyst/ghidra/Ghidra/Features/GnuDemangler/ghidra_scripts
    /home/analyst/ghidra/Ghidra/Features/BytePatterns/ghidra_scripts
    /home/analyst/ghidra/Ghidra/Features/SystemEmulation/ghidra_scripts
    /home/analyst/ghidra/Ghidra/Processors/DATA/ghidra_scripts
    /home/analyst/ghidra/Ghidra/Features/PyGhidra/ghidra_scripts
    /home/analyst/ghidra/Ghidra/Features/MicrosoftCodeAnalyzer/ghidra_scripts
    /home/analyst/ghidra/Ghidra/Features/Base/ghidra_scripts
    /home/analyst/ghidra/Ghidra/Features/Jython/ghidra_scripts
    /home/analyst/ghidra/Ghidra/Features/VersionTracking/ghidra_scripts
    /home/analyst/ghidra/Ghidra/Features/PDB/ghidra_scripts
    /home/analyst/ghidra/Ghidra/Processors/Atmel/ghidra_scripts
    /home/analyst/ghidra/Ghidra/Debug/Debugger-rmi-trace/ghidra_scripts
    /home/analyst/ghidra/Ghidra/Features/FileFormats/ghidra_scripts
    /home/analyst/ghidra/Ghidra/Processors/JVM/ghidra_scripts
    /home/analyst/ghidra/Ghidra/Debug/Debugger/ghidra_scripts
    /home/analyst/ghidra/Ghidra/Processors/PIC/ghidra_scripts
    /home/analyst/ghidra/Ghidra/Features/WildcardAssembler/ghidra_scripts
    /home/analyst/ghidra/Ghidra/Processors/8051/ghidra_scripts
    /home/analyst/ghidra/Ghidra/Features/Decompiler/ghidra_scripts
    /home/analyst/ghidra/Ghidra/Features/DecompilerDependent/ghidra_scripts
    /home/analyst/ghidra/Ghidra/Features/FunctionID/ghidra_scripts
    /home/analyst/ghidra/Ghidra/Features/SwiftDemangler/ghidra_scripts
    /home/analyst/ghidra/Ghidra/Features/BSim/ghidra_scripts (HeadlessAnalyzer)  
INFO  HEADLESS: execution starts (HeadlessAnalyzer)  
INFO  Creating temporary project: /home/analyst/ir-alalysis/./ghidra_projects/ghidra_analysis_62944f72786ba50b7ef79b92e6e39d88701c4ff6170122034e9e78bbd30b0f5e.elf_20251025_202240 (HeadlessAnalyzer)  
INFO  Creating project: /home/analyst/ir-alalysis/./ghidra_projects/ghidra_analysis_62944f72786ba50b7ef79b92e6e39d88701c4ff6170122034e9e78bbd30b0f5e.elf_20251025_202240 (DefaultProject)  
INFO  REPORT: Processing input files:  (HeadlessAnalyzer)  
INFO       project: /home/analyst/ir-alalysis/./ghidra_projects/ghidra_analysis_62944f72786ba50b7ef79b92e6e39d88701c4ff6170122034e9e78bbd30b0f5e.elf_20251025_202240 (HeadlessAnalyzer)  
INFO  IMPORTING: file:///home/analyst/ir-alalysis/samples/malware/62944f72786ba50b7ef79b92e6e39d88701c4ff6170122034e9e78bbd30b0f5e.elf (HeadlessAnalyzer)  
INFO  Using Loader: Executable and Linking Format (ELF) (AutoImporter)  
INFO  Using Language/Compiler: 68000:BE:32:Coldfire:default (AutoImporter)  
INFO  Using Library Search Path: [., /bin, /lib, /lib64, /lib/x86_64-linux-gnu, /lib/aarch64-linux-gnu, /usr/bin, /usr/lib, /usr/X11R6/bin, /usr/X11R6/lib, /usr/java/packages/lib, /usr/lib/x86_64-linux-gnu/jni, /usr/lib/x86_64-linux-gnu, /usr/lib/jni] (AutoImporter)  
INFO  Additional info:
Loading file:///home/analyst/ir-alalysis/samples/malware/62944f72786ba50b7ef79b92e6e39d88701c4ff6170122034e9e78bbd30b0f5e.elf?MD5=c6baf6c99aaa7adfb0ff00725ef55429...
------------------------------------------------

 (AutoImporter)  
INFO  IMPORTING: Loaded 0 additional files (HeadlessAnalyzer)  
INFO  ANALYZING all memory and code: file:///home/analyst/ir-alalysis/samples/malware/62944f72786ba50b7ef79b92e6e39d88701c4ff6170122034e9e78bbd30b0f5e.elf (HeadlessAnalyzer)  
ERROR REPORT: Analysis timed out at 0 seconds. Processing not completed for file: file:///home/analyst/ir-alalysis/samples/malware/62944f72786ba50b7ef79b92e6e39d88701c4ff6170122034e9e78bbd30b0f5e.elf (HeadlessAnalyzer)  
INFO  SCRIPT: /home/analyst/ir-alalysis/scripts/get_cfg_stats.py (HeadlessAnalyzer)  
GHIDRA_STATS:Functions=269
GHIDRA_STATS:BasicBlocks=0
GHIDRA_STATS:TotalPcodeOps=0
INFO  ANALYZING changes made by post scripts: file:///home/analyst/ir-alalysis/samples/malware/62944f72786ba50b7ef79b92e6e39d88701c4ff6170122034e9e78bbd30b0f5e.elf (HeadlessAnalyzer)  
INFO  REPORT: Post-analysis succeeded for file: file:///home/analyst/ir-alalysis/samples/malware/62944f72786ba50b7ef79b92e6e39d88701c4ff6170122034e9e78bbd30b0f5e.elf (HeadlessAnalyzer)  
INFO  REPORT: Save succeeded for: /62944f72786ba50b7ef79b92e6e39d88701c4ff6170122034e9e78bbd30b0f5e.elf (ghidra_analysis_62944f72786ba50b7ef79b92e6e39d88701c4ff6170122034e9e78bbd30b0f5e.elf_20251025_202240:/62944f72786ba50b7ef79b92e6e39d88701c4ff6170122034e9e78bbd30b0f5e.elf) (HeadlessAnalyzer)  
INFO  REPORT: Import succeeded (HeadlessAnalyzer)  
==========================================
Ghidra analysis completed successfully
==========================================

Ghidra CFG Stats:
GHIDRA_STATS:Functions=269
GHIDRA_STATS:BasicBlocks=0
GHIDRA_STATS:TotalPcodeOps=0

Ghidra Performance:
	Elapsed (wall clock) time (h:mm:ss or m:ss): 0:18.40
	Maximum resident set size (kbytes): 609788

--- angr VEX IR Analysis ---

angr analysis: SUCCESS
==================================================
angr VEX IR Analysis
==================================================
Binary: /home/analyst/ir-alalysis/samples/malware/62944f72786ba50b7ef79b92e6e39d88701c4ff6170122034e9e78bbd30b0f5e.elf
==================================================
Loading binary with angr...
Architecture: 68000:BE:32:default
Entry point: 0x80000144
Binary base address: 0x80000000

Generating CFG with angr...
Functions discovered: 371
Basic blocks (CFG nodes): 4325
CFG edges: 8557

Counting VEX IR statements...
Total VEX statements: 0

--- angr CFG & IR Stats ---
ANGR_STATS:Functions=371
ANGR_STATS:Nodes=4325
ANGR_STATS:Edges=8557
ANGR_STATS:TotalVexStatements=0
---------------------------

Sample functions (first 10):
  - have_current_got @ 0x0
  - UnresolvableJumpTarget @ 0x4c
  - UnresolvableCallTarget @ 0x50
  - _init @ 0x80000094
  - __do_global_dtors_aux @ 0x800000a8
  - call___do_global_dtors_aux @ 0x800000f6
  - frame_dummy @ 0x800000fe
  - call_frame_dummy @ 0x8000013c
  - _start @ 0x80000144
  - init_rand @ 0x8000016c
==================================================
angr analysis completed successfully
==================================================

angr CFG Stats:
ANGR_STATS:Functions=371
ANGR_STATS:Nodes=4325
ANGR_STATS:Edges=8557
ANGR_STATS:TotalVexStatements=0

angr Performance:
	Elapsed (wall clock) time (h:mm:ss or m:ss): 0:16.03
	Maximum resident set size (kbytes): 226316

--- LLVM IR Analysis ---

==========================================
LLVM IR Analysis
==========================================
Binary:  /home/analyst/ir-alalysis/samples/malware/62944f72786ba50b7ef79b92e6e39d88701c4ff6170122034e9e78bbd30b0f5e.elf
==========================================

Detected native binary (not LLVM bitcode)
Performing LLVM-based binary analysis...

--- Binary Information ---

/home/analyst/ir-alalysis/samples/malware/62944f72786ba50b7ef79b92e6e39d88701c4ff6170122034e9e78bbd30b0f5e.elf:	file format elf32-m68k

Sections:
Idx Name          Size     VMA      Type
  0               00000000 00000000 
  1 .init         00000014 80000094 TEXT
  2 .text         00012288 800000a8 TEXT
  3 .fini         0000000e 80012330 TEXT
  4 .rodata       00003464 8001233e DATA
  5 .eh_frame     00000004 800157a4 DATA
  6 .ctors        00000008 800177a8 DATA
  7 .dtors        00000008 800177b0 DATA
  8 .jcr          00000004 800177b8 DATA
  9 .data         00000400 800177bc DATA
 10 .bss          0000636c 80017bbc BSS
 11 .comment      00000b64 00000000 
 12 .shstrtab     00000066 00000000 
 13 .symtab       00002ef0 00000000 
 14 .strtab       0000238f 00000000 

--- Disassembly (first 100 instructions) ---

/home/analyst/ir-alalysis/samples/malware/62944f72786ba50b7ef79b92e6e39d88701c4ff6170122034e9e78bbd30b0f5e.elf:	file format elf32-m68k

Disassembly of section .init:

80000094 <_init>:
80000094: 4e           	<unknown>
80000095: 56           	<unknown>
80000096: 00           	<unknown>
80000097: 00           	<unknown>
80000098: 61           	<unknown>
80000099: ff           	<unknown>
8000009a: 00           	<unknown>
8000009b: 00           	<unknown>
8000009c: 00           	<unknown>
8000009d: 64 61        	bcc	$61
8000009f: ff 00        	<unknown>
800000a1: 01 22        	btst	%d0, -(%a2)
800000a3: 5c 4e        	<unknown>
800000a5: 5e 4e        	<unknown>
800000a7: 75 4e        	<unknown>

Disassembly of section .text:

800000a8 <__do_global_dtors_aux>:
800000a8: 4e           	<unknown>
800000a9: 56           	<unknown>
800000aa: 00           	<unknown>
800000ab: 00           	<unknown>
800000ac: 4a           	<unknown>
800000ad: 39           	<unknown>
800000ae: 80 01        	or.b	%d1, %d0
800000b0: 7b bc        	<unknown>
800000b2: 66 3e        	bne	$3e
800000b4: 22 79 80 01 77 c0    	move.l	$77c08001, %a1
800000ba: 20 51        	move.l	(%a1), %a0
800000bc: 4a 88        	<unknown>
800000be: 67 16        	beq	$16
800000c0: 58 89        	<unknown>
800000c2: 23 c9 80 01 77 c0    	move.l	%a1, $77c08001
800000c8: 4e 90        	jsr	(%a0)
800000ca: 22 79 80 01 77 c0    	move.l	$77c08001, %a1
800000d0: 20 51        	move.l	(%a1), %a0
800000d2: 4a 88        	<unknown>
800000d4: 66 ea        	bne	$ea
800000d6: 41 f9 00 00 00 00    	lea	$0, %a0
800000dc: 4a 88 67 0a 48 79    	<unknown>
800000e2: 80 01        	or.b	%d1, %d0
800000e4: 57 a4        	<unknown>
800000e6: 4e 90        	jsr	(%a0)
800000e8: 58 8f        	<unknown>
800000ea: 13 fc 00 01 80 01 7b bc      	move.b	#1, $7bbc8001
800000f2: 4e 5e 4e 75 4e 56 00 00      	<unknown>

800000f6 <call___do_global_dtors_aux>:
800000f6: 4e           	<unknown>
800000f7: 56           	<unknown>
800000f8: 00           	<unknown>
800000f9: 00           	<unknown>
800000fa: 4e           	<unknown>
800000fb: 5e           	<unknown>
800000fc: 4e 75        	rts

800000fe <frame_dummy>:
800000fe: 4e           	<unknown>
800000ff: 56           	<unknown>
80000100: 00           	<unknown>
80000101: 00           	<unknown>
80000102: 41 f9 00 00 00 00    	lea	$0, %a0
80000108: 4a 88 67 10 48 79    	<unknown>
8000010e: 80 01        	or.b	%d1, %d0
80000110: 7b be        	<unknown>
80000112: 48 79        	<unknown>
80000114: 80 01        	or.b	%d1, %d0
80000116: 57 a4        	<unknown>
80000118: 4e 90        	jsr	(%a0)
8000011a: 50 8f        	<unknown>
8000011c: 4a b9        	<unknown>
8000011e: 80 01        	or.b	%d1, %d0
80000120: 77 b8        	<unknown>
80000122: 67 14        	beq	$14
80000124: 41 f9 00 00 00 00    	lea	$0, %a0
8000012a: 4a 88 67 0a 48 79    	<unknown>
80000130: 80 01        	or.b	%d1, %d0
80000132: 77 b8        	<unknown>
80000134: 4e 90        	jsr	(%a0)
80000136: 58 8f        	<unknown>
80000138: 4e 5e        	<unknown>
8000013a: 4e 75        	rts

8000013c <call_frame_dummy>:
8000013c: 4e           	<unknown>
8000013d: 56           	<unknown>
8000013e: 00           	<unknown>
8000013f: 00           	<unknown>
80000140: 4e           	<unknown>
80000141: 5e           	<unknown>
80000142: 4e 75        	rts

80000144 <_start>:
80000144: 9d ce        	suba.l	%a6, %a6
80000146: 20 1f        	move.l	(%sp)+, %d0
80000148: 20 4f        	move.l	%sp, %a0
8000014a: 48 57        	<unknown>
8000014c: 48 51        	<unknown>
8000014e: 48 79        	<unknown>
80000150: 80 01        	or.b	%d1, %d0
80000152: 23 30 48 79  	move.l	(121,%a0,%d4), -(%a1)
80000156: 80 00        	or.b	%d0, %d0
80000158: 00 94 48 50 2f 00    	or.l	#788547664, (%a4)
8000015e: 48 79 80 00 68 42    	<unknown>
80000164: 4e b9 80 00 c3 16    	jsr	$c3168000
8000016a: 4a fc 4e 56 ff fc    	<unknown>

8000016c <init_rand>:
8000016c: 4e           	<unknown>
8000016d: 56           	<unknown>
8000016e: ff           	<unknown>
8000016f: fc           	<unknown>
80000170: 2f 02        	move.l	%d2, -(%sp)
80000172: 23 ee 00 08 80 01 7b f2      	move.l	(8,%a6), $7bf28001
8000017a: 20 2e 00 08  	move.l	(8,%a6), %d0
8000017e: 06 80 9e 37  	<unknown>
80000182: 79 b9 23 c0  	<unknown>
80000186: 80 01        	or.b	%d1, %d0
80000188: 7b f6        	<unknown>
8000018a: 20 2e 00 08  	move.l	(8,%a6), %d0
8000018e: 06 80 3c 6e  	<unknown>
80000192: f3 72 23 c0  	<unknown>
80000196: 80 01        	or.b	%d1, %d0
80000198: 7b fa        	<unknown>
8000019a: 70 03        	<unknown>
8000019c: 2d 40 ff fc  	move.l	%d0, (65532,%a6)
800001a0: 60 4a        	bra	$4a
800001a2: 24 2e ff fc  	move.l	(65532,%a6), %d2
800001a6: 20 2e ff fc  	move.l	(65532,%a6), %d0
800001aa: 57 80 e5 88  	<unknown>
800001ae: 41 f9 80 01 7b f2    	lea	$7bf28001, %a0
800001b4: 22 30 08 00  	move.l	(0,%a0,%d0), %d1
800001b8: 20 2e ff fc  	move.l	(65532,%a6), %d0
800001bc: 55 80 e5 88  	<unknown>
800001c0: 41 f9 80 01 7b f2    	lea	$7bf28001, %a0
800001c6: 20 30 08 00  	move.l	(0,%a0,%d0), %d0
800001ca: b1 81        	eor.l	%d0, %d1
800001cc: 20 2e ff fc  	move.l	(65532,%a6), %d0
800001d0: b3 80        	eor.l	%d1, %d0
800001d2: 22 00        	move.l	%d0, %d1
800001d4: 0a 81 9e 37 79 b9    	eori.l	#2042207799, %d1
800001da: 20 02        	move.l	%d2, %d0
800001dc: e5 88        	lsl.l	#2, %d0

--- Symbol Table (first 50 entries) ---

/home/analyst/ir-alalysis/samples/malware/62944f72786ba50b7ef79b92e6e39d88701c4ff6170122034e9e78bbd30b0f5e.elf:	file format elf32-m68k

SYMBOL TABLE:
80000094 l    d  .init	00000000 .init
800000a8 l    d  .text	00000000 .text
80012330 l    d  .fini	00000000 .fini
8001233e l    d  .rodata	00000000 .rodata
800157a4 l    d  .eh_frame	00000000 .eh_frame
800177a8 l    d  .ctors	00000000 .ctors
800177b0 l    d  .dtors	00000000 .dtors
800177b8 l    d  .jcr	00000000 .jcr
800177bc l    d  .data	00000000 .data
80017bbc l    d  .bss	00000000 .bss
00000000 l    d  .comment	00000000 .comment
00000000 l    d  .shstrtab	00000000 .shstrtab
00000000 l    d  .symtab	00000000 .symtab
00000000 l    d  .strtab	00000000 .strtab
00000000 l    df *ABS*	00000000 libc/sysdeps/linux/m68k/crti.S
00000000 l       *ABS*	00000000 have_current_got
00000000 l    df *ABS*	00000000 crtstuff.c
800177a8 l     O .ctors	00000000 __CTOR_LIST__
800177b0 l     O .dtors	00000000 __DTOR_LIST__
800157a4 l     O .eh_frame	00000000 __EH_FRAME_BEGIN__
800177b8 l     O .jcr	00000000 __JCR_LIST__
80017bbc l     O .bss	00000001 completed.2170
800177c0 l     O .data	00000000 p.2168
800000a8 l     F .text	00000000 __do_global_dtors_aux
800000f6 l     F .text	00000000 call___do_global_dtors_aux
80017bbe l     O .bss	00000018 object.2251
800000fe l     F .text	00000000 frame_dummy
8000013c l     F .text	00000000 call_frame_dummy
00000000 l    df *ABS*	00000000 crtstuff.c
800177ac l     O .ctors	00000000 __CTOR_END__
800177b4 l     O .dtors	00000000 __DTOR_END__
800157a4 l     O .eh_frame	00000000 __FRAME_END__
800177b8 l     O .jcr	00000000 __JCR_END__
800122fc l     F .text	00000000 __do_global_ctors_aux
80012326 l     F .text	00000000 call___do_global_ctors_aux
00000000 l    df *ABS*	00000000 libc/sysdeps/linux/m68k/crtn.S
00000000 l       *ABS*	00000000 have_current_got
00000000 l    df *ABS*	00000000 libc/sysdeps/linux/m68k/crt1.S
00000000 l       *ABS*	00000000 have_current_got
00000000 l    df *ABS*	00000000 bot.c
800177d4 l     O .data	00000004 c
80017bf2 l     O .bss	00004000 Q
800177d8 l     O .data	00000004 i.3629
800003c2 l     F .text	00000044 printchar
80000406 l     F .text	000000d6 prints
800004dc l     F .text	00000138 printi
80000614 l     F .text	000002b0 print
8001bbf2 l     O .bss	00000004 fdopen_pids
80012366 l     O .rodata	00000400 hextable
8001292c l     O .rodata	00000090 C.96.4542
800129bc l     O .rodata	00000090 C.100.4583

NOTE: For true binary-to-LLVM IR lifting, consider using:
  - mcsema: https://github.com/lifting-bits/mcsema
  - remill: https://github.com/lifting-bits/remill
  - rellic: https://github.com/lifting-bits/rellic

==========================================
LLVM analysis completed successfully
==========================================
LLVM analysis: SUCCESS
	Command being timed: "/home/analyst/ir-alalysis/scripts/analyze_llvm.sh /home/analyst/ir-alalysis/samples/malware/62944f72786ba50b7ef79b92e6e39d88701c4ff6170122034e9e78bbd30b0f5e.elf"
	User time (seconds): 0.04
	System time (seconds): 0.10
	Percent of CPU this job got: 78%
	Elapsed (wall clock) time (h:mm:ss or m:ss): 0:00.18
	Average shared text size (kbytes): 0
	Average unshared data size (kbytes): 0
	Average stack size (kbytes): 0
	Average total size (kbytes): 0
	Maximum resident set size (kbytes): 51456
	Average resident set size (kbytes): 0
	Major (requiring I/O) page faults: 0
	Minor (reclaiming a frame) page faults: 10655
	Voluntary context switches: 123
	Involuntary context switches: 229
	Swaps: 0
	File system inputs: 0
	File system outputs: 16
	Socket messages sent: 0
	Socket messages received: 0
	Signals delivered: 0
	Page size (bytes): 4096
	Exit status: 0

Completed: 62944f72786ba50b7ef79b92e6e39d88701c4ff6170122034e9e78bbd30b0f5e.elf

========================================
Processing sample 23: 6583f05a8f8cb73c3625827a6f1171db355ff3312c48d572b7953e7167cc1c52.elf
========================================

--- Ghidra P-code Analysis ---

Ghidra analysis: SUCCESS
==========================================
Ghidra Headless Analysis
==========================================
Binary:  /home/analyst/ir-alalysis/samples/malware/6583f05a8f8cb73c3625827a6f1171db355ff3312c48d572b7953e7167cc1c52.elf
Project: ghidra_analysis_6583f05a8f8cb73c3625827a6f1171db355ff3312c48d572b7953e7167cc1c52.elf_20251025_202315
Location: ./ghidra_projects
==========================================
INFO  Using log config file: jar:file:/home/analyst/ghidra/Ghidra/Framework/Generic/lib/Generic.jar!/generic.log4j.xml (LoggingInitialization)  
INFO  Using log file: /home/analyst/.config/ghidra/ghidra_11.4.2_PUBLIC/application.log (LoggingInitialization)  
INFO  Loading user preferences: /home/analyst/.config/ghidra/ghidra_11.4.2_PUBLIC/preferences (Preferences)  
INFO  Searching for classes... (ClassSearcher)  
INFO  Class search complete (1799 ms) (ClassSearcher)  
INFO  Initializing SSL Context (SSLContextInitializer)  
INFO  Initializing Random Number Generator... (SecureRandomFactory)  
INFO  Random Number Generator initialization complete: NativePRNGNonBlocking (SecureRandomFactory)  
INFO  Trust manager disabled, cacerts have not been set (ApplicationTrustManagerFactory)  
INFO  Headless startup complete (6645 ms) (AnalyzeHeadless)  
INFO  Class searcher loaded 58 extension points (18 false positives) (ClassSearcher)  
INFO  HEADLESS Script Paths:
    /home/analyst/ghidra/Ghidra/Features/GnuDemangler/ghidra_scripts
    /home/analyst/ghidra/Ghidra/Features/BytePatterns/ghidra_scripts
    /home/analyst/ghidra/Ghidra/Features/SystemEmulation/ghidra_scripts
    /home/analyst/ghidra/Ghidra/Processors/DATA/ghidra_scripts
    /home/analyst/ghidra/Ghidra/Features/PyGhidra/ghidra_scripts
    /home/analyst/ghidra/Ghidra/Features/MicrosoftCodeAnalyzer/ghidra_scripts
    /home/analyst/ghidra/Ghidra/Features/Base/ghidra_scripts
    /home/analyst/ghidra/Ghidra/Features/Jython/ghidra_scripts
    /home/analyst/ghidra/Ghidra/Features/VersionTracking/ghidra_scripts
    /home/analyst/ghidra/Ghidra/Features/PDB/ghidra_scripts
    /home/analyst/ghidra/Ghidra/Processors/Atmel/ghidra_scripts
    /home/analyst/ghidra/Ghidra/Debug/Debugger-rmi-trace/ghidra_scripts
    /home/analyst/ghidra/Ghidra/Features/FileFormats/ghidra_scripts
    /home/analyst/ghidra/Ghidra/Processors/JVM/ghidra_scripts
    /home/analyst/ghidra/Ghidra/Debug/Debugger/ghidra_scripts
    /home/analyst/ghidra/Ghidra/Processors/PIC/ghidra_scripts
    /home/analyst/ghidra/Ghidra/Features/WildcardAssembler/ghidra_scripts
    /home/analyst/ghidra/Ghidra/Processors/8051/ghidra_scripts
    /home/analyst/ghidra/Ghidra/Features/Decompiler/ghidra_scripts
    /home/analyst/ghidra/Ghidra/Features/DecompilerDependent/ghidra_scripts
    /home/analyst/ghidra/Ghidra/Features/FunctionID/ghidra_scripts
    /home/analyst/ghidra/Ghidra/Features/SwiftDemangler/ghidra_scripts
    /home/analyst/ghidra/Ghidra/Features/BSim/ghidra_scripts (HeadlessAnalyzer)  
INFO  HEADLESS: execution starts (HeadlessAnalyzer)  
INFO  Creating temporary project: /home/analyst/ir-alalysis/./ghidra_projects/ghidra_analysis_6583f05a8f8cb73c3625827a6f1171db355ff3312c48d572b7953e7167cc1c52.elf_20251025_202315 (HeadlessAnalyzer)  
INFO  Creating project: /home/analyst/ir-alalysis/./ghidra_projects/ghidra_analysis_6583f05a8f8cb73c3625827a6f1171db355ff3312c48d572b7953e7167cc1c52.elf_20251025_202315 (DefaultProject)  
INFO  REPORT: Processing input files:  (HeadlessAnalyzer)  
INFO       project: /home/analyst/ir-alalysis/./ghidra_projects/ghidra_analysis_6583f05a8f8cb73c3625827a6f1171db355ff3312c48d572b7953e7167cc1c52.elf_20251025_202315 (HeadlessAnalyzer)  
INFO  IMPORTING: file:///home/analyst/ir-alalysis/samples/malware/6583f05a8f8cb73c3625827a6f1171db355ff3312c48d572b7953e7167cc1c52.elf (HeadlessAnalyzer)  
INFO  Using Loader: Executable and Linking Format (ELF) (AutoImporter)  
INFO  Using Language/Compiler: x86:LE:32:default:gcc (AutoImporter)  
INFO  Using Library Search Path: [., /bin, /lib, /lib64, /lib/x86_64-linux-gnu, /lib/aarch64-linux-gnu, /usr/bin, /usr/lib, /usr/X11R6/bin, /usr/X11R6/lib, /usr/java/packages/lib, /usr/lib/x86_64-linux-gnu/jni, /usr/lib/x86_64-linux-gnu, /usr/lib/jni] (AutoImporter)  
INFO  Additional info:
Loading file:///home/analyst/ir-alalysis/samples/malware/6583f05a8f8cb73c3625827a6f1171db355ff3312c48d572b7953e7167cc1c52.elf?MD5=83d442a1ad38983f8f804dc3e8c33de1...
------------------------------------------------

 (AutoImporter)  
INFO  IMPORTING: Loaded 0 additional files (HeadlessAnalyzer)  
INFO  ANALYZING all memory and code: file:///home/analyst/ir-alalysis/samples/malware/6583f05a8f8cb73c3625827a6f1171db355ff3312c48d572b7953e7167cc1c52.elf (HeadlessAnalyzer)  
ERROR REPORT: Analysis timed out at 0 seconds. Processing not completed for file: file:///home/analyst/ir-alalysis/samples/malware/6583f05a8f8cb73c3625827a6f1171db355ff3312c48d572b7953e7167cc1c52.elf (HeadlessAnalyzer)  
INFO  SCRIPT: /home/analyst/ir-alalysis/scripts/get_cfg_stats.py (HeadlessAnalyzer)  
GHIDRA_STATS:Functions=251
GHIDRA_STATS:BasicBlocks=0
GHIDRA_STATS:TotalPcodeOps=0
INFO  ANALYZING changes made by post scripts: file:///home/analyst/ir-alalysis/samples/malware/6583f05a8f8cb73c3625827a6f1171db355ff3312c48d572b7953e7167cc1c52.elf (HeadlessAnalyzer)  
INFO  REPORT: Post-analysis succeeded for file: file:///home/analyst/ir-alalysis/samples/malware/6583f05a8f8cb73c3625827a6f1171db355ff3312c48d572b7953e7167cc1c52.elf (HeadlessAnalyzer)  
INFO  REPORT: Save succeeded for: /6583f05a8f8cb73c3625827a6f1171db355ff3312c48d572b7953e7167cc1c52.elf (ghidra_analysis_6583f05a8f8cb73c3625827a6f1171db355ff3312c48d572b7953e7167cc1c52.elf_20251025_202315:/6583f05a8f8cb73c3625827a6f1171db355ff3312c48d572b7953e7167cc1c52.elf) (HeadlessAnalyzer)  
INFO  REPORT: Import succeeded (HeadlessAnalyzer)  
==========================================
Ghidra analysis completed successfully
==========================================

Ghidra CFG Stats:
GHIDRA_STATS:Functions=251
GHIDRA_STATS:BasicBlocks=0
GHIDRA_STATS:TotalPcodeOps=0

Ghidra Performance:
	Elapsed (wall clock) time (h:mm:ss or m:ss): 0:36.14
	Maximum resident set size (kbytes): 586412

--- angr VEX IR Analysis ---

angr analysis: SUCCESS
==================================================
angr VEX IR Analysis
==================================================
Binary: /home/analyst/ir-alalysis/samples/malware/6583f05a8f8cb73c3625827a6f1171db355ff3312c48d572b7953e7167cc1c52.elf
==================================================
Loading binary with angr...
Architecture: X86
Entry point: 0x8048164
Binary base address: 0x8048000

Generating CFG with angr...
Functions discovered: 459
Basic blocks (CFG nodes): 4266
CFG edges: 8500

Counting VEX IR statements...
Total VEX statements: 108691

--- angr CFG & IR Stats ---
ANGR_STATS:Functions=459
ANGR_STATS:Nodes=4266
ANGR_STATS:Edges=8500
ANGR_STATS:TotalVexStatements=108691
---------------------------

Sample functions (first 10):
  - _init @ 0x8048094
  - __get_pc_thunk_bx @ 0x80480b0
  - sub_80480b4 @ 0x80480b4
  - __do_global_dtors_aux @ 0x80480c0
  - sub_8048108 @ 0x8048108
  - frame_dummy @ 0x8048110
  - sub_8048161 @ 0x8048161
  - _start @ 0x8048164
  - sub_8048185 @ 0x8048185
  - sub_8048186 @ 0x8048186
==================================================
angr analysis completed successfully
==================================================

angr CFG Stats:
ANGR_STATS:Functions=459
ANGR_STATS:Nodes=4266
ANGR_STATS:Edges=8500
ANGR_STATS:TotalVexStatements=108691

angr Performance:
	Elapsed (wall clock) time (h:mm:ss or m:ss): 0:13.48
	Maximum resident set size (kbytes): 170512

--- LLVM IR Analysis ---

==========================================
LLVM IR Analysis
==========================================
Binary:  /home/analyst/ir-alalysis/samples/malware/6583f05a8f8cb73c3625827a6f1171db355ff3312c48d572b7953e7167cc1c52.elf
==========================================

Detected native binary (not LLVM bitcode)
Performing LLVM-based binary analysis...

--- Binary Information ---

/home/analyst/ir-alalysis/samples/malware/6583f05a8f8cb73c3625827a6f1171db355ff3312c48d572b7953e7167cc1c52.elf:	file format elf32-i386

Sections:
Idx Name          Size     VMA      Type
  0               00000000 00000000 
  1 .init         0000001c 08048094 TEXT
  2 .text         0000dc28 080480b0 TEXT
  3 .fini         00000017 08055cd8 TEXT
  4 .rodata       000037e0 08055d00 DATA
  5 .eh_frame     00000004 080594e0 DATA
  6 .ctors        00000008 0805a4e4 DATA
  7 .dtors        00000008 0805a4ec DATA
  8 .jcr          00000004 0805a4f4 DATA
  9 .got.plt      0000000c 0805a4f8 DATA
 10 .data         00000340 0805a520 DATA
 11 .bss          000066e4 0805a860 BSS
 12 .comment      00000b9a 00000000 
 13 .shstrtab     0000006f 00000000 
 14 .symtab       00002e60 00000000 
 15 .strtab       000022c0 00000000 

--- Disassembly (first 100 instructions) ---

/home/analyst/ir-alalysis/samples/malware/6583f05a8f8cb73c3625827a6f1171db355ff3312c48d572b7953e7167cc1c52.elf:	file format elf32-i386

Disassembly of section .init:

08048094 <_init>:
 8048094: 55                           	pushl	%ebp
 8048095: 89 e5                        	movl	%esp, %ebp
 8048097: 53                           	pushl	%ebx
 8048098: e8 13 00 00 00               	calll	0x80480b0 <__get_pc_thunk_bx>
 804809d: 81 c3 5b 24 01 00            	addl	$74843, %ebx            # imm = 0x1245B
 80480a3: e8 68 00 00 00               	calll	0x8048110 <frame_dummy>
 80480a8: e8 03 dc 00 00               	calll	0x8055cb0 <__do_global_ctors_aux>
 80480ad: 5b                           	popl	%ebx
 80480ae: 5d                           	popl	%ebp
 80480af: c3                           	retl

Disassembly of section .text:

080480b0 <__get_pc_thunk_bx>:
 80480b0: 8b 1c 24                     	movl	(%esp), %ebx
 80480b3: c3                           	retl
 80480b4: 90                           	nop
 80480b5: 90                           	nop
 80480b6: 90                           	nop
 80480b7: 90                           	nop
 80480b8: 90                           	nop
 80480b9: 90                           	nop
 80480ba: 90                           	nop
 80480bb: 90                           	nop
 80480bc: 90                           	nop
 80480bd: 90                           	nop
 80480be: 90                           	nop
 80480bf: 90                           	nop

080480c0 <__do_global_dtors_aux>:
 80480c0: 55                           	pushl	%ebp
 80480c1: 89 e5                        	movl	%esp, %ebp
 80480c3: 83 ec 08                     	subl	$8, %esp
 80480c6: 80 3d 60 a8 05 08 00         	cmpb	$0, 134588512
 80480cd: 74 0c                        	je	0x80480db <__do_global_dtors_aux+0x1b>
 80480cf: eb 35                        	jmp	0x8048106 <__do_global_dtors_aux+0x46>
 80480d1: 83 c0 04                     	addl	$4, %eax
 80480d4: a3 24 a5 05 08               	movl	%eax, 134587684
 80480d9: ff d2                        	calll	*%edx
 80480db: a1 24 a5 05 08               	movl	134587684, %eax
 80480e0: 8b 10                        	movl	(%eax), %edx
 80480e2: 85 d2                        	testl	%edx, %edx
 80480e4: 75 eb                        	jne	0x80480d1 <__do_global_dtors_aux+0x11>
 80480e6: b8 00 00 00 00               	movl	$0, %eax
 80480eb: 85 c0                        	testl	%eax, %eax
 80480ed: 74 10                        	je	0x80480ff <__do_global_dtors_aux+0x3f>
 80480ef: 83 ec 0c                     	subl	$12, %esp
 80480f2: 68 e0 94 05 08               	pushl	$134583520              # imm = 0x80594E0
 80480f7: e8 04 7f fb f7               	calll	0x0 <write.c>
 80480fc: 83 c4 10                     	addl	$16, %esp
 80480ff: c6 05 60 a8 05 08 01         	movb	$1, 134588512
 8048106: c9                           	leave
 8048107: c3                           	retl
 8048108: 90                           	nop
 8048109: 8d b4 26 00 00 00 00         	leal	(%esi,%eiz), %esi

08048110 <frame_dummy>:
 8048110: 55                           	pushl	%ebp
 8048111: b8 00 00 00 00               	movl	$0, %eax
 8048116: 89 e5                        	movl	%esp, %ebp
 8048118: 83 ec 08                     	subl	$8, %esp
 804811b: e8 00 00 00 00               	calll	0x8048120 <frame_dummy+0x10>
 8048120: 5a                           	popl	%edx
 8048121: 81 c2 d8 23 01 00            	addl	$74712, %edx            # imm = 0x123D8
 8048127: 85 c0                        	testl	%eax, %eax
 8048129: 74 15                        	je	0x8048140 <frame_dummy+0x30>
 804812b: 52                           	pushl	%edx
 804812c: 6a 00                        	pushl	$0
 804812e: 68 64 a8 05 08               	pushl	$134588516              # imm = 0x805A864
 8048133: 68 e0 94 05 08               	pushl	$134583520              # imm = 0x80594E0
 8048138: e8 c3 7e fb f7               	calll	0x0 <write.c>
 804813d: 83 c4 10                     	addl	$16, %esp
 8048140: a1 f4 a4 05 08               	movl	134587636, %eax
 8048145: 85 c0                        	testl	%eax, %eax
 8048147: 74 16                        	je	0x804815f <frame_dummy+0x4f>
 8048149: b8 00 00 00 00               	movl	$0, %eax
 804814e: 85 c0                        	testl	%eax, %eax
 8048150: 74 0d                        	je	0x804815f <frame_dummy+0x4f>
 8048152: 83 ec 0c                     	subl	$12, %esp
 8048155: 68 f4 a4 05 08               	pushl	$134587636              # imm = 0x805A4F4
 804815a: ff d0                        	calll	*%eax
 804815c: 83 c4 10                     	addl	$16, %esp
 804815f: c9                           	leave
 8048160: c3                           	retl
 8048161: 90                           	nop
 8048162: 90                           	nop
 8048163: 90                           	nop

08048164 <_start>:
 8048164: 31 ed                        	xorl	%ebp, %ebp
 8048166: 5e                           	popl	%esi
 8048167: 89 e1                        	movl	%esp, %ecx
 8048169: 83 e4 f0                     	andl	$-16, %esp
 804816c: 50                           	pushl	%eax
 804816d: 54                           	pushl	%esp
 804816e: 52                           	pushl	%edx
 804816f: 68 d8 5c 05 08               	pushl	$134569176              # imm = 0x8055CD8
 8048174: 68 94 80 04 08               	pushl	$134512788              # imm = 0x8048094
 8048179: 51                           	pushl	%ecx
 804817a: 56                           	pushl	%esi
 804817b: 68 99 ec 04 08               	pushl	$134540441              # imm = 0x804EC99
 8048180: e8 a6 a6 00 00               	calll	0x805282b <__uClibc_main>
 8048185: f4                           	hlt
 8048186: 90                           	nop
 8048187: 90                           	nop

08048188 <init_rand>:
 8048188: 55                           	pushl	%ebp
 8048189: 89 e5                        	movl	%esp, %ebp
 804818b: 83 ec 10                     	subl	$16, %esp
 804818e: 8b 45 08                     	movl	8(%ebp), %eax
 8048191: a3 a0 a8 05 08               	movl	%eax, 134588576
 8048196: 8b 45 08                     	movl	8(%ebp), %eax
 8048199: 2d 47 86 c8 61               	subl	$1640531527, %eax       # imm = 0x61C88647
 804819e: a3 a4 a8 05 08               	movl	%eax, 134588580
 80481a3: 8b 45 08                     	movl	8(%ebp), %eax
 80481a6: 05 72 f3 6e 3c               	addl	$1013904242, %eax       # imm = 0x3C6EF372
 80481ab: a3 a8 a8 05 08               	movl	%eax, 134588584
 80481b0: c7 45 fc 03 00 00 00         	movl	$3, -4(%ebp)
 80481b7: eb 33                        	jmp	0x80481ec <init_rand+0x64>
 80481b9: 8b 4d fc                     	movl	-4(%ebp), %ecx
 80481bc: 8b 45 fc                     	movl	-4(%ebp), %eax
 80481bf: 83 e8 03                     	subl	$3, %eax
 80481c2: 8b 14 85 a0 a8 05 08         	movl	134588576(,%eax,4), %edx
 80481c9: 8b 45 fc                     	movl	-4(%ebp), %eax
 80481cc: 83 e8 02                     	subl	$2, %eax
 80481cf: 8b 04 85 a0 a8 05 08         	movl	134588576(,%eax,4), %eax
 80481d6: 31 c2                        	xorl	%eax, %edx
 80481d8: 8b 45 fc                     	movl	-4(%ebp), %eax
 80481db: 31 d0                        	xorl	%edx, %eax
 80481dd: 35 b9 79 37 9e               	xorl	$2654435769, %eax       # imm = 0x9E3779B9
 80481e2: 89 04 8d a0 a8 05 08         	movl	%eax, 134588576(,%ecx,4)
 80481e9: ff 45 fc                     	incl	-4(%ebp)
 80481ec: 81 7d fc ff 0f 00 00         	cmpl	$4095, -4(%ebp)         # imm = 0xFFF
 80481f3: 7e c4                        	jle	0x80481b9 <init_rand+0x31>
 80481f5: c9                           	leave
 80481f6: c3                           	retl

080481f7 <rand_cmwc>:
 80481f7: 55                           	pushl	%ebp
 80481f8: 89 e5                        	movl	%esp, %ebp
 80481fa: 53                           	pushl	%ebx
 80481fb: 83 ec 24                     	subl	$36, %esp
 80481fe: c7 45 e8 5e 49 00 00         	movl	$18782, -24(%ebp)       # imm = 0x495E

--- Symbol Table (first 50 entries) ---

/home/analyst/ir-alalysis/samples/malware/6583f05a8f8cb73c3625827a6f1171db355ff3312c48d572b7953e7167cc1c52.elf:	file format elf32-i386

SYMBOL TABLE:
08048094 l    d  .init	00000000 .init
080480b0 l    d  .text	00000000 .text
08055cd8 l    d  .fini	00000000 .fini
08055d00 l    d  .rodata	00000000 .rodata
080594e0 l    d  .eh_frame	00000000 .eh_frame
0805a4e4 l    d  .ctors	00000000 .ctors
0805a4ec l    d  .dtors	00000000 .dtors
0805a4f4 l    d  .jcr	00000000 .jcr
0805a4f8 l    d  .got.plt	00000000 .got.plt
0805a520 l    d  .data	00000000 .data
0805a860 l    d  .bss	00000000 .bss
00000000 l    d  .comment	00000000 .comment
00000000 l    d  .shstrtab	00000000 .shstrtab
00000000 l    d  .symtab	00000000 .symtab
00000000 l    d  .strtab	00000000 .strtab
00000000 l    df *ABS*	00000000 libc/sysdeps/linux/i386/crti.S
00000000 l    df *ABS*	00000000 crtstuff.c
0805a4e4 l     O .ctors	00000000 __CTOR_LIST__
0805a4ec l     O .dtors	00000000 __DTOR_LIST__
080594e0 l     O .eh_frame	00000000 __EH_FRAME_BEGIN__
0805a4f4 l     O .jcr	00000000 __JCR_LIST__
0805a860 l     O .bss	00000001 completed.2429
0805a524 l     O .data	00000000 p.2427
080480c0 l     F .text	00000000 __do_global_dtors_aux
0805a864 l     O .bss	00000018 object.2482
08048110 l     F .text	00000000 frame_dummy
00000000 l    df *ABS*	00000000 crtstuff.c
0805a4e8 l     O .ctors	00000000 __CTOR_END__
0805a4f0 l     O .dtors	00000000 __DTOR_END__
080594e0 l     O .eh_frame	00000000 __FRAME_END__
0805a4f4 l     O .jcr	00000000 __JCR_END__
08055cb0 l     F .text	00000000 __do_global_ctors_aux
00000000 l    df *ABS*	00000000 initfini.c
00000000 l    df *ABS*	00000000 libc/sysdeps/linux/i386/crtn.S
00000000 l    df *ABS*	00000000 libc/sysdeps/linux/i386/crt1.S
00000000 l    df *ABS*	00000000 bot.c
0805a54c l     O .data	00000004 c
0805a8a0 l     O .bss	00004000 Q
0805a550 l     O .data	00000004 i.3754
08048366 l     F .text	0000003a printchar
080483a0 l     F .text	000000d7 prints
08048477 l     F .text	00000125 printi
0804859c l     F .text	00000248 print
0805e8a0 l     O .bss	00000004 fdopen_pids
08055d40 l     O .rodata	00000400 hextable
08056320 l     O .rodata	00000090 C.96.4645
080563c0 l     O .rodata	00000090 C.100.4686
08056460 l     O .rodata	00000090 C.104.4726
08056500 l     O .rodata	00000090 C.108.4766
080565a0 l     O .rodata	00000090 C.112.4806
08056640 l     O .rodata	00000090 C.116.4846

NOTE: For true binary-to-LLVM IR lifting, consider using:
  - mcsema: https://github.com/lifting-bits/mcsema
  - remill: https://github.com/lifting-bits/remill
  - rellic: https://github.com/lifting-bits/rellic

==========================================
LLVM analysis completed successfully
==========================================
LLVM analysis: SUCCESS
	Command being timed: "/home/analyst/ir-alalysis/scripts/analyze_llvm.sh /home/analyst/ir-alalysis/samples/malware/6583f05a8f8cb73c3625827a6f1171db355ff3312c48d572b7953e7167cc1c52.elf"
	User time (seconds): 0.04
	System time (seconds): 0.08
	Percent of CPU this job got: 88%
	Elapsed (wall clock) time (h:mm:ss or m:ss): 0:00.15
	Average shared text size (kbytes): 0
	Average unshared data size (kbytes): 0
	Average stack size (kbytes): 0
	Average total size (kbytes): 0
	Maximum resident set size (kbytes): 51968
	Average resident set size (kbytes): 0
	Major (requiring I/O) page faults: 0
	Minor (reclaiming a frame) page faults: 10031
	Voluntary context switches: 53
	Involuntary context switches: 170
	Swaps: 0
	File system inputs: 0
	File system outputs: 24
	Socket messages sent: 0
	Socket messages received: 0
	Signals delivered: 0
	Page size (bytes): 4096
	Exit status: 0

Completed: 6583f05a8f8cb73c3625827a6f1171db355ff3312c48d572b7953e7167cc1c52.elf

========================================
Processing sample 24: 696a7ee849008682646b68ded3983e624bd7bb4cf9f468fec98c83c951c2f10e.elf
========================================

--- Ghidra P-code Analysis ---

Ghidra analysis: SUCCESS
==========================================
Ghidra Headless Analysis
==========================================
Binary:  /home/analyst/ir-alalysis/samples/malware/696a7ee849008682646b68ded3983e624bd7bb4cf9f468fec98c83c951c2f10e.elf
Project: ghidra_analysis_696a7ee849008682646b68ded3983e624bd7bb4cf9f468fec98c83c951c2f10e.elf_20251025_202405
Location: ./ghidra_projects
==========================================
INFO  Using log config file: jar:file:/home/analyst/ghidra/Ghidra/Framework/Generic/lib/Generic.jar!/generic.log4j.xml (LoggingInitialization)  
INFO  Using log file: /home/analyst/.config/ghidra/ghidra_11.4.2_PUBLIC/application.log (LoggingInitialization)  
INFO  Loading user preferences: /home/analyst/.config/ghidra/ghidra_11.4.2_PUBLIC/preferences (Preferences)  
INFO  Searching for classes... (ClassSearcher)  
INFO  Class search complete (2721 ms) (ClassSearcher)  
INFO  Initializing SSL Context (SSLContextInitializer)  
INFO  Initializing Random Number Generator... (SecureRandomFactory)  
INFO  Random Number Generator initialization complete: NativePRNGNonBlocking (SecureRandomFactory)  
INFO  Trust manager disabled, cacerts have not been set (ApplicationTrustManagerFactory)  
INFO  Headless startup complete (7945 ms) (AnalyzeHeadless)  
INFO  Class searcher loaded 58 extension points (18 false positives) (ClassSearcher)  
INFO  HEADLESS Script Paths:
    /home/analyst/ghidra/Ghidra/Features/GnuDemangler/ghidra_scripts
    /home/analyst/ghidra/Ghidra/Features/BytePatterns/ghidra_scripts
    /home/analyst/ghidra/Ghidra/Features/SystemEmulation/ghidra_scripts
    /home/analyst/ghidra/Ghidra/Processors/DATA/ghidra_scripts
    /home/analyst/ghidra/Ghidra/Features/PyGhidra/ghidra_scripts
    /home/analyst/ghidra/Ghidra/Features/MicrosoftCodeAnalyzer/ghidra_scripts
    /home/analyst/ghidra/Ghidra/Features/Base/ghidra_scripts
    /home/analyst/ghidra/Ghidra/Features/Jython/ghidra_scripts
    /home/analyst/ghidra/Ghidra/Features/VersionTracking/ghidra_scripts
    /home/analyst/ghidra/Ghidra/Features/PDB/ghidra_scripts
    /home/analyst/ghidra/Ghidra/Processors/Atmel/ghidra_scripts
    /home/analyst/ghidra/Ghidra/Debug/Debugger-rmi-trace/ghidra_scripts
    /home/analyst/ghidra/Ghidra/Features/FileFormats/ghidra_scripts
    /home/analyst/ghidra/Ghidra/Processors/JVM/ghidra_scripts
    /home/analyst/ghidra/Ghidra/Debug/Debugger/ghidra_scripts
    /home/analyst/ghidra/Ghidra/Processors/PIC/ghidra_scripts
    /home/analyst/ghidra/Ghidra/Features/WildcardAssembler/ghidra_scripts
    /home/analyst/ghidra/Ghidra/Processors/8051/ghidra_scripts
    /home/analyst/ghidra/Ghidra/Features/Decompiler/ghidra_scripts
    /home/analyst/ghidra/Ghidra/Features/DecompilerDependent/ghidra_scripts
    /home/analyst/ghidra/Ghidra/Features/FunctionID/ghidra_scripts
    /home/analyst/ghidra/Ghidra/Features/SwiftDemangler/ghidra_scripts
    /home/analyst/ghidra/Ghidra/Features/BSim/ghidra_scripts (HeadlessAnalyzer)  
INFO  HEADLESS: execution starts (HeadlessAnalyzer)  
INFO  Creating temporary project: /home/analyst/ir-alalysis/./ghidra_projects/ghidra_analysis_696a7ee849008682646b68ded3983e624bd7bb4cf9f468fec98c83c951c2f10e.elf_20251025_202405 (HeadlessAnalyzer)  
INFO  Creating project: /home/analyst/ir-alalysis/./ghidra_projects/ghidra_analysis_696a7ee849008682646b68ded3983e624bd7bb4cf9f468fec98c83c951c2f10e.elf_20251025_202405 (DefaultProject)  
INFO  REPORT: Processing input files:  (HeadlessAnalyzer)  
INFO       project: /home/analyst/ir-alalysis/./ghidra_projects/ghidra_analysis_696a7ee849008682646b68ded3983e624bd7bb4cf9f468fec98c83c951c2f10e.elf_20251025_202405 (HeadlessAnalyzer)  
INFO  IMPORTING: file:///home/analyst/ir-alalysis/samples/malware/696a7ee849008682646b68ded3983e624bd7bb4cf9f468fec98c83c951c2f10e.elf (HeadlessAnalyzer)  
INFO  Using Loader: Executable and Linking Format (ELF) (AutoImporter)  
INFO  Using Language/Compiler: Loongarch:LE:64:lp64d:default (AutoImporter)  
INFO  Using Library Search Path: [., /bin, /lib, /lib64, /lib/x86_64-linux-gnu, /lib/aarch64-linux-gnu, /usr/bin, /usr/lib, /usr/X11R6/bin, /usr/X11R6/lib, /usr/java/packages/lib, /usr/lib/x86_64-linux-gnu/jni, /usr/lib/x86_64-linux-gnu, /usr/lib/jni] (AutoImporter)  
INFO  Additional info:
Loading file:///home/analyst/ir-alalysis/samples/malware/696a7ee849008682646b68ded3983e624bd7bb4cf9f468fec98c83c951c2f10e.elf?MD5=985da760745cd26e0d627ea81139c245...
------------------------------------------------

 (AutoImporter)  
INFO  IMPORTING: Loaded 0 additional files (HeadlessAnalyzer)  
INFO  ANALYZING all memory and code: file:///home/analyst/ir-alalysis/samples/malware/696a7ee849008682646b68ded3983e624bd7bb4cf9f468fec98c83c951c2f10e.elf (HeadlessAnalyzer)  
ERROR REPORT: Analysis timed out at 0 seconds. Processing not completed for file: file:///home/analyst/ir-alalysis/samples/malware/696a7ee849008682646b68ded3983e624bd7bb4cf9f468fec98c83c951c2f10e.elf (HeadlessAnalyzer)  
INFO  SCRIPT: /home/analyst/ir-alalysis/scripts/get_cfg_stats.py (HeadlessAnalyzer)  
GHIDRA_STATS:Functions=1
GHIDRA_STATS:BasicBlocks=0
GHIDRA_STATS:TotalPcodeOps=0
INFO  ANALYZING changes made by post scripts: file:///home/analyst/ir-alalysis/samples/malware/696a7ee849008682646b68ded3983e624bd7bb4cf9f468fec98c83c951c2f10e.elf (HeadlessAnalyzer)  
INFO  REPORT: Post-analysis succeeded for file: file:///home/analyst/ir-alalysis/samples/malware/696a7ee849008682646b68ded3983e624bd7bb4cf9f468fec98c83c951c2f10e.elf (HeadlessAnalyzer)  
INFO  REPORT: Save succeeded for: /696a7ee849008682646b68ded3983e624bd7bb4cf9f468fec98c83c951c2f10e.elf (ghidra_analysis_696a7ee849008682646b68ded3983e624bd7bb4cf9f468fec98c83c951c2f10e.elf_20251025_202405:/696a7ee849008682646b68ded3983e624bd7bb4cf9f468fec98c83c951c2f10e.elf) (HeadlessAnalyzer)  
INFO  REPORT: Import succeeded (HeadlessAnalyzer)  
==========================================
Ghidra analysis completed successfully
==========================================

Ghidra CFG Stats:
GHIDRA_STATS:Functions=1
GHIDRA_STATS:BasicBlocks=0
GHIDRA_STATS:TotalPcodeOps=0

Ghidra Performance:
	Elapsed (wall clock) time (h:mm:ss or m:ss): 0:25.16
	Maximum resident set size (kbytes): 619532

--- angr VEX IR Analysis ---

angr analysis: SUCCESS
==================================================
angr VEX IR Analysis
==================================================
Binary: /home/analyst/ir-alalysis/samples/malware/696a7ee849008682646b68ded3983e624bd7bb4cf9f468fec98c83c951c2f10e.elf
==================================================
Loading binary with angr...
Architecture: Loongarch:LE:64:lp64f
Entry point: 0x1200004c0
Binary base address: 0x120000000

Generating CFG with angr...
Functions discovered: 338
Basic blocks (CFG nodes): 8232
CFG edges: 16366

Counting VEX IR statements...
Total VEX statements: 0

--- angr CFG & IR Stats ---
ANGR_STATS:Functions=338
ANGR_STATS:Nodes=8232
ANGR_STATS:Edges=16366
ANGR_STATS:TotalVexStatements=0
---------------------------

Sample functions (first 10):
  - sub_120000120 @ 0x120000120
  - sub_120000140 @ 0x120000140
  - sub_120000240 @ 0x120000240
  - _start @ 0x1200004c0
  - sub_120000500 @ 0x120000500
  - sub_120000550 @ 0x120000550
  - sub_1200005b0 @ 0x1200005b0
  - sub_120000630 @ 0x120000630
  - sub_1200006a0 @ 0x1200006a0
  - sub_120000720 @ 0x120000720
==================================================
angr analysis completed successfully
==================================================

angr CFG Stats:
ANGR_STATS:Functions=338
ANGR_STATS:Nodes=8232
ANGR_STATS:Edges=16366
ANGR_STATS:TotalVexStatements=0

angr Performance:
	Elapsed (wall clock) time (h:mm:ss or m:ss): 0:07.39
	Maximum resident set size (kbytes): 266832

--- LLVM IR Analysis ---

==========================================
LLVM IR Analysis
==========================================
Binary:  /home/analyst/ir-alalysis/samples/malware/696a7ee849008682646b68ded3983e624bd7bb4cf9f468fec98c83c951c2f10e.elf
==========================================

Detected native binary (not LLVM bitcode)
Performing LLVM-based binary analysis...

--- Binary Information ---

/home/analyst/ir-alalysis/samples/malware/696a7ee849008682646b68ded3983e624bd7bb4cf9f468fec98c83c951c2f10e.elf:	file format elf64-unknown

Sections:
Idx Name          Size     VMA              Type
  0               00000000 0000000000000000 
  1 .text         0001ed90 0000000120000120 TEXT
  2 .rodata       00002470 000000012001eeb0 DATA
  3 .init_array   00000008 000000012003ff70 
  4 .fini_array   00000008 000000012003ff78 
  5 .got          00000080 000000012003ff80 DATA
  6 .data         00000060 0000000120040000 DATA
  7 .bss          004298f0 0000000120040060 BSS
  8 .shstrtab     00000041 0000000000000000 

--- Disassembly (first 100 instructions) ---

/home/analyst/ir-alalysis/samples/malware/696a7ee849008682646b68ded3983e624bd7bb4cf9f468fec98c83c951c2f10e.elf:	file format elf64-unknown
llvm-objdump: error: '/home/analyst/ir-alalysis/samples/malware/696a7ee849008682646b68ded3983e624bd7bb4cf9f468fec98c83c951c2f10e.elf': can't find target: : error: unable to get target for 'unknown--', see --version and --triple.


--- Symbol Table (first 50 entries) ---

/home/analyst/ir-alalysis/samples/malware/696a7ee849008682646b68ded3983e624bd7bb4cf9f468fec98c83c951c2f10e.elf:	file format elf64-unknown

SYMBOL TABLE:

NOTE: For true binary-to-LLVM IR lifting, consider using:
  - mcsema: https://github.com/lifting-bits/mcsema
  - remill: https://github.com/lifting-bits/remill
  - rellic: https://github.com/lifting-bits/rellic

==========================================
LLVM analysis completed successfully
==========================================
LLVM analysis: SUCCESS
	Command being timed: "/home/analyst/ir-alalysis/scripts/analyze_llvm.sh /home/analyst/ir-alalysis/samples/malware/696a7ee849008682646b68ded3983e624bd7bb4cf9f468fec98c83c951c2f10e.elf"
	User time (seconds): 0.01
	System time (seconds): 0.05
	Percent of CPU this job got: 97%
	Elapsed (wall clock) time (h:mm:ss or m:ss): 0:00.07
	Average shared text size (kbytes): 0
	Average unshared data size (kbytes): 0
	Average stack size (kbytes): 0
	Average total size (kbytes): 0
	Maximum resident set size (kbytes): 50688
	Average resident set size (kbytes): 0
	Major (requiring I/O) page faults: 0
	Minor (reclaiming a frame) page faults: 9972
	Voluntary context switches: 27
	Involuntary context switches: 50
	Swaps: 0
	File system inputs: 0
	File system outputs: 8
	Socket messages sent: 0
	Socket messages received: 0
	Signals delivered: 0
	Page size (bytes): 4096
	Exit status: 0

Completed: 696a7ee849008682646b68ded3983e624bd7bb4cf9f468fec98c83c951c2f10e.elf

========================================
Processing sample 25: 78cc8efd23fbd71e60270e0a20ccece10eb9374920ac20bbd9e9a42ffb31b83c.elf
========================================

--- Ghidra P-code Analysis ---

Ghidra analysis: SUCCESS
==========================================
Ghidra Headless Analysis
==========================================
Binary:  /home/analyst/ir-alalysis/samples/malware/78cc8efd23fbd71e60270e0a20ccece10eb9374920ac20bbd9e9a42ffb31b83c.elf
Project: ghidra_analysis_78cc8efd23fbd71e60270e0a20ccece10eb9374920ac20bbd9e9a42ffb31b83c.elf_20251025_202438
Location: ./ghidra_projects
==========================================
INFO  Using log config file: jar:file:/home/analyst/ghidra/Ghidra/Framework/Generic/lib/Generic.jar!/generic.log4j.xml (LoggingInitialization)  
INFO  Using log file: /home/analyst/.config/ghidra/ghidra_11.4.2_PUBLIC/application.log (LoggingInitialization)  
INFO  Loading user preferences: /home/analyst/.config/ghidra/ghidra_11.4.2_PUBLIC/preferences (Preferences)  
INFO  Searching for classes... (ClassSearcher)  
INFO  Class search complete (1012 ms) (ClassSearcher)  
INFO  Initializing SSL Context (SSLContextInitializer)  
INFO  Initializing Random Number Generator... (SecureRandomFactory)  
INFO  Random Number Generator initialization complete: NativePRNGNonBlocking (SecureRandomFactory)  
INFO  Trust manager disabled, cacerts have not been set (ApplicationTrustManagerFactory)  
INFO  Headless startup complete (3213 ms) (AnalyzeHeadless)  
INFO  Class searcher loaded 58 extension points (18 false positives) (ClassSearcher)  
INFO  HEADLESS Script Paths:
    /home/analyst/ghidra/Ghidra/Features/GnuDemangler/ghidra_scripts
    /home/analyst/ghidra/Ghidra/Features/BytePatterns/ghidra_scripts
    /home/analyst/ghidra/Ghidra/Features/SystemEmulation/ghidra_scripts
    /home/analyst/ghidra/Ghidra/Processors/DATA/ghidra_scripts
    /home/analyst/ghidra/Ghidra/Features/PyGhidra/ghidra_scripts
    /home/analyst/ghidra/Ghidra/Features/MicrosoftCodeAnalyzer/ghidra_scripts
    /home/analyst/ghidra/Ghidra/Features/Base/ghidra_scripts
    /home/analyst/ghidra/Ghidra/Features/Jython/ghidra_scripts
    /home/analyst/ghidra/Ghidra/Features/VersionTracking/ghidra_scripts
    /home/analyst/ghidra/Ghidra/Features/PDB/ghidra_scripts
    /home/analyst/ghidra/Ghidra/Processors/Atmel/ghidra_scripts
    /home/analyst/ghidra/Ghidra/Debug/Debugger-rmi-trace/ghidra_scripts
    /home/analyst/ghidra/Ghidra/Features/FileFormats/ghidra_scripts
    /home/analyst/ghidra/Ghidra/Processors/JVM/ghidra_scripts
    /home/analyst/ghidra/Ghidra/Debug/Debugger/ghidra_scripts
    /home/analyst/ghidra/Ghidra/Processors/PIC/ghidra_scripts
    /home/analyst/ghidra/Ghidra/Features/WildcardAssembler/ghidra_scripts
    /home/analyst/ghidra/Ghidra/Processors/8051/ghidra_scripts
    /home/analyst/ghidra/Ghidra/Features/Decompiler/ghidra_scripts
    /home/analyst/ghidra/Ghidra/Features/DecompilerDependent/ghidra_scripts
    /home/analyst/ghidra/Ghidra/Features/FunctionID/ghidra_scripts
    /home/analyst/ghidra/Ghidra/Features/SwiftDemangler/ghidra_scripts
    /home/analyst/ghidra/Ghidra/Features/BSim/ghidra_scripts (HeadlessAnalyzer)  
INFO  HEADLESS: execution starts (HeadlessAnalyzer)  
INFO  Creating temporary project: /home/analyst/ir-alalysis/./ghidra_projects/ghidra_analysis_78cc8efd23fbd71e60270e0a20ccece10eb9374920ac20bbd9e9a42ffb31b83c.elf_20251025_202438 (HeadlessAnalyzer)  
INFO  Creating project: /home/analyst/ir-alalysis/./ghidra_projects/ghidra_analysis_78cc8efd23fbd71e60270e0a20ccece10eb9374920ac20bbd9e9a42ffb31b83c.elf_20251025_202438 (DefaultProject)  
INFO  REPORT: Processing input files:  (HeadlessAnalyzer)  
INFO       project: /home/analyst/ir-alalysis/./ghidra_projects/ghidra_analysis_78cc8efd23fbd71e60270e0a20ccece10eb9374920ac20bbd9e9a42ffb31b83c.elf_20251025_202438 (HeadlessAnalyzer)  
INFO  IMPORTING: file:///home/analyst/ir-alalysis/samples/malware/78cc8efd23fbd71e60270e0a20ccece10eb9374920ac20bbd9e9a42ffb31b83c.elf (HeadlessAnalyzer)  
INFO  Using Loader: Executable and Linking Format (ELF) (AutoImporter)  
INFO  Using Language/Compiler: x86:LE:32:default:gcc (AutoImporter)  
INFO  Using Library Search Path: [., /bin, /lib, /lib64, /lib/x86_64-linux-gnu, /lib/aarch64-linux-gnu, /usr/bin, /usr/lib, /usr/X11R6/bin, /usr/X11R6/lib, /usr/java/packages/lib, /usr/lib/x86_64-linux-gnu/jni, /usr/lib/x86_64-linux-gnu, /usr/lib/jni] (AutoImporter)  
INFO  Additional info:
Loading file:///home/analyst/ir-alalysis/samples/malware/78cc8efd23fbd71e60270e0a20ccece10eb9374920ac20bbd9e9a42ffb31b83c.elf?MD5=82452a4f5cc9d0f176e21dd6386b1cec...
------------------------------------------------

 (AutoImporter)  
INFO  IMPORTING: Loaded 0 additional files (HeadlessAnalyzer)  
INFO  ANALYZING all memory and code: file:///home/analyst/ir-alalysis/samples/malware/78cc8efd23fbd71e60270e0a20ccece10eb9374920ac20bbd9e9a42ffb31b83c.elf (HeadlessAnalyzer)  
ERROR REPORT: Analysis timed out at 0 seconds. Processing not completed for file: file:///home/analyst/ir-alalysis/samples/malware/78cc8efd23fbd71e60270e0a20ccece10eb9374920ac20bbd9e9a42ffb31b83c.elf (HeadlessAnalyzer)  
INFO  SCRIPT: /home/analyst/ir-alalysis/scripts/get_cfg_stats.py (HeadlessAnalyzer)  
GHIDRA_STATS:Functions=1
GHIDRA_STATS:BasicBlocks=0
GHIDRA_STATS:TotalPcodeOps=0
INFO  ANALYZING changes made by post scripts: file:///home/analyst/ir-alalysis/samples/malware/78cc8efd23fbd71e60270e0a20ccece10eb9374920ac20bbd9e9a42ffb31b83c.elf (HeadlessAnalyzer)  
INFO  REPORT: Post-analysis succeeded for file: file:///home/analyst/ir-alalysis/samples/malware/78cc8efd23fbd71e60270e0a20ccece10eb9374920ac20bbd9e9a42ffb31b83c.elf (HeadlessAnalyzer)  
INFO  REPORT: Save succeeded for: /78cc8efd23fbd71e60270e0a20ccece10eb9374920ac20bbd9e9a42ffb31b83c.elf (ghidra_analysis_78cc8efd23fbd71e60270e0a20ccece10eb9374920ac20bbd9e9a42ffb31b83c.elf_20251025_202438:/78cc8efd23fbd71e60270e0a20ccece10eb9374920ac20bbd9e9a42ffb31b83c.elf) (HeadlessAnalyzer)  
INFO  REPORT: Import succeeded (HeadlessAnalyzer)  
==========================================
Ghidra analysis completed successfully
==========================================

Ghidra CFG Stats:
GHIDRA_STATS:Functions=1
GHIDRA_STATS:BasicBlocks=0
GHIDRA_STATS:TotalPcodeOps=0

Ghidra Performance:
	Elapsed (wall clock) time (h:mm:ss or m:ss): 0:13.07
	Maximum resident set size (kbytes): 685568

--- angr VEX IR Analysis ---

angr analysis: SUCCESS
==================================================
angr VEX IR Analysis
==================================================
Binary: /home/analyst/ir-alalysis/samples/malware/78cc8efd23fbd71e60270e0a20ccece10eb9374920ac20bbd9e9a42ffb31b83c.elf
==================================================
Loading binary with angr...
Architecture: X86
Entry point: 0x8048168
Binary base address: 0x8048000

Generating CFG with angr...
Functions discovered: 264
Basic blocks (CFG nodes): 2905
CFG edges: 6720

Counting VEX IR statements...
Total VEX statements: 68378

--- angr CFG & IR Stats ---
ANGR_STATS:Functions=264
ANGR_STATS:Nodes=2905
ANGR_STATS:Edges=6720
ANGR_STATS:TotalVexStatements=68378
---------------------------

Sample functions (first 10):
  - sub_8048094 @ 0x8048094
  - sub_80480b0 @ 0x80480b0
  - sub_80480b4 @ 0x80480b4
  - sub_80480c0 @ 0x80480c0
  - sub_8048104 @ 0x8048104
  - sub_8048110 @ 0x8048110
  - sub_8048167 @ 0x8048167
  - _start @ 0x8048168
  - sub_804818a @ 0x804818a
  - sub_8048190 @ 0x8048190
==================================================
angr analysis completed successfully
==================================================

angr CFG Stats:
ANGR_STATS:Functions=264
ANGR_STATS:Nodes=2905
ANGR_STATS:Edges=6720
ANGR_STATS:TotalVexStatements=68378

angr Performance:
	Elapsed (wall clock) time (h:mm:ss or m:ss): 0:04.10
	Maximum resident set size (kbytes): 155652

--- LLVM IR Analysis ---

==========================================
LLVM IR Analysis
==========================================
Binary:  /home/analyst/ir-alalysis/samples/malware/78cc8efd23fbd71e60270e0a20ccece10eb9374920ac20bbd9e9a42ffb31b83c.elf
==========================================

Detected native binary (not LLVM bitcode)
Performing LLVM-based binary analysis...

--- Binary Information ---

/home/analyst/ir-alalysis/samples/malware/78cc8efd23fbd71e60270e0a20ccece10eb9374920ac20bbd9e9a42ffb31b83c.elf:	file format elf32-i386

Sections:
Idx Name          Size     VMA      Type
  0               00000000 00000000 
  1 .init         0000001c 08048094 TEXT
  2 .text         0000b8c1 080480b0 TEXT
  3 .fini         00000017 08053971 TEXT
  4 .rodata       00000c40 080539a0 DATA
  5 .ctors        00000008 080555e4 DATA
  6 .dtors        00000008 080555ec DATA
  7 .data         00000140 08055620 DATA
  8 .bss          00000660 08055760 BSS
  9 .shstrtab     0000003e 00000000 

--- Disassembly (first 100 instructions) ---

/home/analyst/ir-alalysis/samples/malware/78cc8efd23fbd71e60270e0a20ccece10eb9374920ac20bbd9e9a42ffb31b83c.elf:	file format elf32-i386

Disassembly of section .init:

08048094 <.init>:
 8048094: 55                           	pushl	%ebp
 8048095: 89 e5                        	movl	%esp, %ebp
 8048097: 53                           	pushl	%ebx
 8048098: e8 13 00 00 00               	calll	0x80480b0
 804809d: 81 c3 5b d5 00 00            	addl	$54619, %ebx            # imm = 0xD55B
 80480a3: e8 68 00 00 00               	calll	0x8048110
 80480a8: e8 93 b8 00 00               	calll	0x8053940
 80480ad: 5b                           	popl	%ebx
 80480ae: 5d                           	popl	%ebp
 80480af: c3                           	retl

Disassembly of section .text:

080480b0 <.text>:
 80480b0: 8b 1c 24                     	movl	(%esp), %ebx
 80480b3: c3                           	retl
 80480b4: 90                           	nop
 80480b5: 90                           	nop
 80480b6: 90                           	nop
 80480b7: 90                           	nop
 80480b8: 90                           	nop
 80480b9: 90                           	nop
 80480ba: 90                           	nop
 80480bb: 90                           	nop
 80480bc: 90                           	nop
 80480bd: 90                           	nop
 80480be: 90                           	nop
 80480bf: 90                           	nop
 80480c0: 55                           	pushl	%ebp
 80480c1: 89 e5                        	movl	%esp, %ebp
 80480c3: 83 ec 08                     	subl	$8, %esp
 80480c6: 80 3d 60 57 05 08 00         	cmpb	$0, 134567776
 80480cd: 74 0c                        	je	0x80480db <.text+0x2b>
 80480cf: eb 31                        	jmp	0x8048102 <.text+0x52>
 80480d1: 83 c0 04                     	addl	$4, %eax
 80480d4: a3 24 56 05 08               	movl	%eax, 134567460
 80480d9: ff d2                        	calll	*%edx
 80480db: a1 24 56 05 08               	movl	134567460, %eax
 80480e0: 8b 10                        	movl	(%eax), %edx
 80480e2: 85 d2                        	testl	%edx, %edx
 80480e4: 75 eb                        	jne	0x80480d1 <.text+0x21>
 80480e6: b8 00 00 00 00               	movl	$0, %eax
 80480eb: 85 c0                        	testl	%eax, %eax
 80480ed: 74 0c                        	je	0x80480fb <.text+0x4b>
 80480ef: c7 04 24 e0 45 05 08         	movl	$134563296, (%esp)      # imm = 0x80545E0
 80480f6: e8 05 7f fb f7               	calll	0x0
 80480fb: c6 05 60 57 05 08 01         	movb	$1, 134567776
 8048102: c9                           	leave
 8048103: c3                           	retl
 8048104: 8d b6 00 00 00 00            	leal	(%esi), %esi
 804810a: 8d bf 00 00 00 00            	leal	(%edi), %edi
 8048110: 55                           	pushl	%ebp
 8048111: b8 00 00 00 00               	movl	$0, %eax
 8048116: 89 e5                        	movl	%esp, %ebp
 8048118: 83 ec 18                     	subl	$24, %esp
 804811b: e8 00 00 00 00               	calll	0x8048120 <.text+0x70>
 8048120: 5a                           	popl	%edx
 8048121: 81 c2 d8 d4 00 00            	addl	$54488, %edx            # imm = 0xD4D8
 8048127: 85 c0                        	testl	%eax, %eax
 8048129: 74 1f                        	je	0x804814a <.text+0x9a>
 804812b: 89 54 24 0c                  	movl	%edx, 12(%esp)
 804812f: 31 c9                        	xorl	%ecx, %ecx
 8048131: ba 64 57 05 08               	movl	$134567780, %edx        # imm = 0x8055764
 8048136: 89 4c 24 08                  	movl	%ecx, 8(%esp)
 804813a: 89 54 24 04                  	movl	%edx, 4(%esp)
 804813e: c7 04 24 e0 45 05 08         	movl	$134563296, (%esp)      # imm = 0x80545E0
 8048145: e8 b6 7e fb f7               	calll	0x0
 804814a: a1 f4 55 05 08               	movl	134567412, %eax
 804814f: 85 c0                        	testl	%eax, %eax
 8048151: 74 12                        	je	0x8048165 <.text+0xb5>
 8048153: b8 00 00 00 00               	movl	$0, %eax
 8048158: 85 c0                        	testl	%eax, %eax
 804815a: 74 09                        	je	0x8048165 <.text+0xb5>
 804815c: c7 04 24 f4 55 05 08         	movl	$134567412, (%esp)      # imm = 0x80555F4
 8048163: ff d0                        	calll	*%eax
 8048165: c9                           	leave
 8048166: c3                           	retl
 8048167: 90                           	nop
 8048168: 31 ed                        	xorl	%ebp, %ebp
 804816a: 5e                           	popl	%esi
 804816b: 89 e1                        	movl	%esp, %ecx
 804816d: 83 e4 f0                     	andl	$-16, %esp
 8048170: 50                           	pushl	%eax
 8048171: 54                           	pushl	%esp
 8048172: 52                           	pushl	%edx
 8048173: 68 71 39 05 08               	pushl	$134560113              # imm = 0x8053971
 8048178: 68 94 80 04 08               	pushl	$134512788              # imm = 0x8048094
 804817d: 51                           	pushl	%ecx
 804817e: 56                           	pushl	%esi
 804817f: 68 e0 e9 04 08               	pushl	$134539744              # imm = 0x804E9E0
 8048184: e8 3e ae 00 00               	calll	0x8052fc7 <.text+0xaf17>
 8048189: f4                           	hlt
 804818a: 90                           	nop
 804818b: 90                           	nop
 804818c: 90                           	nop
 804818d: 90                           	nop
 804818e: 90                           	nop
 804818f: 90                           	nop
 8048190: 56                           	pushl	%esi
 8048191: 53                           	pushl	%ebx
 8048192: 83 ec 04                     	subl	$4, %esp
 8048195: 0f b6 74 24 10               	movzbl	16(%esp), %esi
 804819a: 0f b6 44 24 18               	movzbl	24(%esp), %eax
 804819f: 8b 5c 24 14                  	movl	20(%esp), %ebx
 80481a3: 85 f6                        	testl	%esi, %esi
 80481a5: 88 44 24 03                  	movb	%al, 3(%esp)
 80481a9: 7e 20                        	jle	0x80481cb <.text+0x11b>
 80481ab: 3a 43 04                     	cmpb	4(%ebx), %al
 80481ae: 74 23                        	je	0x80481d3 <.text+0x123>
 80481b0: 8d 53 08                     	leal	8(%ebx), %edx
 80481b3: 31 c9                        	xorl	%ecx, %ecx
 80481b5: eb 0f                        	jmp	0x80481c6 <.text+0x116>
 80481b7: 0f b6 42 04                  	movzbl	4(%edx), %eax
 80481bb: 89 d3                        	movl	%edx, %ebx
 80481bd: 83 c2 08                     	addl	$8, %edx
 80481c0: 3a 44 24 03                  	cmpb	3(%esp), %al
 80481c4: 74 0d                        	je	0x80481d3 <.text+0x123>
 80481c6: 41                           	incl	%ecx
 80481c7: 39 f1                        	cmpl	%esi, %ecx
 80481c9: 75 ec                        	jne	0x80481b7 <.text+0x107>
 80481cb: 8b 44 24 1c                  	movl	28(%esp), %eax
 80481cf: 5a                           	popl	%edx
 80481d0: 5b                           	popl	%ebx
 80481d1: 5e                           	popl	%esi
 80481d2: c3                           	retl
 80481d3: 8b 1b                        	movl	(%ebx), %ebx
 80481d5: 89 5c 24 1c                  	movl	%ebx, 28(%esp)
 80481d9: 8b 44 24 1c                  	movl	28(%esp), %eax
 80481dd: 5a                           	popl	%edx
 80481de: 5b                           	popl	%ebx
 80481df: 5e                           	popl	%esi
 80481e0: c3                           	retl
 80481e1: 90                           	nop
 80481e2: 90                           	nop
 80481e3: 90                           	nop
 80481e4: 90                           	nop
 80481e5: 90                           	nop
 80481e6: 90                           	nop
 80481e7: 90                           	nop
 80481e8: 90                           	nop
 80481e9: 90                           	nop
 80481ea: 90                           	nop
 80481eb: 90                           	nop
 80481ec: 90                           	nop

--- Symbol Table (first 50 entries) ---

/home/analyst/ir-alalysis/samples/malware/78cc8efd23fbd71e60270e0a20ccece10eb9374920ac20bbd9e9a42ffb31b83c.elf:	file format elf32-i386

SYMBOL TABLE:

NOTE: For true binary-to-LLVM IR lifting, consider using:
  - mcsema: https://github.com/lifting-bits/mcsema
  - remill: https://github.com/lifting-bits/remill
  - rellic: https://github.com/lifting-bits/rellic

==========================================
LLVM analysis completed successfully
==========================================
LLVM analysis: SUCCESS
	Command being timed: "/home/analyst/ir-alalysis/scripts/analyze_llvm.sh /home/analyst/ir-alalysis/samples/malware/78cc8efd23fbd71e60270e0a20ccece10eb9374920ac20bbd9e9a42ffb31b83c.elf"
	User time (seconds): 0.02
	System time (seconds): 0.05
	Percent of CPU this job got: 94%
	Elapsed (wall clock) time (h:mm:ss or m:ss): 0:00.07
	Average shared text size (kbytes): 0
	Average unshared data size (kbytes): 0
	Average stack size (kbytes): 0
	Average total size (kbytes): 0
	Maximum resident set size (kbytes): 51712
	Average resident set size (kbytes): 0
	Major (requiring I/O) page faults: 0
	Minor (reclaiming a frame) page faults: 9960
	Voluntary context switches: 20
	Involuntary context switches: 45
	Swaps: 0
	File system inputs: 0
	File system outputs: 16
	Socket messages sent: 0
	Socket messages received: 0
	Signals delivered: 0
	Page size (bytes): 4096
	Exit status: 0

Completed: 78cc8efd23fbd71e60270e0a20ccece10eb9374920ac20bbd9e9a42ffb31b83c.elf

========================================
Processing sample 26: 79dab5a4d88a95e20b92af523a39ac057435708ce08d92794177fe3409af03fe.elf
========================================

--- Ghidra P-code Analysis ---

Ghidra analysis: SUCCESS
==========================================
Ghidra Headless Analysis
==========================================
Binary:  /home/analyst/ir-alalysis/samples/malware/79dab5a4d88a95e20b92af523a39ac057435708ce08d92794177fe3409af03fe.elf
Project: ghidra_analysis_79dab5a4d88a95e20b92af523a39ac057435708ce08d92794177fe3409af03fe.elf_20251025_202455
Location: ./ghidra_projects
==========================================
INFO  Using log config file: jar:file:/home/analyst/ghidra/Ghidra/Framework/Generic/lib/Generic.jar!/generic.log4j.xml (LoggingInitialization)  
INFO  Using log file: /home/analyst/.config/ghidra/ghidra_11.4.2_PUBLIC/application.log (LoggingInitialization)  
INFO  Loading user preferences: /home/analyst/.config/ghidra/ghidra_11.4.2_PUBLIC/preferences (Preferences)  
INFO  Searching for classes... (ClassSearcher)  
INFO  Class search complete (1043 ms) (ClassSearcher)  
INFO  Initializing SSL Context (SSLContextInitializer)  
INFO  Initializing Random Number Generator... (SecureRandomFactory)  
INFO  Random Number Generator initialization complete: NativePRNGNonBlocking (SecureRandomFactory)  
INFO  Trust manager disabled, cacerts have not been set (ApplicationTrustManagerFactory)  
INFO  Headless startup complete (3319 ms) (AnalyzeHeadless)  
INFO  Class searcher loaded 58 extension points (18 false positives) (ClassSearcher)  
INFO  HEADLESS Script Paths:
    /home/analyst/ghidra/Ghidra/Features/GnuDemangler/ghidra_scripts
    /home/analyst/ghidra/Ghidra/Features/BytePatterns/ghidra_scripts
    /home/analyst/ghidra/Ghidra/Features/SystemEmulation/ghidra_scripts
    /home/analyst/ghidra/Ghidra/Processors/DATA/ghidra_scripts
    /home/analyst/ghidra/Ghidra/Features/PyGhidra/ghidra_scripts
    /home/analyst/ghidra/Ghidra/Features/MicrosoftCodeAnalyzer/ghidra_scripts
    /home/analyst/ghidra/Ghidra/Features/Base/ghidra_scripts
    /home/analyst/ghidra/Ghidra/Features/Jython/ghidra_scripts
    /home/analyst/ghidra/Ghidra/Features/VersionTracking/ghidra_scripts
    /home/analyst/ghidra/Ghidra/Features/PDB/ghidra_scripts
    /home/analyst/ghidra/Ghidra/Processors/Atmel/ghidra_scripts
    /home/analyst/ghidra/Ghidra/Debug/Debugger-rmi-trace/ghidra_scripts
    /home/analyst/ghidra/Ghidra/Features/FileFormats/ghidra_scripts
    /home/analyst/ghidra/Ghidra/Processors/JVM/ghidra_scripts
    /home/analyst/ghidra/Ghidra/Debug/Debugger/ghidra_scripts
    /home/analyst/ghidra/Ghidra/Processors/PIC/ghidra_scripts
    /home/analyst/ghidra/Ghidra/Features/WildcardAssembler/ghidra_scripts
    /home/analyst/ghidra/Ghidra/Processors/8051/ghidra_scripts
    /home/analyst/ghidra/Ghidra/Features/Decompiler/ghidra_scripts
    /home/analyst/ghidra/Ghidra/Features/DecompilerDependent/ghidra_scripts
    /home/analyst/ghidra/Ghidra/Features/FunctionID/ghidra_scripts
    /home/analyst/ghidra/Ghidra/Features/SwiftDemangler/ghidra_scripts
    /home/analyst/ghidra/Ghidra/Features/BSim/ghidra_scripts (HeadlessAnalyzer)  
INFO  HEADLESS: execution starts (HeadlessAnalyzer)  
INFO  Creating temporary project: /home/analyst/ir-alalysis/./ghidra_projects/ghidra_analysis_79dab5a4d88a95e20b92af523a39ac057435708ce08d92794177fe3409af03fe.elf_20251025_202455 (HeadlessAnalyzer)  
INFO  Creating project: /home/analyst/ir-alalysis/./ghidra_projects/ghidra_analysis_79dab5a4d88a95e20b92af523a39ac057435708ce08d92794177fe3409af03fe.elf_20251025_202455 (DefaultProject)  
INFO  REPORT: Processing input files:  (HeadlessAnalyzer)  
INFO       project: /home/analyst/ir-alalysis/./ghidra_projects/ghidra_analysis_79dab5a4d88a95e20b92af523a39ac057435708ce08d92794177fe3409af03fe.elf_20251025_202455 (HeadlessAnalyzer)  
INFO  IMPORTING: file:///home/analyst/ir-alalysis/samples/malware/79dab5a4d88a95e20b92af523a39ac057435708ce08d92794177fe3409af03fe.elf (HeadlessAnalyzer)  
INFO  Using Loader: Executable and Linking Format (ELF) (AutoImporter)  
INFO  Using Language/Compiler: ARM:LE:32:v8:default (AutoImporter)  
INFO  Using Library Search Path: [., /bin, /lib, /lib64, /lib/x86_64-linux-gnu, /lib/aarch64-linux-gnu, /usr/bin, /usr/lib, /usr/X11R6/bin, /usr/X11R6/lib, /usr/java/packages/lib, /usr/lib/x86_64-linux-gnu/jni, /usr/lib/x86_64-linux-gnu, /usr/lib/jni] (AutoImporter)  
INFO  Additional info:
Loading file:///home/analyst/ir-alalysis/samples/malware/79dab5a4d88a95e20b92af523a39ac057435708ce08d92794177fe3409af03fe.elf?MD5=ae6e3dff5cb324aebd12b2e53fad9ee1...
Skipping zero-length segment [1,Loadable segment] at address ram:00033d08
------------------------------------------------

 (AutoImporter)  
INFO  IMPORTING: Loaded 0 additional files (HeadlessAnalyzer)  
INFO  ANALYZING all memory and code: file:///home/analyst/ir-alalysis/samples/malware/79dab5a4d88a95e20b92af523a39ac057435708ce08d92794177fe3409af03fe.elf (HeadlessAnalyzer)  
ERROR REPORT: Analysis timed out at 0 seconds. Processing not completed for file: file:///home/analyst/ir-alalysis/samples/malware/79dab5a4d88a95e20b92af523a39ac057435708ce08d92794177fe3409af03fe.elf (HeadlessAnalyzer)  
INFO  SCRIPT: /home/analyst/ir-alalysis/scripts/get_cfg_stats.py (HeadlessAnalyzer)  
GHIDRA_STATS:Functions=1
GHIDRA_STATS:BasicBlocks=0
GHIDRA_STATS:TotalPcodeOps=0
INFO  ANALYZING changes made by post scripts: file:///home/analyst/ir-alalysis/samples/malware/79dab5a4d88a95e20b92af523a39ac057435708ce08d92794177fe3409af03fe.elf (HeadlessAnalyzer)  
INFO  REPORT: Post-analysis succeeded for file: file:///home/analyst/ir-alalysis/samples/malware/79dab5a4d88a95e20b92af523a39ac057435708ce08d92794177fe3409af03fe.elf (HeadlessAnalyzer)  
INFO  REPORT: Save succeeded for: /79dab5a4d88a95e20b92af523a39ac057435708ce08d92794177fe3409af03fe.elf (ghidra_analysis_79dab5a4d88a95e20b92af523a39ac057435708ce08d92794177fe3409af03fe.elf_20251025_202455:/79dab5a4d88a95e20b92af523a39ac057435708ce08d92794177fe3409af03fe.elf) (HeadlessAnalyzer)  
INFO  REPORT: Import succeeded (HeadlessAnalyzer)  
==========================================
Ghidra analysis completed successfully
==========================================

Ghidra CFG Stats:
GHIDRA_STATS:Functions=1
GHIDRA_STATS:BasicBlocks=0
GHIDRA_STATS:TotalPcodeOps=0

Ghidra Performance:
	Elapsed (wall clock) time (h:mm:ss or m:ss): 0:13.68
	Maximum resident set size (kbytes): 689744

--- angr VEX IR Analysis ---

angr analysis: SUCCESS
==================================================
angr VEX IR Analysis
==================================================
Binary: /home/analyst/ir-alalysis/samples/malware/79dab5a4d88a95e20b92af523a39ac057435708ce08d92794177fe3409af03fe.elf
==================================================
Loading binary with angr...
Architecture: ARMEL
Entry point: 0x11eb0
Binary base address: 0x8000

Generating CFG with angr...
Functions discovered: 259
Basic blocks (CFG nodes): 368
CFG edges: 131

Counting VEX IR statements...
Total VEX statements: 12080

--- angr CFG & IR Stats ---
ANGR_STATS:Functions=259
ANGR_STATS:Nodes=368
ANGR_STATS:Edges=131
ANGR_STATS:TotalVexStatements=12080
---------------------------

Sample functions (first 10):
  - sub_8003 @ 0x8003
  - sub_808d @ 0x808d
  - sub_809d @ 0x809d
  - sub_80ac @ 0x80ac
  - sub_80e8 @ 0x80e8
  - sub_8102 @ 0x8102
  - sub_8108 @ 0x8108
  - sub_8126 @ 0x8126
  - sub_812c @ 0x812c
  - sub_814c @ 0x814c
==================================================
angr analysis completed successfully
==================================================

angr CFG Stats:
ANGR_STATS:Functions=259
ANGR_STATS:Nodes=368
ANGR_STATS:Edges=131
ANGR_STATS:TotalVexStatements=12080

angr Performance:
	Elapsed (wall clock) time (h:mm:ss or m:ss): 0:06.92
	Maximum resident set size (kbytes): 137572

--- LLVM IR Analysis ---

==========================================
LLVM IR Analysis
==========================================
Binary:  /home/analyst/ir-alalysis/samples/malware/79dab5a4d88a95e20b92af523a39ac057435708ce08d92794177fe3409af03fe.elf
==========================================

Detected native binary (not LLVM bitcode)
Performing LLVM-based binary analysis...

--- Binary Information ---

/home/analyst/ir-alalysis/samples/malware/79dab5a4d88a95e20b92af523a39ac057435708ce08d92794177fe3409af03fe.elf:	file format elf32-littlearm

Sections:
Idx Name          Size     VMA      Type

--- Disassembly (first 100 instructions) ---

/home/analyst/ir-alalysis/samples/malware/79dab5a4d88a95e20b92af523a39ac057435708ce08d92794177fe3409af03fe.elf:	file format elf32-littlearm

--- Symbol Table (first 50 entries) ---

/home/analyst/ir-alalysis/samples/malware/79dab5a4d88a95e20b92af523a39ac057435708ce08d92794177fe3409af03fe.elf:	file format elf32-littlearm

SYMBOL TABLE:

NOTE: For true binary-to-LLVM IR lifting, consider using:
  - mcsema: https://github.com/lifting-bits/mcsema
  - remill: https://github.com/lifting-bits/remill
  - rellic: https://github.com/lifting-bits/rellic

==========================================
LLVM analysis completed successfully
==========================================
LLVM analysis: SUCCESS
	Command being timed: "/home/analyst/ir-alalysis/scripts/analyze_llvm.sh /home/analyst/ir-alalysis/samples/malware/79dab5a4d88a95e20b92af523a39ac057435708ce08d92794177fe3409af03fe.elf"
	User time (seconds): 0.02
	System time (seconds): 0.06
	Percent of CPU this job got: 91%
	Elapsed (wall clock) time (h:mm:ss or m:ss): 0:00.09
	Average shared text size (kbytes): 0
	Average unshared data size (kbytes): 0
	Average stack size (kbytes): 0
	Average total size (kbytes): 0
	Maximum resident set size (kbytes): 51072
	Average resident set size (kbytes): 0
	Major (requiring I/O) page faults: 0
	Minor (reclaiming a frame) page faults: 9934
	Voluntary context switches: 18
	Involuntary context switches: 76
	Swaps: 0
	File system inputs: 0
	File system outputs: 8
	Socket messages sent: 0
	Socket messages received: 0
	Signals delivered: 0
	Page size (bytes): 4096
	Exit status: 0

Completed: 79dab5a4d88a95e20b92af523a39ac057435708ce08d92794177fe3409af03fe.elf

========================================
Processing sample 27: 83a544e3ad03e3dcd9ad3b3a2a26dbbe381eb2e37e3da0616699f70fc3c78abf.exe
========================================

--- Ghidra P-code Analysis ---

Ghidra analysis: SUCCESS
==========================================
Ghidra Headless Analysis
==========================================
Binary:  /home/analyst/ir-alalysis/samples/malware/83a544e3ad03e3dcd9ad3b3a2a26dbbe381eb2e37e3da0616699f70fc3c78abf.exe
Project: ghidra_analysis_83a544e3ad03e3dcd9ad3b3a2a26dbbe381eb2e37e3da0616699f70fc3c78abf.exe_20251025_202516
Location: ./ghidra_projects
==========================================
INFO  Using log config file: jar:file:/home/analyst/ghidra/Ghidra/Framework/Generic/lib/Generic.jar!/generic.log4j.xml (LoggingInitialization)  
INFO  Using log file: /home/analyst/.config/ghidra/ghidra_11.4.2_PUBLIC/application.log (LoggingInitialization)  
INFO  Loading user preferences: /home/analyst/.config/ghidra/ghidra_11.4.2_PUBLIC/preferences (Preferences)  
INFO  Searching for classes... (ClassSearcher)  
INFO  Class search complete (1337 ms) (ClassSearcher)  
INFO  Initializing SSL Context (SSLContextInitializer)  
INFO  Initializing Random Number Generator... (SecureRandomFactory)  
INFO  Random Number Generator initialization complete: NativePRNGNonBlocking (SecureRandomFactory)  
INFO  Trust manager disabled, cacerts have not been set (ApplicationTrustManagerFactory)  
INFO  Headless startup complete (3885 ms) (AnalyzeHeadless)  
INFO  Class searcher loaded 58 extension points (18 false positives) (ClassSearcher)  
INFO  HEADLESS Script Paths:
    /home/analyst/ghidra/Ghidra/Features/GnuDemangler/ghidra_scripts
    /home/analyst/ghidra/Ghidra/Features/BytePatterns/ghidra_scripts
    /home/analyst/ghidra/Ghidra/Features/SystemEmulation/ghidra_scripts
    /home/analyst/ghidra/Ghidra/Processors/DATA/ghidra_scripts
    /home/analyst/ghidra/Ghidra/Features/PyGhidra/ghidra_scripts
    /home/analyst/ghidra/Ghidra/Features/MicrosoftCodeAnalyzer/ghidra_scripts
    /home/analyst/ghidra/Ghidra/Features/Base/ghidra_scripts
    /home/analyst/ghidra/Ghidra/Features/Jython/ghidra_scripts
    /home/analyst/ghidra/Ghidra/Features/VersionTracking/ghidra_scripts
    /home/analyst/ghidra/Ghidra/Features/PDB/ghidra_scripts
    /home/analyst/ghidra/Ghidra/Processors/Atmel/ghidra_scripts
    /home/analyst/ghidra/Ghidra/Debug/Debugger-rmi-trace/ghidra_scripts
    /home/analyst/ghidra/Ghidra/Features/FileFormats/ghidra_scripts
    /home/analyst/ghidra/Ghidra/Processors/JVM/ghidra_scripts
    /home/analyst/ghidra/Ghidra/Debug/Debugger/ghidra_scripts
    /home/analyst/ghidra/Ghidra/Processors/PIC/ghidra_scripts
    /home/analyst/ghidra/Ghidra/Features/WildcardAssembler/ghidra_scripts
    /home/analyst/ghidra/Ghidra/Processors/8051/ghidra_scripts
    /home/analyst/ghidra/Ghidra/Features/Decompiler/ghidra_scripts
    /home/analyst/ghidra/Ghidra/Features/DecompilerDependent/ghidra_scripts
    /home/analyst/ghidra/Ghidra/Features/FunctionID/ghidra_scripts
    /home/analyst/ghidra/Ghidra/Features/SwiftDemangler/ghidra_scripts
    /home/analyst/ghidra/Ghidra/Features/BSim/ghidra_scripts (HeadlessAnalyzer)  
INFO  HEADLESS: execution starts (HeadlessAnalyzer)  
INFO  Creating temporary project: /home/analyst/ir-alalysis/./ghidra_projects/ghidra_analysis_83a544e3ad03e3dcd9ad3b3a2a26dbbe381eb2e37e3da0616699f70fc3c78abf.exe_20251025_202516 (HeadlessAnalyzer)  
INFO  Creating project: /home/analyst/ir-alalysis/./ghidra_projects/ghidra_analysis_83a544e3ad03e3dcd9ad3b3a2a26dbbe381eb2e37e3da0616699f70fc3c78abf.exe_20251025_202516 (DefaultProject)  
INFO  REPORT: Processing input files:  (HeadlessAnalyzer)  
INFO       project: /home/analyst/ir-alalysis/./ghidra_projects/ghidra_analysis_83a544e3ad03e3dcd9ad3b3a2a26dbbe381eb2e37e3da0616699f70fc3c78abf.exe_20251025_202516 (HeadlessAnalyzer)  
INFO  IMPORTING: file:///home/analyst/ir-alalysis/samples/malware/83a544e3ad03e3dcd9ad3b3a2a26dbbe381eb2e37e3da0616699f70fc3c78abf.exe (HeadlessAnalyzer)  
INFO  Using Loader: Portable Executable (PE) (AutoImporter)  
INFO  Using Language/Compiler: x86:LE:32:default:windows (AutoImporter)  
INFO  Using Library Search Path: [., /bin, /lib, /lib64, /lib/x86_64-linux-gnu, /lib/aarch64-linux-gnu, /usr/bin, /usr/lib, /usr/X11R6/bin, /usr/X11R6/lib, /usr/java/packages/lib, /usr/lib/x86_64-linux-gnu/jni, /usr/lib/x86_64-linux-gnu, /usr/lib/jni] (AutoImporter)  
ERROR Failed to markup Constant: Cannot read field "streamIndex" because "blob" is null (CliStreamMetadata)  
INFO  Removing 6 unused filesystems from cache (FileSystemInstanceManager)  
INFO  Additional info:
Loading file:///home/analyst/ir-alalysis/samples/malware/83a544e3ad03e3dcd9ad3b3a2a26dbbe381eb2e37e3da0616699f70fc3c78abf.exe?MD5=f0b1db72f9655e7930ac105b3d48c2e1...
------------------------------------------------

Searching 9 paths for library MSCOREE.DLL...
Library not found.
------------------------------------------------

Linking the External Programs of '83a544e3ad03e3dcd9ad3b3a2a26dbbe381eb2e37e3da0616699f70fc3c78abf.exe' to imported libraries...
  [MSCOREE.DLL] -> not found in project
------------------------------------------------

 (AutoImporter)  
INFO  IMPORTING: Loaded 0 additional files (HeadlessAnalyzer)  
INFO  ANALYZING all memory and code: file:///home/analyst/ir-alalysis/samples/malware/83a544e3ad03e3dcd9ad3b3a2a26dbbe381eb2e37e3da0616699f70fc3c78abf.exe (HeadlessAnalyzer)  
ERROR REPORT: Analysis timed out at 0 seconds. Processing not completed for file: file:///home/analyst/ir-alalysis/samples/malware/83a544e3ad03e3dcd9ad3b3a2a26dbbe381eb2e37e3da0616699f70fc3c78abf.exe (HeadlessAnalyzer)  
INFO  SCRIPT: /home/analyst/ir-alalysis/scripts/get_cfg_stats.py (HeadlessAnalyzer)  
GHIDRA_STATS:Functions=518
GHIDRA_STATS:BasicBlocks=0
GHIDRA_STATS:TotalPcodeOps=0
INFO  ANALYZING changes made by post scripts: file:///home/analyst/ir-alalysis/samples/malware/83a544e3ad03e3dcd9ad3b3a2a26dbbe381eb2e37e3da0616699f70fc3c78abf.exe (HeadlessAnalyzer)  
INFO  REPORT: Post-analysis succeeded for file: file:///home/analyst/ir-alalysis/samples/malware/83a544e3ad03e3dcd9ad3b3a2a26dbbe381eb2e37e3da0616699f70fc3c78abf.exe (HeadlessAnalyzer)  
INFO  REPORT: Save succeeded for: /83a544e3ad03e3dcd9ad3b3a2a26dbbe381eb2e37e3da0616699f70fc3c78abf.exe (ghidra_analysis_83a544e3ad03e3dcd9ad3b3a2a26dbbe381eb2e37e3da0616699f70fc3c78abf.exe_20251025_202516:/83a544e3ad03e3dcd9ad3b3a2a26dbbe381eb2e37e3da0616699f70fc3c78abf.exe) (HeadlessAnalyzer)  
INFO  REPORT: Import succeeded (HeadlessAnalyzer)  
==========================================
Ghidra analysis completed successfully
==========================================

Ghidra CFG Stats:
GHIDRA_STATS:Functions=518
GHIDRA_STATS:BasicBlocks=0
GHIDRA_STATS:TotalPcodeOps=0

Ghidra Performance:
	Elapsed (wall clock) time (h:mm:ss or m:ss): 0:20.56
	Maximum resident set size (kbytes): 676144

--- angr VEX IR Analysis ---

angr analysis: SUCCESS
==================================================
angr VEX IR Analysis
==================================================
Binary: /home/analyst/ir-alalysis/samples/malware/83a544e3ad03e3dcd9ad3b3a2a26dbbe381eb2e37e3da0616699f70fc3c78abf.exe
==================================================
Loading binary with angr...
Architecture: X86
Entry point: 0x43cf8e
Binary base address: 0x400000

Generating CFG with angr...
Functions discovered: 2
Basic blocks (CFG nodes): 2
CFG edges: 1

Counting VEX IR statements...
Total VEX statements: 2

--- angr CFG & IR Stats ---
ANGR_STATS:Functions=2
ANGR_STATS:Nodes=2
ANGR_STATS:Edges=1
ANGR_STATS:TotalVexStatements=2
---------------------------

Sample functions (first 10):
  - _start @ 0x43cf8e
  - _CorExeMain @ 0x500000
==================================================
angr analysis completed successfully
==================================================

angr CFG Stats:
ANGR_STATS:Functions=2
ANGR_STATS:Nodes=2
ANGR_STATS:Edges=1
ANGR_STATS:TotalVexStatements=2

angr Performance:
	Elapsed (wall clock) time (h:mm:ss or m:ss): 0:01.69
	Maximum resident set size (kbytes): 131448

--- LLVM IR Analysis ---

==========================================
LLVM IR Analysis
==========================================
Binary:  /home/analyst/ir-alalysis/samples/malware/83a544e3ad03e3dcd9ad3b3a2a26dbbe381eb2e37e3da0616699f70fc3c78abf.exe
==========================================

Detected native binary (not LLVM bitcode)
Performing LLVM-based binary analysis...

--- Binary Information ---

/home/analyst/ir-alalysis/samples/malware/83a544e3ad03e3dcd9ad3b3a2a26dbbe381eb2e37e3da0616699f70fc3c78abf.exe:	file format coff-i386

Sections:
Idx Name          Size     VMA      Type
  0 .text         0003af94 00402000 TEXT
  1 .rsrc         00000546 0043e000 DATA
  2 .reloc        0000000c 00440000 DATA

--- Disassembly (first 100 instructions) ---

/home/analyst/ir-alalysis/samples/malware/83a544e3ad03e3dcd9ad3b3a2a26dbbe381eb2e37e3da0616699f70fc3c78abf.exe:	file format coff-i386

Disassembly of section .text:

00402000 <.text>:
  402000: 70 cf                        	jo	0x401fd1
  402002: 03 00                        	addl	(%eax), %eax
  402004: 00 00                        	addb	%al, (%eax)
  402006: 00 00                        	addb	%al, (%eax)
  402008: 48                           	decl	%eax
  402009: 00 00                        	addb	%al, (%eax)
  40200b: 00 02                        	addb	%al, (%edx)
  40200d: 00 05 00 ac 99 02            	addb	%al, 43625472
  402013: 00 8c 35 01 00 03 00         	addb	%cl, 196609(%ebp,%esi)
  40201a: 00 00                        	addb	%al, (%eax)
  40201c: 01 00                        	addl	%eax, (%eax)
  40201e: 00 06                        	addb	%al, (%esi)
		...
  402050: 1d ac a8 f8 d3               	sbbl	$3556288684, %eax       # imm = 0xD3F8A8AC
  402055: b8 48 3e 48 7d               	movl	$2101886536, %eax       # imm = 0x7D483E48
  40205a: 3e 0a 62 07                  	orb	%ds:7(%edx), %ah
  40205e: dd 26                        	frstor	(%esi)
  402060: e6 67                        	outb	%al, $103
  402062: 81 03 e7 b2 13 a5            	addl	$2769531623, (%ebx)     # imm = 0xA513B2E7
  402068: b0 79                        	movb	$121, %al
  40206a: ee                           	outb	%al, %dx
  40206b: 4f                           	decl	%edi
  40206c: 0f 41 15 ed 7b 14 8c         	cmovnol	-1944814611, %edx
  402073: e5 4b                        	inl	$75, %eax
  402075: 46                           	incl	%esi
  402076: 0d c1 8e fe d6               	orl	$3607006913, %eax       # imm = 0xD6FE8EC1
  40207b: e7 27                        	outl	%eax, $39
  40207d: 75 06                        	jne	0x402085 <.text+0x85>
  40207f: 8b 49 00                     	movl	(%ecx), %ecx
  402082: dc 0f                        	fmull	(%edi)
  402084: 30 a0 9e fd 09 85            	xorb	%ah, -2062942818(%eax)
  40208a: f1                           	<unknown>
  40208b: c8 aa 75 c1                  	enter	$30122, $-63            # imm = 0x75AA
  40208f: 08 05 79 01 e2 97            	orb	%al, -1746796167
  402095: d8 af 80 38 60 0b            	fsubrs	190855296(%edi)
  40209b: 71 0e                        	jno	0x4020ab <.text+0xab>
  40209d: 68 53 77 2f 0f               	pushl	$254768979              # imm = 0xF2F7753
  4020a2: 61                           	popal
  4020a3: f6 1d 8e 8f 5c b2            	negb	-1302556786
  4020a9: 3d 21 74 40 4b               	cmpl	$1262515233, %eax       # imm = 0x4B407421
  4020ae: b5 06                        	movb	$6, %ch
  4020b0: 6e                           	outsb	(%esi), %dx
  4020b1: ab                           	stosl	%eax, %es:(%edi)
  4020b2: 7a bd                        	jp	0x402071 <.text+0x71>
  4020b4: 8b a9 7e 32 8f 6e            	movl	1854878334(%ecx), %ebp
  4020ba: 06                           	pushl	%es
  4020bb: 24 d9                        	andb	$-39, %al
  4020bd: 29 a4 a5 be 26 23 fd         	subl	%esp, -48027970(%ebp,%eiz,4)
  4020c4: ee                           	outb	%al, %dx
  4020c5: f1                           	<unknown>
  4020c6: 4c                           	decl	%esp
  4020c7: 0f 74 5e 58                  	pcmpeqb	88(%esi), %mm3
  4020cb: fb                           	sti
  4020cc: 91                           	xchgl	%ecx, %eax
  4020cd: 74 ef                        	je	0x4020be <.text+0xbe>
  4020cf: 91                           	xchgl	%ecx, %eax
  4020d0: 63 6f 6d                     	arpl	%bp, 109(%edi)
  4020d3: 2e 61                        	popal
  4020d5: 70 70                        	jo	0x402147 <.text+0x147>
  4020d7: 6c                           	insb	%dx, %es:(%edi)
  4020d8: 65 2e 53                     	pushl	%ebx
  4020db: 61                           	popal
  4020dc: 66 61                        	popaw
  4020de: 72 69                        	jb	0x402149 <.text+0x149>
  4020e0: b9 02 fa 01 00               	movl	$129538, %ecx           # imm = 0x1FA02
  4020e5: 00 00                        	addb	%al, (%eax)
  4020e7: 00 e1                        	addb	%ah, %cl
  4020e9: f0                           	lock
  4020ea: c3                           	retl
  4020eb: d2 a5 b4 87 96 69            	shlb	%cl, 1771472820(%ebp)
  4020f1: 78 4b                        	js	0x40213e <.text+0x13e>
  4020f3: 5a                           	popl	%edx
  4020f4: 2d 03 0f 1e 34               	subl	$874385155, %eax        # imm = 0x341E0F03
  4020f9: 12 78 56                     	adcb	86(%eax), %bh
  4020fc: ab                           	stosl	%eax, %es:(%edi)
  4020fd: 90                           	nop
  4020fe: ef                           	outl	%eax, %dx
  4020ff: cd 34                        	int	$52
  402101: 12 78 56                     	adcb	86(%eax), %bh
  402104: ab                           	stosl	%eax, %es:(%edi)
  402105: 90                           	nop
  402106: ef                           	outl	%eax, %dx
  402107: cd 7e                        	int	$126
  402109: 00 00                        	addb	%al, (%eax)
  40210b: 00 64 00 00                  	addb	%ah, (%eax,%eax)
  40210f: 00 72 00                     	addb	%dh, (%edx)
  402112: 00 00                        	addb	%al, (%eax)
  402114: 61                           	popal
  402115: 00 00                        	addb	%al, (%eax)
  402117: 00 47 00                     	addb	%al, (%edi)
  40211a: 00 00                        	addb	%al, (%eax)
  40211c: 6f                           	outsl	(%esi), %dx
  40211d: 00 00                        	addb	%al, (%eax)
  40211f: 00 6e 00                     	addb	%ch, (%esi)
  402122: 00 00                        	addb	%al, (%eax)
  402124: 7e 00                        	jle	0x402126 <.text+0x126>
  402126: 00 00                        	addb	%al, (%eax)
  402128: 7e 00                        	jle	0x40212a <.text+0x12a>
  40212a: 00 00                        	addb	%al, (%eax)
  40212c: 46                           	incl	%esi
  40212d: 00 00                        	addb	%al, (%eax)
  40212f: 00 40 00                     	addb	%al, (%eax)
  402132: 00 00                        	addb	%al, (%eax)
  402134: 37                           	aaa
  402135: 00 00                        	addb	%al, (%eax)
  402137: 00 25 00 00 00 6d            	addb	%ah, 1828716544
  40213d: 00 00                        	addb	%al, (%eax)
  40213f: 00 24 00                     	addb	%ah, (%eax,%eax)
  402142: 00 00                        	addb	%al, (%eax)
  402144: 7e 00                        	jle	0x402146 <.text+0x146>
  402146: 00 00                        	addb	%al, (%eax)
  402148: 83 7d 0f 0f                  	cmpl	$15, 15(%ebp)
  40214c: 8e b3 e8 69 73 af            	<unknown>
  402152: ff 00                        	incl	(%eax)
  402154: 00 00                        	addb	%al, (%eax)
  402156: 00 00                        	addb	%al, (%eax)
  402158: 35 e0 85 30 8a               	xorl	$2318435808, %eax       # imm = 0x8A3085E0
  40215d: 6d                           	insl	%dx, %es:(%edi)
  40215e: 91                           	xchgl	%ecx, %eax
  40215f: a3 96 5f f2 37               	movl	%eax, 938631062
  402164: 95                           	xchgl	%ebp, %eax
  402165: d1 cf                        	rorl	%edi
  402167: 36 71 de                     	jno	0x402148 <.text+0x148>
  40216a: 7e 5b                        	jle	0x4021c7 <.text+0x1c7>
  40216c: 62 38                        	bound	%edi, (%eax)
  40216e: d5 fb                        	aad	$-5
  402170: db 64 a6 4b                  	<unknown>
  402174: d3 5a 05                     	rcrl	%cl, 5(%edx)
  402177: 53                           	pushl	%ebx
  402178: 98                           	cwtl
  402179: 0f 68 ce                     	punpckhbw	%mm6, %mm1      # mm1 = mm1[4],mm6[4],mm1[5],mm6[5],mm1[6],mm6[6],mm1[7],mm6[7]
  40217c: 77 43                        	ja	0x4021c1 <.text+0x1c1>
  40217e: 4c                           	decl	%esp
  40217f: 47                           	incl	%edi
  402180: f9                           	stc
  402181: e9 0e 82 f4 6b               	jmp	0x6c34a394
  402186: 4c                           	decl	%esp
  402187: eb 17                        	jmp	0x4021a0 <.text+0x1a0>
  402189: 52                           	pushl	%edx
  40218a: 6b 06 23                     	imull	$35, (%esi), %eax
  40218d: 4e                           	decl	%esi
  40218e: 58                           	popl	%eax
  40218f: 07                           	popl	%es
  402190: 01 06                        	addl	%eax, (%esi)

--- Symbol Table (first 50 entries) ---

/home/analyst/ir-alalysis/samples/malware/83a544e3ad03e3dcd9ad3b3a2a26dbbe381eb2e37e3da0616699f70fc3c78abf.exe:	file format coff-i386

SYMBOL TABLE:

NOTE: For true binary-to-LLVM IR lifting, consider using:
  - mcsema: https://github.com/lifting-bits/mcsema
  - remill: https://github.com/lifting-bits/remill
  - rellic: https://github.com/lifting-bits/rellic

==========================================
LLVM analysis completed successfully
==========================================
LLVM analysis: SUCCESS
	Command being timed: "/home/analyst/ir-alalysis/scripts/analyze_llvm.sh /home/analyst/ir-alalysis/samples/malware/83a544e3ad03e3dcd9ad3b3a2a26dbbe381eb2e37e3da0616699f70fc3c78abf.exe"
	User time (seconds): 0.02
	System time (seconds): 0.06
	Percent of CPU this job got: 83%
	Elapsed (wall clock) time (h:mm:ss or m:ss): 0:00.10
	Average shared text size (kbytes): 0
	Average unshared data size (kbytes): 0
	Average stack size (kbytes): 0
	Average total size (kbytes): 0
	Maximum resident set size (kbytes): 51712
	Average resident set size (kbytes): 0
	Major (requiring I/O) page faults: 0
	Minor (reclaiming a frame) page faults: 10133
	Voluntary context switches: 103
	Involuntary context switches: 184
	Swaps: 0
	File system inputs: 0
	File system outputs: 16
	Socket messages sent: 0
	Socket messages received: 0
	Signals delivered: 0
	Page size (bytes): 4096
	Exit status: 0

Completed: 83a544e3ad03e3dcd9ad3b3a2a26dbbe381eb2e37e3da0616699f70fc3c78abf.exe

========================================
Processing sample 28: 85568a492e1e2db324b7c6ff9fa734d30b4968c71193ebb442dc23bc36d01e0e.elf
========================================

--- Ghidra P-code Analysis ---

Ghidra analysis: SUCCESS
==========================================
Ghidra Headless Analysis
==========================================
Binary:  /home/analyst/ir-alalysis/samples/malware/85568a492e1e2db324b7c6ff9fa734d30b4968c71193ebb442dc23bc36d01e0e.elf
Project: ghidra_analysis_85568a492e1e2db324b7c6ff9fa734d30b4968c71193ebb442dc23bc36d01e0e.elf_20251025_202539
Location: ./ghidra_projects
==========================================
INFO  Using log config file: jar:file:/home/analyst/ghidra/Ghidra/Framework/Generic/lib/Generic.jar!/generic.log4j.xml (LoggingInitialization)  
INFO  Using log file: /home/analyst/.config/ghidra/ghidra_11.4.2_PUBLIC/application.log (LoggingInitialization)  
INFO  Loading user preferences: /home/analyst/.config/ghidra/ghidra_11.4.2_PUBLIC/preferences (Preferences)  
INFO  Searching for classes... (ClassSearcher)  
INFO  Class search complete (1041 ms) (ClassSearcher)  
INFO  Initializing SSL Context (SSLContextInitializer)  
INFO  Initializing Random Number Generator... (SecureRandomFactory)  
INFO  Random Number Generator initialization complete: NativePRNGNonBlocking (SecureRandomFactory)  
INFO  Trust manager disabled, cacerts have not been set (ApplicationTrustManagerFactory)  
INFO  Headless startup complete (3961 ms) (AnalyzeHeadless)  
INFO  Class searcher loaded 58 extension points (18 false positives) (ClassSearcher)  
INFO  HEADLESS Script Paths:
    /home/analyst/ghidra/Ghidra/Features/GnuDemangler/ghidra_scripts
    /home/analyst/ghidra/Ghidra/Features/BytePatterns/ghidra_scripts
    /home/analyst/ghidra/Ghidra/Features/SystemEmulation/ghidra_scripts
    /home/analyst/ghidra/Ghidra/Processors/DATA/ghidra_scripts
    /home/analyst/ghidra/Ghidra/Features/PyGhidra/ghidra_scripts
    /home/analyst/ghidra/Ghidra/Features/MicrosoftCodeAnalyzer/ghidra_scripts
    /home/analyst/ghidra/Ghidra/Features/Base/ghidra_scripts
    /home/analyst/ghidra/Ghidra/Features/Jython/ghidra_scripts
    /home/analyst/ghidra/Ghidra/Features/VersionTracking/ghidra_scripts
    /home/analyst/ghidra/Ghidra/Features/PDB/ghidra_scripts
    /home/analyst/ghidra/Ghidra/Processors/Atmel/ghidra_scripts
    /home/analyst/ghidra/Ghidra/Debug/Debugger-rmi-trace/ghidra_scripts
    /home/analyst/ghidra/Ghidra/Features/FileFormats/ghidra_scripts
    /home/analyst/ghidra/Ghidra/Processors/JVM/ghidra_scripts
    /home/analyst/ghidra/Ghidra/Debug/Debugger/ghidra_scripts
    /home/analyst/ghidra/Ghidra/Processors/PIC/ghidra_scripts
    /home/analyst/ghidra/Ghidra/Features/WildcardAssembler/ghidra_scripts
    /home/analyst/ghidra/Ghidra/Processors/8051/ghidra_scripts
    /home/analyst/ghidra/Ghidra/Features/Decompiler/ghidra_scripts
    /home/analyst/ghidra/Ghidra/Features/DecompilerDependent/ghidra_scripts
    /home/analyst/ghidra/Ghidra/Features/FunctionID/ghidra_scripts
    /home/analyst/ghidra/Ghidra/Features/SwiftDemangler/ghidra_scripts
    /home/analyst/ghidra/Ghidra/Features/BSim/ghidra_scripts (HeadlessAnalyzer)  
INFO  HEADLESS: execution starts (HeadlessAnalyzer)  
INFO  Creating temporary project: /home/analyst/ir-alalysis/./ghidra_projects/ghidra_analysis_85568a492e1e2db324b7c6ff9fa734d30b4968c71193ebb442dc23bc36d01e0e.elf_20251025_202539 (HeadlessAnalyzer)  
INFO  Creating project: /home/analyst/ir-alalysis/./ghidra_projects/ghidra_analysis_85568a492e1e2db324b7c6ff9fa734d30b4968c71193ebb442dc23bc36d01e0e.elf_20251025_202539 (DefaultProject)  
INFO  REPORT: Processing input files:  (HeadlessAnalyzer)  
INFO       project: /home/analyst/ir-alalysis/./ghidra_projects/ghidra_analysis_85568a492e1e2db324b7c6ff9fa734d30b4968c71193ebb442dc23bc36d01e0e.elf_20251025_202539 (HeadlessAnalyzer)  
INFO  IMPORTING: file:///home/analyst/ir-alalysis/samples/malware/85568a492e1e2db324b7c6ff9fa734d30b4968c71193ebb442dc23bc36d01e0e.elf (HeadlessAnalyzer)  
INFO  Using Loader: Executable and Linking Format (ELF) (AutoImporter)  
INFO  Using Language/Compiler: x86:LE:32:default:gcc (AutoImporter)  
INFO  Using Library Search Path: [., /bin, /lib, /lib64, /lib/x86_64-linux-gnu, /lib/aarch64-linux-gnu, /usr/bin, /usr/lib, /usr/X11R6/bin, /usr/X11R6/lib, /usr/java/packages/lib, /usr/lib/x86_64-linux-gnu/jni, /usr/lib/x86_64-linux-gnu, /usr/lib/jni] (AutoImporter)  
INFO  Additional info:
Loading file:///home/analyst/ir-alalysis/samples/malware/85568a492e1e2db324b7c6ff9fa734d30b4968c71193ebb442dc23bc36d01e0e.elf?MD5=b2e47a70657f8ec007d962da5175a069...
Skipping zero-length segment [1,Loadable segment] at address ram:08060d40
------------------------------------------------

 (AutoImporter)  
INFO  IMPORTING: Loaded 0 additional files (HeadlessAnalyzer)  
INFO  ANALYZING all memory and code: file:///home/analyst/ir-alalysis/samples/malware/85568a492e1e2db324b7c6ff9fa734d30b4968c71193ebb442dc23bc36d01e0e.elf (HeadlessAnalyzer)  
ERROR REPORT: Analysis timed out at 0 seconds. Processing not completed for file: file:///home/analyst/ir-alalysis/samples/malware/85568a492e1e2db324b7c6ff9fa734d30b4968c71193ebb442dc23bc36d01e0e.elf (HeadlessAnalyzer)  
INFO  SCRIPT: /home/analyst/ir-alalysis/scripts/get_cfg_stats.py (HeadlessAnalyzer)  
GHIDRA_STATS:Functions=1
GHIDRA_STATS:BasicBlocks=0
GHIDRA_STATS:TotalPcodeOps=0
INFO  ANALYZING changes made by post scripts: file:///home/analyst/ir-alalysis/samples/malware/85568a492e1e2db324b7c6ff9fa734d30b4968c71193ebb442dc23bc36d01e0e.elf (HeadlessAnalyzer)  
INFO  REPORT: Post-analysis succeeded for file: file:///home/analyst/ir-alalysis/samples/malware/85568a492e1e2db324b7c6ff9fa734d30b4968c71193ebb442dc23bc36d01e0e.elf (HeadlessAnalyzer)  
INFO  REPORT: Save succeeded for: /85568a492e1e2db324b7c6ff9fa734d30b4968c71193ebb442dc23bc36d01e0e.elf (ghidra_analysis_85568a492e1e2db324b7c6ff9fa734d30b4968c71193ebb442dc23bc36d01e0e.elf_20251025_202539:/85568a492e1e2db324b7c6ff9fa734d30b4968c71193ebb442dc23bc36d01e0e.elf) (HeadlessAnalyzer)  
INFO  REPORT: Import succeeded (HeadlessAnalyzer)  
==========================================
Ghidra analysis completed successfully
==========================================

Ghidra CFG Stats:
GHIDRA_STATS:Functions=1
GHIDRA_STATS:BasicBlocks=0
GHIDRA_STATS:TotalPcodeOps=0

Ghidra Performance:
	Elapsed (wall clock) time (h:mm:ss or m:ss): 0:15.63
	Maximum resident set size (kbytes): 677656

--- angr VEX IR Analysis ---

angr analysis: SUCCESS
==================================================
angr VEX IR Analysis
==================================================
Binary: /home/analyst/ir-alalysis/samples/malware/85568a492e1e2db324b7c6ff9fa734d30b4968c71193ebb442dc23bc36d01e0e.elf
==================================================
Loading binary with angr...
Architecture: X86
Entry point: 0xc0a2a8
Binary base address: 0xc01000

Generating CFG with angr...
Functions discovered: 2102
Basic blocks (CFG nodes): 4028
CFG edges: 2531

Counting VEX IR statements...
Total VEX statements: 178837

--- angr CFG & IR Stats ---
ANGR_STATS:Functions=2102
ANGR_STATS:Nodes=4028
ANGR_STATS:Edges=2531
ANGR_STATS:TotalVexStatements=178837
---------------------------

Sample functions (first 10):
  - sub_c01000 @ 0xc01000
  - sub_c010c3 @ 0xc010c3
  - sub_c010c7 @ 0xc010c7
  - sub_c010ce @ 0xc010ce
  - sub_c010f1 @ 0xc010f1
  - sub_c01103 @ 0xc01103
  - sub_c01109 @ 0xc01109
  - sub_c0113e @ 0xc0113e
  - sub_c01151 @ 0xc01151
  - sub_c0116f @ 0xc0116f
==================================================
angr analysis completed successfully
==================================================

angr CFG Stats:
ANGR_STATS:Functions=2102
ANGR_STATS:Nodes=4028
ANGR_STATS:Edges=2531
ANGR_STATS:TotalVexStatements=178837

angr Performance:
	Elapsed (wall clock) time (h:mm:ss or m:ss): 0:11.46
	Maximum resident set size (kbytes): 193244

--- LLVM IR Analysis ---

==========================================
LLVM IR Analysis
==========================================
Binary:  /home/analyst/ir-alalysis/samples/malware/85568a492e1e2db324b7c6ff9fa734d30b4968c71193ebb442dc23bc36d01e0e.elf
==========================================

Detected native binary (not LLVM bitcode)
Performing LLVM-based binary analysis...

--- Binary Information ---

/home/analyst/ir-alalysis/samples/malware/85568a492e1e2db324b7c6ff9fa734d30b4968c71193ebb442dc23bc36d01e0e.elf:	file format elf32-i386

Sections:
Idx Name          Size     VMA      Type

--- Disassembly (first 100 instructions) ---

/home/analyst/ir-alalysis/samples/malware/85568a492e1e2db324b7c6ff9fa734d30b4968c71193ebb442dc23bc36d01e0e.elf:	file format elf32-i386

--- Symbol Table (first 50 entries) ---

/home/analyst/ir-alalysis/samples/malware/85568a492e1e2db324b7c6ff9fa734d30b4968c71193ebb442dc23bc36d01e0e.elf:	file format elf32-i386

SYMBOL TABLE:

NOTE: For true binary-to-LLVM IR lifting, consider using:
  - mcsema: https://github.com/lifting-bits/mcsema
  - remill: https://github.com/lifting-bits/remill
  - rellic: https://github.com/lifting-bits/rellic

==========================================
LLVM analysis completed successfully
==========================================
LLVM analysis: SUCCESS
	Command being timed: "/home/analyst/ir-alalysis/scripts/analyze_llvm.sh /home/analyst/ir-alalysis/samples/malware/85568a492e1e2db324b7c6ff9fa734d30b4968c71193ebb442dc23bc36d01e0e.elf"
	User time (seconds): 0.03
	System time (seconds): 0.05
	Percent of CPU this job got: 80%
	Elapsed (wall clock) time (h:mm:ss or m:ss): 0:00.11
	Average shared text size (kbytes): 0
	Average unshared data size (kbytes): 0
	Average stack size (kbytes): 0
	Average total size (kbytes): 0
	Maximum resident set size (kbytes): 50816
	Average resident set size (kbytes): 0
	Major (requiring I/O) page faults: 0
	Minor (reclaiming a frame) page faults: 9957
	Voluntary context switches: 19
	Involuntary context switches: 55
	Swaps: 0
	File system inputs: 0
	File system outputs: 8
	Socket messages sent: 0
	Socket messages received: 0
	Signals delivered: 0
	Page size (bytes): 4096
	Exit status: 0

Completed: 85568a492e1e2db324b7c6ff9fa734d30b4968c71193ebb442dc23bc36d01e0e.elf

========================================
Processing sample 29: 89c3239f7fc90a3d56d89948ba2aef3459b903af6fa1c503824456df13c3ebfc.exe
========================================

--- Ghidra P-code Analysis ---

Ghidra analysis: SUCCESS
==========================================
Ghidra Headless Analysis
==========================================
Binary:  /home/analyst/ir-alalysis/samples/malware/89c3239f7fc90a3d56d89948ba2aef3459b903af6fa1c503824456df13c3ebfc.exe
Project: ghidra_analysis_89c3239f7fc90a3d56d89948ba2aef3459b903af6fa1c503824456df13c3ebfc.exe_20251025_202606
Location: ./ghidra_projects
==========================================
INFO  Using log config file: jar:file:/home/analyst/ghidra/Ghidra/Framework/Generic/lib/Generic.jar!/generic.log4j.xml (LoggingInitialization)  
INFO  Using log file: /home/analyst/.config/ghidra/ghidra_11.4.2_PUBLIC/application.log (LoggingInitialization)  
INFO  Loading user preferences: /home/analyst/.config/ghidra/ghidra_11.4.2_PUBLIC/preferences (Preferences)  
INFO  Searching for classes... (ClassSearcher)  
INFO  Class search complete (1051 ms) (ClassSearcher)  
INFO  Initializing SSL Context (SSLContextInitializer)  
INFO  Initializing Random Number Generator... (SecureRandomFactory)  
INFO  Random Number Generator initialization complete: NativePRNGNonBlocking (SecureRandomFactory)  
INFO  Trust manager disabled, cacerts have not been set (ApplicationTrustManagerFactory)  
INFO  Headless startup complete (4176 ms) (AnalyzeHeadless)  
INFO  Class searcher loaded 58 extension points (18 false positives) (ClassSearcher)  
INFO  HEADLESS Script Paths:
    /home/analyst/ghidra/Ghidra/Features/GnuDemangler/ghidra_scripts
    /home/analyst/ghidra/Ghidra/Features/BytePatterns/ghidra_scripts
    /home/analyst/ghidra/Ghidra/Features/SystemEmulation/ghidra_scripts
    /home/analyst/ghidra/Ghidra/Processors/DATA/ghidra_scripts
    /home/analyst/ghidra/Ghidra/Features/PyGhidra/ghidra_scripts
    /home/analyst/ghidra/Ghidra/Features/MicrosoftCodeAnalyzer/ghidra_scripts
    /home/analyst/ghidra/Ghidra/Features/Base/ghidra_scripts
    /home/analyst/ghidra/Ghidra/Features/Jython/ghidra_scripts
    /home/analyst/ghidra/Ghidra/Features/VersionTracking/ghidra_scripts
    /home/analyst/ghidra/Ghidra/Features/PDB/ghidra_scripts
    /home/analyst/ghidra/Ghidra/Processors/Atmel/ghidra_scripts
    /home/analyst/ghidra/Ghidra/Debug/Debugger-rmi-trace/ghidra_scripts
    /home/analyst/ghidra/Ghidra/Features/FileFormats/ghidra_scripts
    /home/analyst/ghidra/Ghidra/Processors/JVM/ghidra_scripts
    /home/analyst/ghidra/Ghidra/Debug/Debugger/ghidra_scripts
    /home/analyst/ghidra/Ghidra/Processors/PIC/ghidra_scripts
    /home/analyst/ghidra/Ghidra/Features/WildcardAssembler/ghidra_scripts
    /home/analyst/ghidra/Ghidra/Processors/8051/ghidra_scripts
    /home/analyst/ghidra/Ghidra/Features/Decompiler/ghidra_scripts
    /home/analyst/ghidra/Ghidra/Features/DecompilerDependent/ghidra_scripts
    /home/analyst/ghidra/Ghidra/Features/FunctionID/ghidra_scripts
    /home/analyst/ghidra/Ghidra/Features/SwiftDemangler/ghidra_scripts
    /home/analyst/ghidra/Ghidra/Features/BSim/ghidra_scripts (HeadlessAnalyzer)  
INFO  HEADLESS: execution starts (HeadlessAnalyzer)  
INFO  Creating temporary project: /home/analyst/ir-alalysis/./ghidra_projects/ghidra_analysis_89c3239f7fc90a3d56d89948ba2aef3459b903af6fa1c503824456df13c3ebfc.exe_20251025_202606 (HeadlessAnalyzer)  
INFO  Creating project: /home/analyst/ir-alalysis/./ghidra_projects/ghidra_analysis_89c3239f7fc90a3d56d89948ba2aef3459b903af6fa1c503824456df13c3ebfc.exe_20251025_202606 (DefaultProject)  
INFO  REPORT: Processing input files:  (HeadlessAnalyzer)  
INFO       project: /home/analyst/ir-alalysis/./ghidra_projects/ghidra_analysis_89c3239f7fc90a3d56d89948ba2aef3459b903af6fa1c503824456df13c3ebfc.exe_20251025_202606 (HeadlessAnalyzer)  
INFO  IMPORTING: file:///home/analyst/ir-alalysis/samples/malware/89c3239f7fc90a3d56d89948ba2aef3459b903af6fa1c503824456df13c3ebfc.exe (HeadlessAnalyzer)  
INFO  Using Loader: Portable Executable (PE) (AutoImporter)  
INFO  Using Language/Compiler: x86:LE:32:default:borlanddelphi (AutoImporter)  
INFO  Using Library Search Path: [., /bin, /lib, /lib64, /lib/x86_64-linux-gnu, /lib/aarch64-linux-gnu, /usr/bin, /usr/lib, /usr/X11R6/bin, /usr/X11R6/lib, /usr/java/packages/lib, /usr/lib/x86_64-linux-gnu/jni, /usr/lib/x86_64-linux-gnu, /usr/lib/jni] (AutoImporter)  
INFO  TLS callbacks at 57b010 (TLSDirectory)  
INFO  Removing 6 unused filesystems from cache (FileSystemInstanceManager)  
INFO  Additional info:
Loading file:///home/analyst/ir-alalysis/samples/malware/89c3239f7fc90a3d56d89948ba2aef3459b903af6fa1c503824456df13c3ebfc.exe?MD5=4f2fd295f9121e3e7347ba101e30bff4...
------------------------------------------------

Searching 9 paths for library ADVAPI32.DLL...
Library not found.
------------------------------------------------

Searching 9 paths for library COMCTL32.DLL...
Library not found.
------------------------------------------------

Searching 9 paths for library GDI32.DLL...
Library not found.
------------------------------------------------

Searching 9 paths for library KERNEL32.DLL...
Library not found.
------------------------------------------------

Searching 9 paths for library MSIMG32.DLL...
Library not found.
------------------------------------------------

Searching 9 paths for library OLEAUT32.DLL...
Library not found.
------------------------------------------------

Searching 9 paths for library USER32.DLL...
Library not found.
------------------------------------------------

Searching 9 paths for library VERSION.DLL...
Library not found.
------------------------------------------------

Linking the External Programs of '89c3239f7fc90a3d56d89948ba2aef3459b903af6fa1c503824456df13c3ebfc.exe' to imported libraries...
  [OLEAUT32.DLL] -> not found in project
  [ADVAPI32.DLL] -> not found in project
  [USER32.DLL] -> not found in project
  [KERNEL32.DLL] -> not found in project
  [MSIMG32.DLL] -> not found in project
  [GDI32.DLL] -> not found in project
  [VERSION.DLL] -> not found in project
  [COMCTL32.DLL] -> not found in project
------------------------------------------------

 (AutoImporter)  
INFO  IMPORTING: Loaded 0 additional files (HeadlessAnalyzer)  
INFO  ANALYZING all memory and code: file:///home/analyst/ir-alalysis/samples/malware/89c3239f7fc90a3d56d89948ba2aef3459b903af6fa1c503824456df13c3ebfc.exe (HeadlessAnalyzer)  
ERROR REPORT: Analysis timed out at 0 seconds. Processing not completed for file: file:///home/analyst/ir-alalysis/samples/malware/89c3239f7fc90a3d56d89948ba2aef3459b903af6fa1c503824456df13c3ebfc.exe (HeadlessAnalyzer)  
INFO  SCRIPT: /home/analyst/ir-alalysis/scripts/get_cfg_stats.py (HeadlessAnalyzer)  
GHIDRA_STATS:Functions=1
GHIDRA_STATS:BasicBlocks=0
GHIDRA_STATS:TotalPcodeOps=0
INFO  ANALYZING changes made by post scripts: file:///home/analyst/ir-alalysis/samples/malware/89c3239f7fc90a3d56d89948ba2aef3459b903af6fa1c503824456df13c3ebfc.exe (HeadlessAnalyzer)  
INFO  REPORT: Post-analysis succeeded for file: file:///home/analyst/ir-alalysis/samples/malware/89c3239f7fc90a3d56d89948ba2aef3459b903af6fa1c503824456df13c3ebfc.exe (HeadlessAnalyzer)  
INFO  REPORT: Save succeeded for: /89c3239f7fc90a3d56d89948ba2aef3459b903af6fa1c503824456df13c3ebfc.exe (ghidra_analysis_89c3239f7fc90a3d56d89948ba2aef3459b903af6fa1c503824456df13c3ebfc.exe_20251025_202606:/89c3239f7fc90a3d56d89948ba2aef3459b903af6fa1c503824456df13c3ebfc.exe) (HeadlessAnalyzer)  
INFO  REPORT: Import succeeded (HeadlessAnalyzer)  
==========================================
Ghidra analysis completed successfully
==========================================

Ghidra CFG Stats:
GHIDRA_STATS:Functions=1
GHIDRA_STATS:BasicBlocks=0
GHIDRA_STATS:TotalPcodeOps=0

Ghidra Performance:
	Elapsed (wall clock) time (h:mm:ss or m:ss): 0:18.47
	Maximum resident set size (kbytes): 669728

--- angr VEX IR Analysis ---

angr analysis: SUCCESS
==================================================
angr VEX IR Analysis
==================================================
Binary: /home/analyst/ir-alalysis/samples/malware/89c3239f7fc90a3d56d89948ba2aef3459b903af6fa1c503824456df13c3ebfc.exe
==================================================
Loading binary with angr...
Architecture: X86
Entry point: 0x47481c
Binary base address: 0x400000

Generating CFG with angr...
Functions discovered: 11145
Basic blocks (CFG nodes): 44487
CFG edges: 79114

Counting VEX IR statements...
Total VEX statements: 1016392

--- angr CFG & IR Stats ---
ANGR_STATS:Functions=11145
ANGR_STATS:Nodes=44487
ANGR_STATS:Edges=79114
ANGR_STATS:TotalVexStatements=1016392
---------------------------

Sample functions (first 10):
  - sub_401004 @ 0x401004
  - sub_40100a @ 0x40100a
  - sub_40100d @ 0x40100d
  - sub_401044 @ 0x401044
  - sub_401051 @ 0x401051
  - sub_401070 @ 0x401070
  - sub_401093 @ 0x401093
  - sub_401098 @ 0x401098
  - sub_40109f @ 0x40109f
  - sub_4010f0 @ 0x4010f0
==================================================
angr analysis completed successfully
==================================================

angr CFG Stats:
ANGR_STATS:Functions=11145
ANGR_STATS:Nodes=44487
ANGR_STATS:Edges=79114
ANGR_STATS:TotalVexStatements=1016392

angr Performance:
	Elapsed (wall clock) time (h:mm:ss or m:ss): 0:58.20
	Maximum resident set size (kbytes): 699020

--- LLVM IR Analysis ---

==========================================
LLVM IR Analysis
==========================================
Binary:  /home/analyst/ir-alalysis/samples/malware/89c3239f7fc90a3d56d89948ba2aef3459b903af6fa1c503824456df13c3ebfc.exe
==========================================

Detected native binary (not LLVM bitcode)
Performing LLVM-based binary analysis...

--- Binary Information ---

/home/analyst/ir-alalysis/samples/malware/89c3239f7fc90a3d56d89948ba2aef3459b903af6fa1c503824456df13c3ebfc.exe:	file format coff-i386

Sections:
Idx Name          Size     VMA      Type
  0 .text         000721b0 00401000 TEXT
  1 .itext        00000864 00474000 TEXT
  2 .data         000fdd8c 00475000 DATA
  3 .bss          00000000 00573000 
  4 .idata        000027a4 00577000 DATA
  5 .tls          00000000 0057a000 
  6 .rdata        00000018 0057b000 DATA
  7 .reloc        000070a4 0057c000 DATA
  8 .rsrc         0000cc00 00584000 DATA

--- Disassembly (first 100 instructions) ---

/home/analyst/ir-alalysis/samples/malware/89c3239f7fc90a3d56d89948ba2aef3459b903af6fa1c503824456df13c3ebfc.exe:	file format coff-i386

Disassembly of section .text:

00401000 <.text>:
  401000: 04 10                        	addb	$16, %al
  401002: 40                           	incl	%eax
  401003: 00 03                        	addb	%al, (%ebx)
  401005: 07                           	popl	%es
  401006: 42                           	incl	%edx
  401007: 6f                           	outsl	(%esi), %dx
  401008: 6f                           	outsl	(%esi), %dx
  401009: 6c                           	insb	%dx, %es:(%edi)
  40100a: 65 61                        	popal
  40100c: 6e                           	outsb	(%esi), %dx
  40100d: 01 00                        	addl	%eax, (%eax)
  40100f: 00 00                        	addb	%al, (%eax)
  401011: 00 01                        	addb	%al, (%ecx)
  401013: 00 00                        	addb	%al, (%eax)
  401015: 00 00                        	addb	%al, (%eax)
  401017: 10 40 00                     	adcb	%al, (%eax)
  40101a: 05 46 61 6c 73               	addl	$1936482630, %eax       # imm = 0x736C6146
  40101f: 65 04 54                     	addb	$84, %al
  401022: 72 75                        	jb	0x401099 <.text+0x99>
  401024: 65 8d 40 00                  	leal	%gs:(%eax), %eax
  401028: 2c 10                        	subb	$16, %al
  40102a: 40                           	incl	%eax
  40102b: 00 02                        	addb	%al, (%edx)
  40102d: 04 43                        	addb	$67, %al
  40102f: 68 61 72 01 00               	pushl	$94817                  # imm = 0x17261
  401034: 00 00                        	addb	%al, (%eax)
  401036: 00 ff                        	addb	%bh, %bh
  401038: 00 00                        	addb	%al, (%eax)
  40103a: 00 90 40 10 40 00            	addb	%dl, 4198464(%eax)
  401040: 01 07                        	addl	%eax, (%edi)
  401042: 49                           	decl	%ecx
  401043: 6e                           	outsb	(%esi), %dx
  401044: 74 65                        	je	0x4010ab <.text+0xab>
  401046: 67 65 72 04                  	jb	0x40104e <.text+0x4e>
  40104a: 00 00                        	addb	%al, (%eax)
  40104c: 00 80 ff ff ff 7f            	addb	%al, 2147483647(%eax)
  401052: 8b c0                        	movl	%eax, %eax
  401054: 58                           	popl	%eax
  401055: 10 40 00                     	adcb	%al, (%eax)
  401058: 01 04 42                     	addl	%eax, (%edx,%eax,2)
  40105b: 79 74                        	jns	0x4010d1 <.text+0xd1>
  40105d: 65 01 00                     	addl	%eax, %gs:(%eax)
  401060: 00 00                        	addb	%al, (%eax)
  401062: 00 ff                        	addb	%bh, %bh
  401064: 00 00                        	addb	%al, (%eax)
  401066: 00 90 6c 10 40 00            	addb	%dl, 4198508(%eax)
  40106c: 01 04 57                     	addl	%eax, (%edi,%edx,2)
  40106f: 6f                           	outsl	(%esi), %dx
  401070: 72 64                        	jb	0x4010d6 <.text+0xd6>
  401072: 03 00                        	addl	(%eax), %eax
  401074: 00 00                        	addb	%al, (%eax)
  401076: 00 ff                        	addb	%bh, %bh
  401078: ff 00                        	incl	(%eax)
  40107a: 00 90 80 10 40 00            	addb	%dl, 4198528(%eax)
  401080: 01 08                        	addl	%ecx, (%eax)
  401082: 43                           	incl	%ebx
  401083: 61                           	popal
  401084: 72 64                        	jb	0x4010ea <.text+0xea>
  401086: 69 6e 61 6c 05 00 00         	imull	$1388, 97(%esi), %ebp   # imm = 0x56C
  40108d: 00 00                        	addb	%al, (%eax)
  40108f: ff ff                        	<unknown>
  401091: ff ff                        	<unknown>
  401093: 90                           	nop
  401094: 98                           	cwtl
  401095: 10 40 00                     	adcb	%al, (%eax)
  401098: 0a 06                        	orb	(%esi), %al
  40109a: 73 74                        	jae	0x401110 <.text+0x110>
  40109c: 72 69                        	jb	0x401107 <.text+0x107>
  40109e: 6e                           	outsb	(%esi), %dx
  40109f: 67 ec                        	inb	%dx, %al
  4010a1: 10 40 00                     	adcb	%al, (%eax)
		...
  4010c0: ec                           	inb	%dx, %al
  4010c1: 10 40 00                     	adcb	%al, (%eax)
  4010c4: 04 00                        	addb	$0, %al
  4010c6: 00 00                        	addb	%al, (%eax)
  4010c8: 00 00                        	addb	%al, (%eax)
  4010ca: 00 00                        	addb	%al, (%eax)
  4010cc: 50                           	pushl	%eax
  4010cd: 3c 40                        	cmpb	$64, %al
  4010cf: 00 5c 3c 40                  	addb	%bl, 64(%esp,%edi)
  4010d3: 00 60 3c                     	addb	%ah, 60(%eax)
  4010d6: 40                           	incl	%eax
  4010d7: 00 64 3c 40                  	addb	%ah, 64(%esp,%edi)
  4010db: 00 58 3c                     	addb	%bl, 60(%eax)
  4010de: 40                           	incl	%eax
  4010df: 00 a0 39 40 00 bc            	addb	%ah, -1140834247(%eax)
  4010e5: 39 40 00                     	cmpl	%eax, (%eax)
  4010e8: f8                           	clc
  4010e9: 39 40 00                     	cmpl	%eax, (%eax)
  4010ec: 07                           	popl	%es
  4010ed: 54                           	pushl	%esp
  4010ee: 4f                           	decl	%edi
  4010ef: 62 6a 65                     	bound	%ebp, 101(%edx)
  4010f2: 63 74 f8 10                  	arpl	%si, 16(%eax,%edi,8)
  4010f6: 40                           	incl	%eax
  4010f7: 00 07                        	addb	%al, (%edi)
  4010f9: 07                           	popl	%es
  4010fa: 54                           	pushl	%esp
  4010fb: 4f                           	decl	%edi
  4010fc: 62 6a 65                     	bound	%ebp, 101(%edx)
  4010ff: 63 74 ec 10                  	arpl	%si, 16(%esp,%ebp,8)
  401103: 40                           	incl	%eax
  401104: 00 00                        	addb	%al, (%eax)
  401106: 00 00                        	addb	%al, (%eax)
  401108: 00 00                        	addb	%al, (%eax)
  40110a: 00 06                        	addb	%al, (%esi)
  40110c: 53                           	pushl	%ebx
  40110d: 79 73                        	jns	0x401182 <.text+0x182>
  40110f: 74 65                        	je	0x401176 <.text+0x176>
  401111: 6d                           	insl	%dx, %es:(%edi)
  401112: 00 00                        	addb	%al, (%eax)
  401114: 18 11                        	sbbb	%dl, (%ecx)
  401116: 40                           	incl	%eax
  401117: 00 0f                        	addb	%cl, (%edi)
  401119: 0a 49 49                     	orb	73(%ecx), %cl
  40111c: 6e                           	outsb	(%esi), %dx
  40111d: 74 65                        	je	0x401184 <.text+0x184>
  40111f: 72 66                        	jb	0x401187 <.text+0x187>
  401121: 61                           	popal
  401122: 63 65 00                     	arpl	%sp, (%ebp)
  401125: 00 00                        	addb	%al, (%eax)
  401127: 00 01                        	addb	%al, (%ecx)
		...
  401131: c0 00 00                     	rolb	$0, (%eax)
  401134: 00 00                        	addb	%al, (%eax)
  401136: 00 00                        	addb	%al, (%eax)
  401138: 46                           	incl	%esi
  401139: 06                           	pushl	%es
  40113a: 53                           	pushl	%ebx
  40113b: 79 73                        	jns	0x4011b0 <.text+0x1b0>
  40113d: 74 65                        	je	0x4011a4 <.text+0x1a4>
  40113f: 6d                           	insl	%dx, %es:(%edi)
  401140: 03 00                        	addl	(%eax), %eax
  401142: ff ff                        	<unknown>
  401144: cc                           	int3
  401145: 83 44 24 04 f8               	addl	$-8, 4(%esp)
  40114a: e9 c9 4f 00 00               	jmp	0x406118 <.text+0x5118>
  40114f: 83 44 24 04 f8               	addl	$-8, 4(%esp)
  401154: e9 e7 4f 00 00               	jmp	0x406140 <.text+0x5140>
  401159: 83 44 24 04 f8               	addl	$-8, 4(%esp)
  40115e: e9 f1 4f 00 00               	jmp	0x406154 <.text+0x5154>
  401163: cc                           	int3
  401164: cc                           	int3

--- Symbol Table (first 50 entries) ---

/home/analyst/ir-alalysis/samples/malware/89c3239f7fc90a3d56d89948ba2aef3459b903af6fa1c503824456df13c3ebfc.exe:	file format coff-i386

SYMBOL TABLE:

NOTE: For true binary-to-LLVM IR lifting, consider using:
  - mcsema: https://github.com/lifting-bits/mcsema
  - remill: https://github.com/lifting-bits/remill
  - rellic: https://github.com/lifting-bits/rellic

==========================================
LLVM analysis completed successfully
==========================================
LLVM analysis: SUCCESS
	Command being timed: "/home/analyst/ir-alalysis/scripts/analyze_llvm.sh /home/analyst/ir-alalysis/samples/malware/89c3239f7fc90a3d56d89948ba2aef3459b903af6fa1c503824456df13c3ebfc.exe"
	User time (seconds): 0.02
	System time (seconds): 0.06
	Percent of CPU this job got: 61%
	Elapsed (wall clock) time (h:mm:ss or m:ss): 0:00.15
	Average shared text size (kbytes): 0
	Average unshared data size (kbytes): 0
	Average stack size (kbytes): 0
	Average total size (kbytes): 0
	Maximum resident set size (kbytes): 51712
	Average resident set size (kbytes): 0
	Major (requiring I/O) page faults: 0
	Minor (reclaiming a frame) page faults: 10532
	Voluntary context switches: 17
	Involuntary context switches: 97
	Swaps: 0
	File system inputs: 0
	File system outputs: 24
	Socket messages sent: 0
	Socket messages received: 0
	Signals delivered: 0
	Page size (bytes): 4096
	Exit status: 0

Completed: 89c3239f7fc90a3d56d89948ba2aef3459b903af6fa1c503824456df13c3ebfc.exe

========================================
Processing sample 30: 8b1a083ef280da113980c3555d3860d56926b5dba7f7db7fc996fbaa5c32bbc3.elf
========================================

--- Ghidra P-code Analysis ---

Ghidra analysis: SUCCESS
==========================================
Ghidra Headless Analysis
==========================================
Binary:  /home/analyst/ir-alalysis/samples/malware/8b1a083ef280da113980c3555d3860d56926b5dba7f7db7fc996fbaa5c32bbc3.elf
Project: ghidra_analysis_8b1a083ef280da113980c3555d3860d56926b5dba7f7db7fc996fbaa5c32bbc3.elf_20251025_202723
Location: ./ghidra_projects
==========================================
INFO  Using log config file: jar:file:/home/analyst/ghidra/Ghidra/Framework/Generic/lib/Generic.jar!/generic.log4j.xml (LoggingInitialization)  
INFO  Using log file: /home/analyst/.config/ghidra/ghidra_11.4.2_PUBLIC/application.log (LoggingInitialization)  
INFO  Loading user preferences: /home/analyst/.config/ghidra/ghidra_11.4.2_PUBLIC/preferences (Preferences)  
INFO  Searching for classes... (ClassSearcher)  
INFO  Class search complete (1055 ms) (ClassSearcher)  
INFO  Initializing SSL Context (SSLContextInitializer)  
INFO  Initializing Random Number Generator... (SecureRandomFactory)  
INFO  Random Number Generator initialization complete: NativePRNGNonBlocking (SecureRandomFactory)  
INFO  Trust manager disabled, cacerts have not been set (ApplicationTrustManagerFactory)  
INFO  Headless startup complete (4388 ms) (AnalyzeHeadless)  
INFO  Class searcher loaded 58 extension points (18 false positives) (ClassSearcher)  
INFO  HEADLESS Script Paths:
    /home/analyst/ghidra/Ghidra/Features/GnuDemangler/ghidra_scripts
    /home/analyst/ghidra/Ghidra/Features/BytePatterns/ghidra_scripts
    /home/analyst/ghidra/Ghidra/Features/SystemEmulation/ghidra_scripts
    /home/analyst/ghidra/Ghidra/Processors/DATA/ghidra_scripts
    /home/analyst/ghidra/Ghidra/Features/PyGhidra/ghidra_scripts
    /home/analyst/ghidra/Ghidra/Features/MicrosoftCodeAnalyzer/ghidra_scripts
    /home/analyst/ghidra/Ghidra/Features/Base/ghidra_scripts
    /home/analyst/ghidra/Ghidra/Features/Jython/ghidra_scripts
    /home/analyst/ghidra/Ghidra/Features/VersionTracking/ghidra_scripts
    /home/analyst/ghidra/Ghidra/Features/PDB/ghidra_scripts
    /home/analyst/ghidra/Ghidra/Processors/Atmel/ghidra_scripts
    /home/analyst/ghidra/Ghidra/Debug/Debugger-rmi-trace/ghidra_scripts
    /home/analyst/ghidra/Ghidra/Features/FileFormats/ghidra_scripts
    /home/analyst/ghidra/Ghidra/Processors/JVM/ghidra_scripts
    /home/analyst/ghidra/Ghidra/Debug/Debugger/ghidra_scripts
    /home/analyst/ghidra/Ghidra/Processors/PIC/ghidra_scripts
    /home/analyst/ghidra/Ghidra/Features/WildcardAssembler/ghidra_scripts
    /home/analyst/ghidra/Ghidra/Processors/8051/ghidra_scripts
    /home/analyst/ghidra/Ghidra/Features/Decompiler/ghidra_scripts
    /home/analyst/ghidra/Ghidra/Features/DecompilerDependent/ghidra_scripts
    /home/analyst/ghidra/Ghidra/Features/FunctionID/ghidra_scripts
    /home/analyst/ghidra/Ghidra/Features/SwiftDemangler/ghidra_scripts
    /home/analyst/ghidra/Ghidra/Features/BSim/ghidra_scripts (HeadlessAnalyzer)  
INFO  HEADLESS: execution starts (HeadlessAnalyzer)  
INFO  Creating temporary project: /home/analyst/ir-alalysis/./ghidra_projects/ghidra_analysis_8b1a083ef280da113980c3555d3860d56926b5dba7f7db7fc996fbaa5c32bbc3.elf_20251025_202723 (HeadlessAnalyzer)  
INFO  Creating project: /home/analyst/ir-alalysis/./ghidra_projects/ghidra_analysis_8b1a083ef280da113980c3555d3860d56926b5dba7f7db7fc996fbaa5c32bbc3.elf_20251025_202723 (DefaultProject)  
INFO  REPORT: Processing input files:  (HeadlessAnalyzer)  
INFO       project: /home/analyst/ir-alalysis/./ghidra_projects/ghidra_analysis_8b1a083ef280da113980c3555d3860d56926b5dba7f7db7fc996fbaa5c32bbc3.elf_20251025_202723 (HeadlessAnalyzer)  
INFO  IMPORTING: file:///home/analyst/ir-alalysis/samples/malware/8b1a083ef280da113980c3555d3860d56926b5dba7f7db7fc996fbaa5c32bbc3.elf (HeadlessAnalyzer)  
INFO  Using Loader: Executable and Linking Format (ELF) (AutoImporter)  
INFO  Using Language/Compiler: AARCH64:LE:64:v8A:default (AutoImporter)  
INFO  Using Library Search Path: [., /bin, /lib, /lib64, /lib/x86_64-linux-gnu, /lib/aarch64-linux-gnu, /usr/bin, /usr/lib, /usr/X11R6/bin, /usr/X11R6/lib, /usr/java/packages/lib, /usr/lib/x86_64-linux-gnu/jni, /usr/lib/x86_64-linux-gnu, /usr/lib/jni] (AutoImporter)  
INFO  Additional info:
Loading file:///home/analyst/ir-alalysis/samples/malware/8b1a083ef280da113980c3555d3860d56926b5dba7f7db7fc996fbaa5c32bbc3.elf?MD5=5183a4164140ce17c53a66df530d16a5...
------------------------------------------------

 (AutoImporter)  
INFO  IMPORTING: Loaded 0 additional files (HeadlessAnalyzer)  
INFO  ANALYZING all memory and code: file:///home/analyst/ir-alalysis/samples/malware/8b1a083ef280da113980c3555d3860d56926b5dba7f7db7fc996fbaa5c32bbc3.elf (HeadlessAnalyzer)  
ERROR REPORT: Analysis timed out at 0 seconds. Processing not completed for file: file:///home/analyst/ir-alalysis/samples/malware/8b1a083ef280da113980c3555d3860d56926b5dba7f7db7fc996fbaa5c32bbc3.elf (HeadlessAnalyzer)  
INFO  SCRIPT: /home/analyst/ir-alalysis/scripts/get_cfg_stats.py (HeadlessAnalyzer)  
GHIDRA_STATS:Functions=1
GHIDRA_STATS:BasicBlocks=0
GHIDRA_STATS:TotalPcodeOps=0
INFO  ANALYZING changes made by post scripts: file:///home/analyst/ir-alalysis/samples/malware/8b1a083ef280da113980c3555d3860d56926b5dba7f7db7fc996fbaa5c32bbc3.elf (HeadlessAnalyzer)  
INFO  REPORT: Post-analysis succeeded for file: file:///home/analyst/ir-alalysis/samples/malware/8b1a083ef280da113980c3555d3860d56926b5dba7f7db7fc996fbaa5c32bbc3.elf (HeadlessAnalyzer)  
INFO  REPORT: Save succeeded for: /8b1a083ef280da113980c3555d3860d56926b5dba7f7db7fc996fbaa5c32bbc3.elf (ghidra_analysis_8b1a083ef280da113980c3555d3860d56926b5dba7f7db7fc996fbaa5c32bbc3.elf_20251025_202723:/8b1a083ef280da113980c3555d3860d56926b5dba7f7db7fc996fbaa5c32bbc3.elf) (HeadlessAnalyzer)  
INFO  REPORT: Import succeeded (HeadlessAnalyzer)  
==========================================
Ghidra analysis completed successfully
==========================================

Ghidra CFG Stats:
GHIDRA_STATS:Functions=1
GHIDRA_STATS:BasicBlocks=0
GHIDRA_STATS:TotalPcodeOps=0

Ghidra Performance:
	Elapsed (wall clock) time (h:mm:ss or m:ss): 0:24.76
	Maximum resident set size (kbytes): 637456

--- angr VEX IR Analysis ---

angr analysis: SUCCESS
==================================================
angr VEX IR Analysis
==================================================
Binary: /home/analyst/ir-alalysis/samples/malware/8b1a083ef280da113980c3555d3860d56926b5dba7f7db7fc996fbaa5c32bbc3.elf
==================================================
Loading binary with angr...
Architecture: AARCH64
Entry point: 0x86da0c
Binary base address: 0x400000

Generating CFG with angr...
Functions discovered: 83
Basic blocks (CFG nodes): 129
CFG edges: 97

Counting VEX IR statements...
Total VEX statements: 1492

--- angr CFG & IR Stats ---
ANGR_STATS:Functions=83
ANGR_STATS:Nodes=129
ANGR_STATS:Edges=97
ANGR_STATS:TotalVexStatements=1492
---------------------------

Sample functions (first 10):
  - sub_8600f0 @ 0x8600f0
  - sub_860118 @ 0x860118
  - sub_860134 @ 0x860134
  - sub_860140 @ 0x860140
  - sub_860148 @ 0x860148
  - sub_860154 @ 0x860154
  - sub_860170 @ 0x860170
  - sub_860198 @ 0x860198
  - sub_8601b4 @ 0x8601b4
  - sub_8601c4 @ 0x8601c4
==================================================
angr analysis completed successfully
==================================================

angr CFG Stats:
ANGR_STATS:Functions=83
ANGR_STATS:Nodes=129
ANGR_STATS:Edges=97
ANGR_STATS:TotalVexStatements=1492

angr Performance:
	Elapsed (wall clock) time (h:mm:ss or m:ss): 0:15.95
	Maximum resident set size (kbytes): 116732

--- LLVM IR Analysis ---

==========================================
LLVM IR Analysis
==========================================
Binary:  /home/analyst/ir-alalysis/samples/malware/8b1a083ef280da113980c3555d3860d56926b5dba7f7db7fc996fbaa5c32bbc3.elf
==========================================

Detected native binary (not LLVM bitcode)
Performing LLVM-based binary analysis...

--- Binary Information ---

/home/analyst/ir-alalysis/samples/malware/8b1a083ef280da113980c3555d3860d56926b5dba7f7db7fc996fbaa5c32bbc3.elf:	file format elf64-littleaarch64

Sections:
Idx Name          Size     VMA              Type

--- Disassembly (first 100 instructions) ---

/home/analyst/ir-alalysis/samples/malware/8b1a083ef280da113980c3555d3860d56926b5dba7f7db7fc996fbaa5c32bbc3.elf:	file format elf64-littleaarch64

--- Symbol Table (first 50 entries) ---

/home/analyst/ir-alalysis/samples/malware/8b1a083ef280da113980c3555d3860d56926b5dba7f7db7fc996fbaa5c32bbc3.elf:	file format elf64-littleaarch64

SYMBOL TABLE:

NOTE: For true binary-to-LLVM IR lifting, consider using:
  - mcsema: https://github.com/lifting-bits/mcsema
  - remill: https://github.com/lifting-bits/remill
  - rellic: https://github.com/lifting-bits/rellic

==========================================
LLVM analysis completed successfully
==========================================
LLVM analysis: SUCCESS
	Command being timed: "/home/analyst/ir-alalysis/scripts/analyze_llvm.sh /home/analyst/ir-alalysis/samples/malware/8b1a083ef280da113980c3555d3860d56926b5dba7f7db7fc996fbaa5c32bbc3.elf"
	User time (seconds): 0.02
	System time (seconds): 0.07
	Percent of CPU this job got: 98%
	Elapsed (wall clock) time (h:mm:ss or m:ss): 0:00.10
	Average shared text size (kbytes): 0
	Average unshared data size (kbytes): 0
	Average stack size (kbytes): 0
	Average total size (kbytes): 0
	Maximum resident set size (kbytes): 50944
	Average resident set size (kbytes): 0
	Major (requiring I/O) page faults: 1
	Minor (reclaiming a frame) page faults: 9948
	Voluntary context switches: 20
	Involuntary context switches: 42
	Swaps: 0
	File system inputs: 256
	File system outputs: 0
	Socket messages sent: 0
	Socket messages received: 0
	Signals delivered: 0
	Page size (bytes): 4096
	Exit status: 0

Completed: 8b1a083ef280da113980c3555d3860d56926b5dba7f7db7fc996fbaa5c32bbc3.elf

========================================
Processing sample 31: 8ddff3fe2a0fa780236ef3ed1f1c3bef0fe18f7bcbb8be3c4887902c4db3219b.elf
========================================

--- Ghidra P-code Analysis ---

Ghidra analysis: SUCCESS
==========================================
Ghidra Headless Analysis
==========================================
Binary:  /home/analyst/ir-alalysis/samples/malware/8ddff3fe2a0fa780236ef3ed1f1c3bef0fe18f7bcbb8be3c4887902c4db3219b.elf
Project: ghidra_analysis_8ddff3fe2a0fa780236ef3ed1f1c3bef0fe18f7bcbb8be3c4887902c4db3219b.elf_20251025_202804
Location: ./ghidra_projects
==========================================
INFO  Using log config file: jar:file:/home/analyst/ghidra/Ghidra/Framework/Generic/lib/Generic.jar!/generic.log4j.xml (LoggingInitialization)  
INFO  Using log file: /home/analyst/.config/ghidra/ghidra_11.4.2_PUBLIC/application.log (LoggingInitialization)  
INFO  Loading user preferences: /home/analyst/.config/ghidra/ghidra_11.4.2_PUBLIC/preferences (Preferences)  
INFO  Searching for classes... (ClassSearcher)  
INFO  Class search complete (1835 ms) (ClassSearcher)  
INFO  Initializing SSL Context (SSLContextInitializer)  
INFO  Initializing Random Number Generator... (SecureRandomFactory)  
INFO  Random Number Generator initialization complete: NativePRNGNonBlocking (SecureRandomFactory)  
INFO  Trust manager disabled, cacerts have not been set (ApplicationTrustManagerFactory)  
INFO  Headless startup complete (7201 ms) (AnalyzeHeadless)  
INFO  Class searcher loaded 58 extension points (18 false positives) (ClassSearcher)  
INFO  HEADLESS Script Paths:
    /home/analyst/ghidra/Ghidra/Features/GnuDemangler/ghidra_scripts
    /home/analyst/ghidra/Ghidra/Features/BytePatterns/ghidra_scripts
    /home/analyst/ghidra/Ghidra/Features/SystemEmulation/ghidra_scripts
    /home/analyst/ghidra/Ghidra/Processors/DATA/ghidra_scripts
    /home/analyst/ghidra/Ghidra/Features/PyGhidra/ghidra_scripts
    /home/analyst/ghidra/Ghidra/Features/MicrosoftCodeAnalyzer/ghidra_scripts
    /home/analyst/ghidra/Ghidra/Features/Base/ghidra_scripts
    /home/analyst/ghidra/Ghidra/Features/Jython/ghidra_scripts
    /home/analyst/ghidra/Ghidra/Features/VersionTracking/ghidra_scripts
    /home/analyst/ghidra/Ghidra/Features/PDB/ghidra_scripts
    /home/analyst/ghidra/Ghidra/Processors/Atmel/ghidra_scripts
    /home/analyst/ghidra/Ghidra/Debug/Debugger-rmi-trace/ghidra_scripts
    /home/analyst/ghidra/Ghidra/Features/FileFormats/ghidra_scripts
    /home/analyst/ghidra/Ghidra/Processors/JVM/ghidra_scripts
    /home/analyst/ghidra/Ghidra/Debug/Debugger/ghidra_scripts
    /home/analyst/ghidra/Ghidra/Processors/PIC/ghidra_scripts
    /home/analyst/ghidra/Ghidra/Features/WildcardAssembler/ghidra_scripts
    /home/analyst/ghidra/Ghidra/Processors/8051/ghidra_scripts
    /home/analyst/ghidra/Ghidra/Features/Decompiler/ghidra_scripts
    /home/analyst/ghidra/Ghidra/Features/DecompilerDependent/ghidra_scripts
    /home/analyst/ghidra/Ghidra/Features/FunctionID/ghidra_scripts
    /home/analyst/ghidra/Ghidra/Features/SwiftDemangler/ghidra_scripts
    /home/analyst/ghidra/Ghidra/Features/BSim/ghidra_scripts (HeadlessAnalyzer)  
INFO  HEADLESS: execution starts (HeadlessAnalyzer)  
INFO  Creating temporary project: /home/analyst/ir-alalysis/./ghidra_projects/ghidra_analysis_8ddff3fe2a0fa780236ef3ed1f1c3bef0fe18f7bcbb8be3c4887902c4db3219b.elf_20251025_202804 (HeadlessAnalyzer)  
INFO  Creating project: /home/analyst/ir-alalysis/./ghidra_projects/ghidra_analysis_8ddff3fe2a0fa780236ef3ed1f1c3bef0fe18f7bcbb8be3c4887902c4db3219b.elf_20251025_202804 (DefaultProject)  
INFO  REPORT: Processing input files:  (HeadlessAnalyzer)  
INFO       project: /home/analyst/ir-alalysis/./ghidra_projects/ghidra_analysis_8ddff3fe2a0fa780236ef3ed1f1c3bef0fe18f7bcbb8be3c4887902c4db3219b.elf_20251025_202804 (HeadlessAnalyzer)  
INFO  IMPORTING: file:///home/analyst/ir-alalysis/samples/malware/8ddff3fe2a0fa780236ef3ed1f1c3bef0fe18f7bcbb8be3c4887902c4db3219b.elf (HeadlessAnalyzer)  
INFO  Using Loader: Executable and Linking Format (ELF) (AutoImporter)  
INFO  Using Language/Compiler: SuperH4:LE:32:default:default (AutoImporter)  
INFO  Using Library Search Path: [., /bin, /lib, /lib64, /lib/x86_64-linux-gnu, /lib/aarch64-linux-gnu, /usr/bin, /usr/lib, /usr/X11R6/bin, /usr/X11R6/lib, /usr/java/packages/lib, /usr/lib/x86_64-linux-gnu/jni, /usr/lib/x86_64-linux-gnu, /usr/lib/jni] (AutoImporter)  
INFO  Additional info:
Loading file:///home/analyst/ir-alalysis/samples/malware/8ddff3fe2a0fa780236ef3ed1f1c3bef0fe18f7bcbb8be3c4887902c4db3219b.elf?MD5=66f9f8c3f9c64b3f7b400223f0dd73c2...
------------------------------------------------

 (AutoImporter)  
INFO  IMPORTING: Loaded 0 additional files (HeadlessAnalyzer)  
INFO  ANALYZING all memory and code: file:///home/analyst/ir-alalysis/samples/malware/8ddff3fe2a0fa780236ef3ed1f1c3bef0fe18f7bcbb8be3c4887902c4db3219b.elf (HeadlessAnalyzer)  
ERROR REPORT: Analysis timed out at 0 seconds. Processing not completed for file: file:///home/analyst/ir-alalysis/samples/malware/8ddff3fe2a0fa780236ef3ed1f1c3bef0fe18f7bcbb8be3c4887902c4db3219b.elf (HeadlessAnalyzer)  
INFO  SCRIPT: /home/analyst/ir-alalysis/scripts/get_cfg_stats.py (HeadlessAnalyzer)  
GHIDRA_STATS:Functions=1
GHIDRA_STATS:BasicBlocks=0
GHIDRA_STATS:TotalPcodeOps=0
INFO  ANALYZING changes made by post scripts: file:///home/analyst/ir-alalysis/samples/malware/8ddff3fe2a0fa780236ef3ed1f1c3bef0fe18f7bcbb8be3c4887902c4db3219b.elf (HeadlessAnalyzer)  
INFO  REPORT: Post-analysis succeeded for file: file:///home/analyst/ir-alalysis/samples/malware/8ddff3fe2a0fa780236ef3ed1f1c3bef0fe18f7bcbb8be3c4887902c4db3219b.elf (HeadlessAnalyzer)  
INFO  REPORT: Save succeeded for: /8ddff3fe2a0fa780236ef3ed1f1c3bef0fe18f7bcbb8be3c4887902c4db3219b.elf (ghidra_analysis_8ddff3fe2a0fa780236ef3ed1f1c3bef0fe18f7bcbb8be3c4887902c4db3219b.elf_20251025_202804:/8ddff3fe2a0fa780236ef3ed1f1c3bef0fe18f7bcbb8be3c4887902c4db3219b.elf) (HeadlessAnalyzer)  
INFO  REPORT: Import succeeded (HeadlessAnalyzer)  
==========================================
Ghidra analysis completed successfully
==========================================

Ghidra CFG Stats:
GHIDRA_STATS:Functions=1
GHIDRA_STATS:BasicBlocks=0
GHIDRA_STATS:TotalPcodeOps=0

Ghidra Performance:
	Elapsed (wall clock) time (h:mm:ss or m:ss): 0:31.65
	Maximum resident set size (kbytes): 607644

--- angr VEX IR Analysis ---

angr analysis: SUCCESS
==================================================
angr VEX IR Analysis
==================================================
Binary: /home/analyst/ir-alalysis/samples/malware/8ddff3fe2a0fa780236ef3ed1f1c3bef0fe18f7bcbb8be3c4887902c4db3219b.elf
==================================================
Loading binary with angr...
Architecture: SuperH4:LE:32:default
Entry point: 0x4001a0
Binary base address: 0x400000

Generating CFG with angr...
Functions discovered: 539
Basic blocks (CFG nodes): 3600
CFG edges: 5564

Counting VEX IR statements...
Total VEX statements: 0

--- angr CFG & IR Stats ---
ANGR_STATS:Functions=539
ANGR_STATS:Nodes=3600
ANGR_STATS:Edges=5564
ANGR_STATS:TotalVexStatements=0
---------------------------

Sample functions (first 10):
  - sub_400094 @ 0x400094
  - sub_4000ac @ 0x4000ac
  - sub_4000b8 @ 0x4000b8
  - sub_4000e0 @ 0x4000e0
  - sub_40013c @ 0x40013c
  - sub_40018a @ 0x40018a
  - _start @ 0x4001a0
  - sub_4001be @ 0x4001be
  - sub_4001e0 @ 0x4001e0
  - sub_4001fe @ 0x4001fe
==================================================
angr analysis completed successfully
==================================================

angr CFG Stats:
ANGR_STATS:Functions=539
ANGR_STATS:Nodes=3600
ANGR_STATS:Edges=5564
ANGR_STATS:TotalVexStatements=0

angr Performance:
	Elapsed (wall clock) time (h:mm:ss or m:ss): 0:11.34
	Maximum resident set size (kbytes): 195224

--- LLVM IR Analysis ---

==========================================
LLVM IR Analysis
==========================================
Binary:  /home/analyst/ir-alalysis/samples/malware/8ddff3fe2a0fa780236ef3ed1f1c3bef0fe18f7bcbb8be3c4887902c4db3219b.elf
==========================================

Detected native binary (not LLVM bitcode)
Performing LLVM-based binary analysis...

--- Binary Information ---

/home/analyst/ir-alalysis/samples/malware/8ddff3fe2a0fa780236ef3ed1f1c3bef0fe18f7bcbb8be3c4887902c4db3219b.elf:	file format elf32-unknown

Sections:
Idx Name          Size     VMA      Type
  0               00000000 00000000 
  1 .init         00000030 00400094 TEXT
  2 .text         0000a560 004000e0 TEXT
  3 .fini         00000024 0040a640 TEXT
  4 .rodata       00000aa4 0040a664 DATA
  5 .ctors        00000008 0041b10c DATA
  6 .dtors        00000008 0041b114 DATA
  7 .data         00000218 0041b120 DATA
  8 .bss          00000318 0041b338 BSS
  9 .shstrtab     0000003e 00000000 

--- Disassembly (first 100 instructions) ---

/home/analyst/ir-alalysis/samples/malware/8ddff3fe2a0fa780236ef3ed1f1c3bef0fe18f7bcbb8be3c4887902c4db3219b.elf:	file format elf32-unknown
llvm-objdump: error: '/home/analyst/ir-alalysis/samples/malware/8ddff3fe2a0fa780236ef3ed1f1c3bef0fe18f7bcbb8be3c4887902c4db3219b.elf': can't find target: : error: unable to get target for 'unknown--', see --version and --triple.


--- Symbol Table (first 50 entries) ---

/home/analyst/ir-alalysis/samples/malware/8ddff3fe2a0fa780236ef3ed1f1c3bef0fe18f7bcbb8be3c4887902c4db3219b.elf:	file format elf32-unknown

SYMBOL TABLE:

NOTE: For true binary-to-LLVM IR lifting, consider using:
  - mcsema: https://github.com/lifting-bits/mcsema
  - remill: https://github.com/lifting-bits/remill
  - rellic: https://github.com/lifting-bits/rellic

==========================================
LLVM analysis completed successfully
==========================================
LLVM analysis: SUCCESS
	Command being timed: "/home/analyst/ir-alalysis/scripts/analyze_llvm.sh /home/analyst/ir-alalysis/samples/malware/8ddff3fe2a0fa780236ef3ed1f1c3bef0fe18f7bcbb8be3c4887902c4db3219b.elf"
	User time (seconds): 0.02
	System time (seconds): 0.06
	Percent of CPU this job got: 52%
	Elapsed (wall clock) time (h:mm:ss or m:ss): 0:00.18
	Average shared text size (kbytes): 0
	Average unshared data size (kbytes): 0
	Average stack size (kbytes): 0
	Average total size (kbytes): 0
	Maximum resident set size (kbytes): 50816
	Average resident set size (kbytes): 0
	Major (requiring I/O) page faults: 0
	Minor (reclaiming a frame) page faults: 9923
	Voluntary context switches: 17
	Involuntary context switches: 69
	Swaps: 0
	File system inputs: 0
	File system outputs: 8
	Socket messages sent: 0
	Socket messages received: 0
	Signals delivered: 0
	Page size (bytes): 4096
	Exit status: 0

Completed: 8ddff3fe2a0fa780236ef3ed1f1c3bef0fe18f7bcbb8be3c4887902c4db3219b.elf

========================================
Processing sample 32: 955716cc4f74fea981ce80646e65d85d6222a131e9d9d4bf2ba5775650e867ec.exe
========================================

--- Ghidra P-code Analysis ---

Ghidra analysis: SUCCESS
==========================================
Ghidra Headless Analysis
==========================================
Binary:  /home/analyst/ir-alalysis/samples/malware/955716cc4f74fea981ce80646e65d85d6222a131e9d9d4bf2ba5775650e867ec.exe
Project: ghidra_analysis_955716cc4f74fea981ce80646e65d85d6222a131e9d9d4bf2ba5775650e867ec.exe_20251025_202848
Location: ./ghidra_projects
==========================================
INFO  Using log config file: jar:file:/home/analyst/ghidra/Ghidra/Framework/Generic/lib/Generic.jar!/generic.log4j.xml (LoggingInitialization)  
INFO  Using log file: /home/analyst/.config/ghidra/ghidra_11.4.2_PUBLIC/application.log (LoggingInitialization)  
INFO  Loading user preferences: /home/analyst/.config/ghidra/ghidra_11.4.2_PUBLIC/preferences (Preferences)  
INFO  Searching for classes... (ClassSearcher)  
INFO  Class search complete (1062 ms) (ClassSearcher)  
INFO  Initializing SSL Context (SSLContextInitializer)  
INFO  Initializing Random Number Generator... (SecureRandomFactory)  
INFO  Random Number Generator initialization complete: NativePRNGNonBlocking (SecureRandomFactory)  
INFO  Trust manager disabled, cacerts have not been set (ApplicationTrustManagerFactory)  
INFO  Headless startup complete (4362 ms) (AnalyzeHeadless)  
INFO  Class searcher loaded 58 extension points (18 false positives) (ClassSearcher)  
INFO  HEADLESS Script Paths:
    /home/analyst/ghidra/Ghidra/Features/GnuDemangler/ghidra_scripts
    /home/analyst/ghidra/Ghidra/Features/BytePatterns/ghidra_scripts
    /home/analyst/ghidra/Ghidra/Features/SystemEmulation/ghidra_scripts
    /home/analyst/ghidra/Ghidra/Processors/DATA/ghidra_scripts
    /home/analyst/ghidra/Ghidra/Features/PyGhidra/ghidra_scripts
    /home/analyst/ghidra/Ghidra/Features/MicrosoftCodeAnalyzer/ghidra_scripts
    /home/analyst/ghidra/Ghidra/Features/Base/ghidra_scripts
    /home/analyst/ghidra/Ghidra/Features/Jython/ghidra_scripts
    /home/analyst/ghidra/Ghidra/Features/VersionTracking/ghidra_scripts
    /home/analyst/ghidra/Ghidra/Features/PDB/ghidra_scripts
    /home/analyst/ghidra/Ghidra/Processors/Atmel/ghidra_scripts
    /home/analyst/ghidra/Ghidra/Debug/Debugger-rmi-trace/ghidra_scripts
    /home/analyst/ghidra/Ghidra/Features/FileFormats/ghidra_scripts
    /home/analyst/ghidra/Ghidra/Processors/JVM/ghidra_scripts
    /home/analyst/ghidra/Ghidra/Debug/Debugger/ghidra_scripts
    /home/analyst/ghidra/Ghidra/Processors/PIC/ghidra_scripts
    /home/analyst/ghidra/Ghidra/Features/WildcardAssembler/ghidra_scripts
    /home/analyst/ghidra/Ghidra/Processors/8051/ghidra_scripts
    /home/analyst/ghidra/Ghidra/Features/Decompiler/ghidra_scripts
    /home/analyst/ghidra/Ghidra/Features/DecompilerDependent/ghidra_scripts
    /home/analyst/ghidra/Ghidra/Features/FunctionID/ghidra_scripts
    /home/analyst/ghidra/Ghidra/Features/SwiftDemangler/ghidra_scripts
    /home/analyst/ghidra/Ghidra/Features/BSim/ghidra_scripts (HeadlessAnalyzer)  
INFO  HEADLESS: execution starts (HeadlessAnalyzer)  
INFO  Creating temporary project: /home/analyst/ir-alalysis/./ghidra_projects/ghidra_analysis_955716cc4f74fea981ce80646e65d85d6222a131e9d9d4bf2ba5775650e867ec.exe_20251025_202848 (HeadlessAnalyzer)  
INFO  Creating project: /home/analyst/ir-alalysis/./ghidra_projects/ghidra_analysis_955716cc4f74fea981ce80646e65d85d6222a131e9d9d4bf2ba5775650e867ec.exe_20251025_202848 (DefaultProject)  
INFO  REPORT: Processing input files:  (HeadlessAnalyzer)  
INFO       project: /home/analyst/ir-alalysis/./ghidra_projects/ghidra_analysis_955716cc4f74fea981ce80646e65d85d6222a131e9d9d4bf2ba5775650e867ec.exe_20251025_202848 (HeadlessAnalyzer)  
INFO  IMPORTING: file:///home/analyst/ir-alalysis/samples/malware/955716cc4f74fea981ce80646e65d85d6222a131e9d9d4bf2ba5775650e867ec.exe (HeadlessAnalyzer)  
INFO  Using Loader: Portable Executable (PE) (AutoImporter)  
INFO  Using Language/Compiler: x86:LE:32:default:windows (AutoImporter)  
INFO  Using Library Search Path: [., /bin, /lib, /lib64, /lib/x86_64-linux-gnu, /lib/aarch64-linux-gnu, /usr/bin, /usr/lib, /usr/X11R6/bin, /usr/X11R6/lib, /usr/java/packages/lib, /usr/lib/x86_64-linux-gnu/jni, /usr/lib/x86_64-linux-gnu, /usr/lib/jni] (AutoImporter)  
WARN  An unrecognized data type was detected in a Constant blob: type ELEMENT_TYPE_CLASS @ Generic_1022 (CliSigConstant)  
ERROR Cannot replace existing blob at address 00409fa2 with ConstantSig_1022 because they have different sizes (Old: 5, New: 2). (CliStreamBlob)  
ERROR Cannot replace existing blob at address 0040a174 with CustomAttrib_1488 because they have different sizes (Old: 6, New: 5). (CliStreamBlob)  
ERROR Cannot replace existing blob at address 0040a174 with CustomAttrib_1488 because they have different sizes (Old: 6, New: 5). (CliStreamBlob)  
ERROR Cannot replace existing blob at address 0040a17a with CustomAttrib_1494 because they have different sizes (Old: 23, New: 22). (CliStreamBlob)  
ERROR Cannot replace existing blob at address 0040a174 with CustomAttrib_1488 because they have different sizes (Old: 6, New: 5). (CliStreamBlob)  
ERROR Cannot replace existing blob at address 0040a1c8 with CustomAttrib_1572 because they have different sizes (Old: 74, New: 56). (CliStreamBlob)  
WARN  Invalid FieldOrProp value in NamedArg #1: 0x73 (CliBlobCustomAttrib)  
WARN  Invalid FieldOrProp value in NamedArg #3: 0xffffffbe (CliBlobCustomAttrib)  
WARN  Invalid FieldOrProp value in NamedArg #4: 0x1 (CliBlobCustomAttrib)  
WARN  Invalid FieldOrProp value in NamedArg #5: 0x0 (CliBlobCustomAttrib)  
WARN  Invalid FieldOrProp value in NamedArg #6: 0x0 (CliBlobCustomAttrib)  
WARN  Invalid FieldOrProp value in NamedArg #7: 0x0 (CliBlobCustomAttrib)  
WARN  Invalid FieldOrProp value in NamedArg #8: 0xffffff91 (CliBlobCustomAttrib)  
WARN  Invalid FieldOrProp value in NamedArg #9: 0x0 (CliBlobCustomAttrib)  
WARN  Invalid FieldOrProp value in NamedArg #10: 0x0 (CliBlobCustomAttrib)  
WARN  Invalid FieldOrProp value in NamedArg #11: 0x0 (CliBlobCustomAttrib)  
WARN  Invalid FieldOrProp value in NamedArg #12: 0x6c (CliBlobCustomAttrib)  
WARN  Invalid FieldOrProp value in NamedArg #14: 0x30 (CliBlobCustomAttrib)  
WARN  Invalid FieldOrProp value in NamedArg #15: 0x2e (CliBlobCustomAttrib)  
WARN  Invalid FieldOrProp value in NamedArg #16: 0x30 (CliBlobCustomAttrib)  
WARN  Invalid FieldOrProp value in NamedArg #17: 0x2c (CliBlobCustomAttrib)  
WARN  Invalid FieldOrProp value in NamedArg #18: 0x20 (CliBlobCustomAttrib)  
WARN  Invalid FieldOrProp value in NamedArg #19: 0x43 (CliBlobCustomAttrib)  
WARN  Invalid FieldOrProp value in NamedArg #20: 0x75 (CliBlobCustomAttrib)  
WARN  Invalid FieldOrProp value in NamedArg #21: 0x6c (CliBlobCustomAttrib)  
WARN  Invalid FieldOrProp value in NamedArg #22: 0x74 (CliBlobCustomAttrib)  
WARN  Invalid FieldOrProp value in NamedArg #23: 0x75 (CliBlobCustomAttrib)  
WARN  Invalid FieldOrProp value in NamedArg #24: 0x72 (CliBlobCustomAttrib)  
WARN  Invalid FieldOrProp value in NamedArg #25: 0x65 (CliBlobCustomAttrib)  
WARN  Invalid FieldOrProp value in NamedArg #26: 0x3d (CliBlobCustomAttrib)  
WARN  Invalid FieldOrProp value in NamedArg #27: 0x6e (CliBlobCustomAttrib)  
WARN  Invalid FieldOrProp value in NamedArg #28: 0x65 (CliBlobCustomAttrib)  
WARN  Invalid FieldOrProp value in NamedArg #29: 0x75 (CliBlobCustomAttrib)  
WARN  Invalid FieldOrProp value in NamedArg #30: 0x74 (CliBlobCustomAttrib)  
WARN  Invalid FieldOrProp value in NamedArg #31: 0x72 (CliBlobCustomAttrib)  
WARN  Invalid FieldOrProp value in NamedArg #32: 0x61 (CliBlobCustomAttrib)  
WARN  Invalid FieldOrProp value in NamedArg #33: 0x6c (CliBlobCustomAttrib)  
WARN  Invalid FieldOrProp value in NamedArg #34: 0x2c (CliBlobCustomAttrib)  
WARN  Invalid FieldOrProp value in NamedArg #35: 0x20 (CliBlobCustomAttrib)  
WARN  Invalid FieldOrProp value in NamedArg #36: 0x50 (CliBlobCustomAttrib)  
WARN  Invalid FieldOrProp value in NamedArg #37: 0x75 (CliBlobCustomAttrib)  
WARN  Invalid FieldOrProp value in NamedArg #38: 0x62 (CliBlobCustomAttrib)  
WARN  Invalid FieldOrProp value in NamedArg #39: 0x6c (CliBlobCustomAttrib)  
WARN  Invalid FieldOrProp value in NamedArg #40: 0x69 (CliBlobCustomAttrib)  
WARN  Invalid FieldOrProp value in NamedArg #41: 0x63 (CliBlobCustomAttrib)  
WARN  Invalid FieldOrProp value in NamedArg #42: 0x4b (CliBlobCustomAttrib)  
WARN  Invalid FieldOrProp value in NamedArg #43: 0x65 (CliBlobCustomAttrib)  
WARN  Invalid FieldOrProp value in NamedArg #44: 0x79 (CliBlobCustomAttrib)  
WARN  Invalid FieldOrProp value in NamedArg #46: 0x52 (CliBlobCustomAttrib)  
WARN  Invalid FieldOrProp value in NamedArg #47: 0x65 (CliBlobCustomAttrib)  
WARN  Invalid FieldOrProp value in NamedArg #48: 0x73 (CliBlobCustomAttrib)  
WARN  Invalid FieldOrProp value in NamedArg #49: 0x6f (CliBlobCustomAttrib)  
WARN  Invalid FieldOrProp value in NamedArg #50: 0x75 (CliBlobCustomAttrib)  
WARN  Invalid FieldOrProp value in NamedArg #51: 0x72 (CliBlobCustomAttrib)  
WARN  Invalid FieldOrProp value in NamedArg #52: 0x63 (CliBlobCustomAttrib)  
WARN  Invalid FieldOrProp value in NamedArg #53: 0x65 (CliBlobCustomAttrib)  
WARN  Invalid FieldOrProp value in NamedArg #55: 0x63 (CliBlobCustomAttrib)  
WARN  Invalid FieldOrProp value in NamedArg #56: 0x65 (CliBlobCustomAttrib)  
WARN  Invalid FieldOrProp value in NamedArg #57: 0x73 (CliBlobCustomAttrib)  
WARN  Invalid FieldOrProp value in NamedArg #58: 0x2e (CliBlobCustomAttrib)  
WARN  Invalid FieldOrProp value in NamedArg #59: 0x52 (CliBlobCustomAttrib)  
WARN  Invalid FieldOrProp value in NamedArg #60: 0x65 (CliBlobCustomAttrib)  
WARN  Invalid FieldOrProp value in NamedArg #61: 0x73 (CliBlobCustomAttrib)  
WARN  Invalid FieldOrProp value in NamedArg #62: 0x6f (CliBlobCustomAttrib)  
WARN  Invalid FieldOrProp value in NamedArg #63: 0x75 (CliBlobCustomAttrib)  
WARN  Invalid FieldOrProp value in NamedArg #64: 0x72 (CliBlobCustomAttrib)  
WARN  Invalid FieldOrProp value in NamedArg #65: 0x63 (CliBlobCustomAttrib)  
WARN  Invalid FieldOrProp value in NamedArg #66: 0x65 (CliBlobCustomAttrib)  
WARN  Invalid FieldOrProp value in NamedArg #67: 0x52 (CliBlobCustomAttrib)  
WARN  Invalid FieldOrProp value in NamedArg #68: 0x65 (CliBlobCustomAttrib)  
WARN  Invalid FieldOrProp value in NamedArg #69: 0x61 (CliBlobCustomAttrib)  
WARN  Invalid FieldOrProp value in NamedArg #70: 0x64 (CliBlobCustomAttrib)  
WARN  Invalid FieldOrProp value in NamedArg #71: 0x65 (CliBlobCustomAttrib)  
WARN  Invalid FieldOrProp value in NamedArg #72: 0x72 (CliBlobCustomAttrib)  
WARN  Invalid FieldOrProp value in NamedArg #73: 0x2c (CliBlobCustomAttrib)  
WARN  Invalid FieldOrProp value in NamedArg #74: 0x20 (CliBlobCustomAttrib)  
WARN  Invalid FieldOrProp value in NamedArg #75: 0x6d (CliBlobCustomAttrib)  
WARN  Invalid FieldOrProp value in NamedArg #76: 0x73 (CliBlobCustomAttrib)  
WARN  Invalid FieldOrProp value in NamedArg #77: 0x63 (CliBlobCustomAttrib)  
WARN  Invalid FieldOrProp value in NamedArg #78: 0x6f (CliBlobCustomAttrib)  
WARN  Invalid FieldOrProp value in NamedArg #79: 0x72 (CliBlobCustomAttrib)  
WARN  Invalid FieldOrProp value in NamedArg #80: 0x6c (CliBlobCustomAttrib)  
WARN  Invalid FieldOrProp value in NamedArg #81: 0x69 (CliBlobCustomAttrib)  
WARN  Invalid FieldOrProp value in NamedArg #82: 0x62 (CliBlobCustomAttrib)  
WARN  Invalid FieldOrProp value in NamedArg #83: 0x2c (CliBlobCustomAttrib)  
WARN  Invalid FieldOrProp value in NamedArg #84: 0x20 (CliBlobCustomAttrib)  
WARN  Invalid FieldOrProp value in NamedArg #85: 0x56 (CliBlobCustomAttrib)  
WARN  Invalid FieldOrProp value in NamedArg #86: 0x65 (CliBlobCustomAttrib)  
WARN  Invalid FieldOrProp value in NamedArg #87: 0x72 (CliBlobCustomAttrib)  
WARN  Invalid FieldOrProp value in NamedArg #88: 0x73 (CliBlobCustomAttrib)  
WARN  Invalid FieldOrProp value in NamedArg #89: 0x69 (CliBlobCustomAttrib)  
WARN  Invalid FieldOrProp value in NamedArg #90: 0x6f (CliBlobCustomAttrib)  
WARN  Invalid FieldOrProp value in NamedArg #91: 0x6e (CliBlobCustomAttrib)  
WARN  Invalid FieldOrProp value in NamedArg #92: 0x3d (CliBlobCustomAttrib)  
WARN  Invalid FieldOrProp value in NamedArg #93: 0x34 (CliBlobCustomAttrib)  
WARN  Invalid FieldOrProp value in NamedArg #94: 0x2e (CliBlobCustomAttrib)  
WARN  Invalid FieldOrProp value in NamedArg #95: 0x30 (CliBlobCustomAttrib)  
WARN  Invalid FieldOrProp value in NamedArg #96: 0x2e (CliBlobCustomAttrib)  
WARN  Invalid FieldOrProp value in NamedArg #97: 0x30 (CliBlobCustomAttrib)  
WARN  Invalid FieldOrProp value in NamedArg #98: 0x2e (CliBlobCustomAttrib)  
WARN  Invalid FieldOrProp value in NamedArg #99: 0x30 (CliBlobCustomAttrib)  
WARN  Invalid FieldOrProp value in NamedArg #100: 0x2c (CliBlobCustomAttrib)  
WARN  Invalid FieldOrProp value in NamedArg #101: 0x20 (CliBlobCustomAttrib)  
WARN  Invalid FieldOrProp value in NamedArg #102: 0x43 (CliBlobCustomAttrib)  
WARN  Invalid FieldOrProp value in NamedArg #103: 0x75 (CliBlobCustomAttrib)  
WARN  Invalid FieldOrProp value in NamedArg #104: 0x6c (CliBlobCustomAttrib)  
WARN  Invalid FieldOrProp value in NamedArg #105: 0x74 (CliBlobCustomAttrib)  
WARN  Invalid FieldOrProp value in NamedArg #106: 0x75 (CliBlobCustomAttrib)  
WARN  Invalid FieldOrProp value in NamedArg #107: 0x72 (CliBlobCustomAttrib)  
WARN  Invalid FieldOrProp value in NamedArg #108: 0x65 (CliBlobCustomAttrib)  
WARN  Invalid FieldOrProp value in NamedArg #109: 0x3d (CliBlobCustomAttrib)  
WARN  Invalid FieldOrProp value in NamedArg #110: 0x6e (CliBlobCustomAttrib)  
WARN  Invalid FieldOrProp value in NamedArg #111: 0x65 (CliBlobCustomAttrib)  
WARN  Invalid FieldOrProp value in NamedArg #112: 0x75 (CliBlobCustomAttrib)  
WARN  Invalid FieldOrProp value in NamedArg #113: 0x74 (CliBlobCustomAttrib)  
WARN  Invalid FieldOrProp value in NamedArg #114: 0x72 (CliBlobCustomAttrib)  
WARN  Invalid FieldOrProp value in NamedArg #115: 0x61 (CliBlobCustomAttrib)  
WARN  Invalid FieldOrProp value in NamedArg #116: 0x6c (CliBlobCustomAttrib)  
WARN  Invalid FieldOrProp value in NamedArg #117: 0x2c (CliBlobCustomAttrib)  
WARN  Invalid FieldOrProp value in NamedArg #118: 0x20 (CliBlobCustomAttrib)  
WARN  Invalid FieldOrProp value in NamedArg #119: 0x50 (CliBlobCustomAttrib)  
WARN  Invalid FieldOrProp value in NamedArg #120: 0x75 (CliBlobCustomAttrib)  
WARN  Invalid FieldOrProp value in NamedArg #121: 0x62 (CliBlobCustomAttrib)  
WARN  Invalid FieldOrProp value in NamedArg #122: 0x6c (CliBlobCustomAttrib)  
WARN  Invalid FieldOrProp value in NamedArg #123: 0x69 (CliBlobCustomAttrib)  
WARN  Invalid FieldOrProp value in NamedArg #124: 0x63 (CliBlobCustomAttrib)  
WARN  Invalid FieldOrProp value in NamedArg #125: 0x4b (CliBlobCustomAttrib)  
WARN  Invalid FieldOrProp value in NamedArg #126: 0x65 (CliBlobCustomAttrib)  
WARN  Invalid FieldOrProp value in NamedArg #127: 0x79 (CliBlobCustomAttrib)  
WARN  Invalid FieldOrProp value in NamedArg #129: 0x52 (CliBlobCustomAttrib)  
WARN  Invalid FieldOrProp value in NamedArg #130: 0x65 (CliBlobCustomAttrib)  
WARN  Invalid FieldOrProp value in NamedArg #131: 0x73 (CliBlobCustomAttrib)  
WARN  Invalid FieldOrProp value in NamedArg #132: 0x6f (CliBlobCustomAttrib)  
WARN  Invalid FieldOrProp value in NamedArg #133: 0x75 (CliBlobCustomAttrib)  
WARN  Invalid FieldOrProp value in NamedArg #134: 0x72 (CliBlobCustomAttrib)  
WARN  Invalid FieldOrProp value in NamedArg #135: 0x63 (CliBlobCustomAttrib)  
WARN  Invalid FieldOrProp value in NamedArg #136: 0x65 (CliBlobCustomAttrib)  
WARN  Invalid FieldOrProp value in NamedArg #138: 0x63 (CliBlobCustomAttrib)  
WARN  Invalid FieldOrProp value in NamedArg #139: 0x65 (CliBlobCustomAttrib)  
WARN  Invalid FieldOrProp value in NamedArg #140: 0x73 (CliBlobCustomAttrib)  
WARN  Invalid FieldOrProp value in NamedArg #141: 0x2e (CliBlobCustomAttrib)  
WARN  Invalid FieldOrProp value in NamedArg #142: 0x52 (CliBlobCustomAttrib)  
WARN  Invalid FieldOrProp value in NamedArg #143: 0x65 (CliBlobCustomAttrib)  
WARN  Invalid FieldOrProp value in NamedArg #144: 0x73 (CliBlobCustomAttrib)  
WARN  Invalid FieldOrProp value in NamedArg #145: 0x6f (CliBlobCustomAttrib)  
WARN  Invalid FieldOrProp value in NamedArg #146: 0x75 (CliBlobCustomAttrib)  
WARN  Invalid FieldOrProp value in NamedArg #147: 0x72 (CliBlobCustomAttrib)  
WARN  Invalid FieldOrProp value in NamedArg #148: 0x63 (CliBlobCustomAttrib)  
WARN  Invalid FieldOrProp value in NamedArg #149: 0x65 (CliBlobCustomAttrib)  
WARN  Invalid FieldOrProp value in NamedArg #150: 0x52 (CliBlobCustomAttrib)  
WARN  Invalid FieldOrProp value in NamedArg #151: 0x65 (CliBlobCustomAttrib)  
WARN  Invalid FieldOrProp value in NamedArg #152: 0x61 (CliBlobCustomAttrib)  
WARN  Invalid FieldOrProp value in NamedArg #153: 0x64 (CliBlobCustomAttrib)  
WARN  Invalid FieldOrProp value in NamedArg #154: 0x65 (CliBlobCustomAttrib)  
WARN  Invalid FieldOrProp value in NamedArg #155: 0x72 (CliBlobCustomAttrib)  
WARN  Invalid FieldOrProp value in NamedArg #156: 0x2c (CliBlobCustomAttrib)  
WARN  Invalid FieldOrProp value in NamedArg #157: 0x20 (CliBlobCustomAttrib)  
WARN  Invalid FieldOrProp value in NamedArg #158: 0x6d (CliBlobCustomAttrib)  
WARN  Invalid FieldOrProp value in NamedArg #159: 0x73 (CliBlobCustomAttrib)  
WARN  Invalid FieldOrProp value in NamedArg #160: 0x63 (CliBlobCustomAttrib)  
WARN  Invalid FieldOrProp value in NamedArg #161: 0x6f (CliBlobCustomAttrib)  
WARN  Invalid FieldOrProp value in NamedArg #162: 0x72 (CliBlobCustomAttrib)  
WARN  Invalid FieldOrProp value in NamedArg #163: 0x6c (CliBlobCustomAttrib)  
WARN  Invalid FieldOrProp value in NamedArg #164: 0x69 (CliBlobCustomAttrib)  
WARN  Invalid FieldOrProp value in NamedArg #165: 0x62 (CliBlobCustomAttrib)  
WARN  Invalid FieldOrProp value in NamedArg #166: 0x2c (CliBlobCustomAttrib)  
WARN  Invalid FieldOrProp value in NamedArg #167: 0x20 (CliBlobCustomAttrib)  
WARN  Invalid FieldOrProp value in NamedArg #168: 0x56 (CliBlobCustomAttrib)  
WARN  Invalid FieldOrProp value in NamedArg #169: 0x65 (CliBlobCustomAttrib)  
WARN  Invalid FieldOrProp value in NamedArg #170: 0x72 (CliBlobCustomAttrib)  
WARN  Invalid FieldOrProp value in NamedArg #171: 0x73 (CliBlobCustomAttrib)  
WARN  Invalid FieldOrProp value in NamedArg #172: 0x69 (CliBlobCustomAttrib)  
WARN  Invalid FieldOrProp value in NamedArg #173: 0x6f (CliBlobCustomAttrib)  
WARN  Invalid FieldOrProp value in NamedArg #174: 0x6e (CliBlobCustomAttrib)  
WARN  Invalid FieldOrProp value in NamedArg #175: 0x3d (CliBlobCustomAttrib)  
WARN  Invalid FieldOrProp value in NamedArg #176: 0x34 (CliBlobCustomAttrib)  
WARN  Invalid FieldOrProp value in NamedArg #177: 0x2e (CliBlobCustomAttrib)  
WARN  Invalid FieldOrProp value in NamedArg #178: 0x30 (CliBlobCustomAttrib)  
WARN  Invalid FieldOrProp value in NamedArg #179: 0x2e (CliBlobCustomAttrib)  
WARN  Invalid FieldOrProp value in NamedArg #180: 0x30 (CliBlobCustomAttrib)  
WARN  Invalid FieldOrProp value in NamedArg #181: 0x2e (CliBlobCustomAttrib)  
WARN  Invalid FieldOrProp value in NamedArg #182: 0x30 (CliBlobCustomAttrib)  
WARN  Invalid FieldOrProp value in NamedArg #183: 0x2c (CliBlobCustomAttrib)  
WARN  Invalid FieldOrProp value in NamedArg #184: 0x20 (CliBlobCustomAttrib)  
WARN  Invalid FieldOrProp value in NamedArg #185: 0x43 (CliBlobCustomAttrib)  
WARN  Invalid FieldOrProp value in NamedArg #186: 0x75 (CliBlobCustomAttrib)  
WARN  Invalid FieldOrProp value in NamedArg #187: 0x6c (CliBlobCustomAttrib)  
WARN  Invalid FieldOrProp value in NamedArg #188: 0x74 (CliBlobCustomAttrib)  
WARN  Invalid FieldOrProp value in NamedArg #189: 0x75 (CliBlobCustomAttrib)  
WARN  Invalid FieldOrProp value in NamedArg #190: 0x72 (CliBlobCustomAttrib)  
WARN  Invalid FieldOrProp value in NamedArg #191: 0x65 (CliBlobCustomAttrib)  
WARN  Invalid FieldOrProp value in NamedArg #192: 0x3d (CliBlobCustomAttrib)  
WARN  Invalid FieldOrProp value in NamedArg #193: 0x6e (CliBlobCustomAttrib)  
WARN  Invalid FieldOrProp value in NamedArg #194: 0x65 (CliBlobCustomAttrib)  
WARN  Invalid FieldOrProp value in NamedArg #195: 0x75 (CliBlobCustomAttrib)  
WARN  Invalid FieldOrProp value in NamedArg #196: 0x74 (CliBlobCustomAttrib)  
WARN  Invalid FieldOrProp value in NamedArg #197: 0x72 (CliBlobCustomAttrib)  
WARN  Invalid FieldOrProp value in NamedArg #198: 0x61 (CliBlobCustomAttrib)  
WARN  Invalid FieldOrProp value in NamedArg #199: 0x6c (CliBlobCustomAttrib)  
WARN  Invalid FieldOrProp value in NamedArg #200: 0x2c (CliBlobCustomAttrib)  
WARN  Invalid FieldOrProp value in NamedArg #201: 0x20 (CliBlobCustomAttrib)  
WARN  Invalid FieldOrProp value in NamedArg #202: 0x50 (CliBlobCustomAttrib)  
WARN  Invalid FieldOrProp value in NamedArg #203: 0x75 (CliBlobCustomAttrib)  
WARN  Invalid FieldOrProp value in NamedArg #204: 0x62 (CliBlobCustomAttrib)  
WARN  Invalid FieldOrProp value in NamedArg #205: 0x6c (CliBlobCustomAttrib)  
WARN  Invalid FieldOrProp value in NamedArg #206: 0x69 (CliBlobCustomAttrib)  
WARN  Invalid FieldOrProp value in NamedArg #207: 0x63 (CliBlobCustomAttrib)  
WARN  Invalid FieldOrProp value in NamedArg #208: 0x4b (CliBlobCustomAttrib)  
WARN  Invalid FieldOrProp value in NamedArg #209: 0x65 (CliBlobCustomAttrib)  
WARN  Invalid FieldOrProp value in NamedArg #210: 0x79 (CliBlobCustomAttrib)  
WARN  Invalid FieldOrProp value in NamedArg #212: 0x52 (CliBlobCustomAttrib)  
WARN  Invalid FieldOrProp value in NamedArg #213: 0x65 (CliBlobCustomAttrib)  
WARN  Invalid FieldOrProp value in NamedArg #214: 0x73 (CliBlobCustomAttrib)  
WARN  Invalid FieldOrProp value in NamedArg #215: 0x6f (CliBlobCustomAttrib)  
WARN  Invalid FieldOrProp value in NamedArg #216: 0x75 (CliBlobCustomAttrib)  
WARN  Invalid FieldOrProp value in NamedArg #217: 0x72 (CliBlobCustomAttrib)  
WARN  Invalid FieldOrProp value in NamedArg #218: 0x63 (CliBlobCustomAttrib)  
WARN  Invalid FieldOrProp value in NamedArg #219: 0x65 (CliBlobCustomAttrib)  
WARN  Invalid FieldOrProp value in NamedArg #221: 0x63 (CliBlobCustomAttrib)  
WARN  Invalid FieldOrProp value in NamedArg #222: 0x65 (CliBlobCustomAttrib)  
WARN  Invalid FieldOrProp value in NamedArg #223: 0x73 (CliBlobCustomAttrib)  
WARN  Invalid FieldOrProp value in NamedArg #224: 0x2e (CliBlobCustomAttrib)  
WARN  Invalid FieldOrProp value in NamedArg #225: 0x52 (CliBlobCustomAttrib)  
WARN  Invalid FieldOrProp value in NamedArg #226: 0x65 (CliBlobCustomAttrib)  
WARN  Invalid FieldOrProp value in NamedArg #227: 0x73 (CliBlobCustomAttrib)  
WARN  Invalid FieldOrProp value in NamedArg #228: 0x6f (CliBlobCustomAttrib)  
WARN  Invalid FieldOrProp value in NamedArg #229: 0x75 (CliBlobCustomAttrib)  
WARN  Invalid FieldOrProp value in NamedArg #230: 0x72 (CliBlobCustomAttrib)  
WARN  Invalid FieldOrProp value in NamedArg #231: 0x63 (CliBlobCustomAttrib)  
WARN  Invalid FieldOrProp value in NamedArg #232: 0x65 (CliBlobCustomAttrib)  
WARN  Invalid FieldOrProp value in NamedArg #233: 0x52 (CliBlobCustomAttrib)  
WARN  Invalid FieldOrProp value in NamedArg #234: 0x65 (CliBlobCustomAttrib)  
WARN  Invalid FieldOrProp value in NamedArg #235: 0x61 (CliBlobCustomAttrib)  
WARN  Invalid FieldOrProp value in NamedArg #236: 0x64 (CliBlobCustomAttrib)  
WARN  Invalid FieldOrProp value in NamedArg #237: 0x65 (CliBlobCustomAttrib)  
WARN  Invalid FieldOrProp value in NamedArg #238: 0x72 (CliBlobCustomAttrib)  
WARN  Invalid FieldOrProp value in NamedArg #239: 0x2c (CliBlobCustomAttrib)  
WARN  Invalid FieldOrProp value in NamedArg #240: 0x20 (CliBlobCustomAttrib)  
WARN  Invalid FieldOrProp value in NamedArg #241: 0x6d (CliBlobCustomAttrib)  
WARN  Invalid FieldOrProp value in NamedArg #242: 0x73 (CliBlobCustomAttrib)  
WARN  Invalid FieldOrProp value in NamedArg #243: 0x63 (CliBlobCustomAttrib)  
WARN  Invalid FieldOrProp value in NamedArg #244: 0x6f (CliBlobCustomAttrib)  
WARN  Invalid FieldOrProp value in NamedArg #245: 0x72 (CliBlobCustomAttrib)  
WARN  Invalid FieldOrProp value in NamedArg #246: 0x6c (CliBlobCustomAttrib)  
WARN  Invalid FieldOrProp value in NamedArg #247: 0x69 (CliBlobCustomAttrib)  
WARN  Invalid FieldOrProp value in NamedArg #248: 0x62 (CliBlobCustomAttrib)  
WARN  Invalid FieldOrProp value in NamedArg #249: 0x2c (CliBlobCustomAttrib)  
WARN  Invalid FieldOrProp value in NamedArg #250: 0x20 (CliBlobCustomAttrib)  
WARN  Invalid FieldOrProp value in NamedArg #251: 0x56 (CliBlobCustomAttrib)  
WARN  Invalid FieldOrProp value in NamedArg #252: 0x65 (CliBlobCustomAttrib)  
WARN  Invalid FieldOrProp value in NamedArg #253: 0x72 (CliBlobCustomAttrib)  
WARN  Invalid FieldOrProp value in NamedArg #254: 0x73 (CliBlobCustomAttrib)  
WARN  Invalid FieldOrProp value in NamedArg #255: 0x69 (CliBlobCustomAttrib)  
WARN  Invalid FieldOrProp value in NamedArg #256: 0x6f (CliBlobCustomAttrib)  
WARN  Invalid FieldOrProp value in NamedArg #257: 0x6e (CliBlobCustomAttrib)  
WARN  Invalid FieldOrProp value in NamedArg #258: 0x3d (CliBlobCustomAttrib)  
WARN  Invalid FieldOrProp value in NamedArg #259: 0x34 (CliBlobCustomAttrib)  
WARN  Invalid FieldOrProp value in NamedArg #260: 0x2e (CliBlobCustomAttrib)  
WARN  Invalid FieldOrProp value in NamedArg #261: 0x30 (CliBlobCustomAttrib)  
WARN  Invalid FieldOrProp value in NamedArg #262: 0x2e (CliBlobCustomAttrib)  
WARN  Invalid FieldOrProp value in NamedArg #263: 0x30 (CliBlobCustomAttrib)  
WARN  Invalid FieldOrProp value in NamedArg #264: 0x2e (CliBlobCustomAttrib)  
WARN  Invalid FieldOrProp value in NamedArg #265: 0x30 (CliBlobCustomAttrib)  
WARN  Invalid FieldOrProp value in NamedArg #266: 0x2c (CliBlobCustomAttrib)  
WARN  Invalid FieldOrProp value in NamedArg #267: 0x20 (CliBlobCustomAttrib)  
WARN  Invalid FieldOrProp value in NamedArg #268: 0x43 (CliBlobCustomAttrib)  
WARN  Invalid FieldOrProp value in NamedArg #269: 0x75 (CliBlobCustomAttrib)  
WARN  Invalid FieldOrProp value in NamedArg #270: 0x6c (CliBlobCustomAttrib)  
WARN  Invalid FieldOrProp value in NamedArg #271: 0x74 (CliBlobCustomAttrib)  
WARN  Invalid FieldOrProp value in NamedArg #272: 0x75 (CliBlobCustomAttrib)  
WARN  Invalid FieldOrProp value in NamedArg #273: 0x72 (CliBlobCustomAttrib)  
WARN  Invalid FieldOrProp value in NamedArg #274: 0x65 (CliBlobCustomAttrib)  
WARN  Invalid FieldOrProp value in NamedArg #275: 0x3d (CliBlobCustomAttrib)  
WARN  Invalid FieldOrProp value in NamedArg #276: 0x6e (CliBlobCustomAttrib)  
WARN  Invalid FieldOrProp value in NamedArg #277: 0x65 (CliBlobCustomAttrib)  
WARN  Invalid FieldOrProp value in NamedArg #278: 0x75 (CliBlobCustomAttrib)  
WARN  Invalid FieldOrProp value in NamedArg #279: 0x74 (CliBlobCustomAttrib)  
WARN  Invalid FieldOrProp value in NamedArg #280: 0x72 (CliBlobCustomAttrib)  
WARN  Invalid FieldOrProp value in NamedArg #281: 0x61 (CliBlobCustomAttrib)  
WARN  Invalid FieldOrProp value in NamedArg #282: 0x6c (CliBlobCustomAttrib)  
WARN  Invalid FieldOrProp value in NamedArg #283: 0x2c (CliBlobCustomAttrib)  
WARN  Invalid FieldOrProp value in NamedArg #284: 0x20 (CliBlobCustomAttrib)  
WARN  Invalid FieldOrProp value in NamedArg #285: 0x50 (CliBlobCustomAttrib)  
WARN  Invalid FieldOrProp value in NamedArg #286: 0x75 (CliBlobCustomAttrib)  
WARN  Invalid FieldOrProp value in NamedArg #287: 0x62 (CliBlobCustomAttrib)  
WARN  Invalid FieldOrProp value in NamedArg #288: 0x6c (CliBlobCustomAttrib)  
WARN  Invalid FieldOrProp value in NamedArg #289: 0x69 (CliBlobCustomAttrib)  
WARN  Invalid FieldOrProp value in NamedArg #290: 0x63 (CliBlobCustomAttrib)  
WARN  Invalid FieldOrProp value in NamedArg #291: 0x4b (CliBlobCustomAttrib)  
WARN  Invalid FieldOrProp value in NamedArg #292: 0x65 (CliBlobCustomAttrib)  
WARN  Invalid FieldOrProp value in NamedArg #293: 0x79 (CliBlobCustomAttrib)  
WARN  Invalid FieldOrProp value in NamedArg #295: 0x52 (CliBlobCustomAttrib)  
WARN  Invalid FieldOrProp value in NamedArg #296: 0x65 (CliBlobCustomAttrib)  
WARN  Invalid FieldOrProp value in NamedArg #297: 0x73 (CliBlobCustomAttrib)  
WARN  Invalid FieldOrProp value in NamedArg #298: 0x6f (CliBlobCustomAttrib)  
WARN  Invalid FieldOrProp value in NamedArg #299: 0x75 (CliBlobCustomAttrib)  
WARN  Invalid FieldOrProp value in NamedArg #300: 0x72 (CliBlobCustomAttrib)  
WARN  Invalid FieldOrProp value in NamedArg #301: 0x63 (CliBlobCustomAttrib)  
WARN  Invalid FieldOrProp value in NamedArg #302: 0x65 (CliBlobCustomAttrib)  
WARN  Invalid FieldOrProp value in NamedArg #304: 0x63 (CliBlobCustomAttrib)  
WARN  Invalid FieldOrProp value in NamedArg #305: 0x65 (CliBlobCustomAttrib)  
WARN  Invalid FieldOrProp value in NamedArg #306: 0x73 (CliBlobCustomAttrib)  
WARN  Invalid FieldOrProp value in NamedArg #307: 0x2e (CliBlobCustomAttrib)  
WARN  Invalid FieldOrProp value in NamedArg #308: 0x52 (CliBlobCustomAttrib)  
WARN  Invalid FieldOrProp value in NamedArg #309: 0x65 (CliBlobCustomAttrib)  
WARN  Invalid FieldOrProp value in NamedArg #310: 0x73 (CliBlobCustomAttrib)  
WARN  Invalid FieldOrProp value in NamedArg #311: 0x6f (CliBlobCustomAttrib)  
WARN  Invalid FieldOrProp value in NamedArg #312: 0x75 (CliBlobCustomAttrib)  
WARN  Invalid FieldOrProp value in NamedArg #313: 0x72 (CliBlobCustomAttrib)  
WARN  Invalid FieldOrProp value in NamedArg #314: 0x63 (CliBlobCustomAttrib)  
WARN  Invalid FieldOrProp value in NamedArg #315: 0x65 (CliBlobCustomAttrib)  
WARN  Invalid FieldOrProp value in NamedArg #316: 0x52 (CliBlobCustomAttrib)  
WARN  Invalid FieldOrProp value in NamedArg #317: 0x65 (CliBlobCustomAttrib)  
WARN  Invalid FieldOrProp value in NamedArg #318: 0x61 (CliBlobCustomAttrib)  
WARN  Invalid FieldOrProp value in NamedArg #319: 0x64 (CliBlobCustomAttrib)  
WARN  Invalid FieldOrProp value in NamedArg #320: 0x65 (CliBlobCustomAttrib)  
WARN  Invalid FieldOrProp value in NamedArg #321: 0x72 (CliBlobCustomAttrib)  
WARN  Invalid FieldOrProp value in NamedArg #322: 0x2c (CliBlobCustomAttrib)  
WARN  Invalid FieldOrProp value in NamedArg #323: 0x20 (CliBlobCustomAttrib)  
WARN  Invalid FieldOrProp value in NamedArg #324: 0x6d (CliBlobCustomAttrib)  
WARN  Invalid FieldOrProp value in NamedArg #325: 0x73 (CliBlobCustomAttrib)  
WARN  Invalid FieldOrProp value in NamedArg #326: 0x63 (CliBlobCustomAttrib)  
WARN  Invalid FieldOrProp value in NamedArg #327: 0x6f (CliBlobCustomAttrib)  
WARN  Invalid FieldOrProp value in NamedArg #328: 0x72 (CliBlobCustomAttrib)  
WARN  Invalid FieldOrProp value in NamedArg #329: 0x6c (CliBlobCustomAttrib)  
WARN  Invalid FieldOrProp value in NamedArg #330: 0x69 (CliBlobCustomAttrib)  
WARN  Invalid FieldOrProp value in NamedArg #331: 0x62 (CliBlobCustomAttrib)  
WARN  Invalid FieldOrProp value in NamedArg #332: 0x2c (CliBlobCustomAttrib)  
WARN  Invalid FieldOrProp value in NamedArg #333: 0x20 (CliBlobCustomAttrib)  
WARN  Invalid FieldOrProp value in NamedArg #334: 0x56 (CliBlobCustomAttrib)  
WARN  Invalid FieldOrProp value in NamedArg #335: 0x65 (CliBlobCustomAttrib)  
WARN  Invalid FieldOrProp value in NamedArg #336: 0x72 (CliBlobCustomAttrib)  
WARN  Invalid FieldOrProp value in NamedArg #337: 0x73 (CliBlobCustomAttrib)  
WARN  Invalid FieldOrProp value in NamedArg #338: 0x69 (CliBlobCustomAttrib)  
WARN  Invalid FieldOrProp value in NamedArg #339: 0x6f (CliBlobCustomAttrib)  
WARN  Invalid FieldOrProp value in NamedArg #340: 0x6e (CliBlobCustomAttrib)  
WARN  Invalid FieldOrProp value in NamedArg #341: 0x3d (CliBlobCustomAttrib)  
WARN  Invalid FieldOrProp value in NamedArg #342: 0x34 (CliBlobCustomAttrib)  
WARN  Invalid FieldOrProp value in NamedArg #343: 0x2e (CliBlobCustomAttrib)  
WARN  Invalid FieldOrProp value in NamedArg #344: 0x30 (CliBlobCustomAttrib)  
WARN  Invalid FieldOrProp value in NamedArg #345: 0x2e (CliBlobCustomAttrib)  
WARN  Invalid FieldOrProp value in NamedArg #346: 0x30 (CliBlobCustomAttrib)  
WARN  Invalid FieldOrProp value in NamedArg #347: 0x2e (CliBlobCustomAttrib)  
WARN  Invalid FieldOrProp value in NamedArg #348: 0x30 (CliBlobCustomAttrib)  
WARN  Invalid FieldOrProp value in NamedArg #349: 0x2c (CliBlobCustomAttrib)  
WARN  Invalid FieldOrProp value in NamedArg #350: 0x20 (CliBlobCustomAttrib)  
WARN  Invalid FieldOrProp value in NamedArg #351: 0x43 (CliBlobCustomAttrib)  
WARN  Invalid FieldOrProp value in NamedArg #352: 0x75 (CliBlobCustomAttrib)  
WARN  Invalid FieldOrProp value in NamedArg #353: 0x6c (CliBlobCustomAttrib)  
WARN  Invalid FieldOrProp value in NamedArg #354: 0x74 (CliBlobCustomAttrib)  
WARN  Invalid FieldOrProp value in NamedArg #355: 0x75 (CliBlobCustomAttrib)  
WARN  Invalid FieldOrProp value in NamedArg #356: 0x72 (CliBlobCustomAttrib)  
WARN  Invalid FieldOrProp value in NamedArg #357: 0x65 (CliBlobCustomAttrib)  
WARN  Invalid FieldOrProp value in NamedArg #358: 0x3d (CliBlobCustomAttrib)  
WARN  Invalid FieldOrProp value in NamedArg #359: 0x6e (CliBlobCustomAttrib)  
WARN  Invalid FieldOrProp value in NamedArg #360: 0x65 (CliBlobCustomAttrib)  
WARN  Invalid FieldOrProp value in NamedArg #361: 0x75 (CliBlobCustomAttrib)  
WARN  Invalid FieldOrProp value in NamedArg #362: 0x74 (CliBlobCustomAttrib)  
WARN  Invalid FieldOrProp value in NamedArg #363: 0x72 (CliBlobCustomAttrib)  
WARN  Invalid FieldOrProp value in NamedArg #364: 0x61 (CliBlobCustomAttrib)  
WARN  Invalid FieldOrProp value in NamedArg #365: 0x6c (CliBlobCustomAttrib)  
WARN  Invalid FieldOrProp value in NamedArg #366: 0x2c (CliBlobCustomAttrib)  
WARN  Invalid FieldOrProp value in NamedArg #367: 0x20 (CliBlobCustomAttrib)  
WARN  Invalid FieldOrProp value in NamedArg #368: 0x50 (CliBlobCustomAttrib)  
WARN  Invalid FieldOrProp value in NamedArg #369: 0x75 (CliBlobCustomAttrib)  
WARN  Invalid FieldOrProp value in NamedArg #370: 0x62 (CliBlobCustomAttrib)  
WARN  Invalid FieldOrProp value in NamedArg #371: 0x6c (CliBlobCustomAttrib)  
WARN  Invalid FieldOrProp value in NamedArg #372: 0x69 (CliBlobCustomAttrib)  
WARN  Invalid FieldOrProp value in NamedArg #373: 0x63 (CliBlobCustomAttrib)  
WARN  Invalid FieldOrProp value in NamedArg #374: 0x4b (CliBlobCustomAttrib)  
WARN  Invalid FieldOrProp value in NamedArg #375: 0x65 (CliBlobCustomAttrib)  
WARN  Invalid FieldOrProp value in NamedArg #376: 0x79 (CliBlobCustomAttrib)  
WARN  Invalid FieldOrProp value in NamedArg #378: 0x52 (CliBlobCustomAttrib)  
WARN  Invalid FieldOrProp value in NamedArg #379: 0x65 (CliBlobCustomAttrib)  
WARN  Invalid FieldOrProp value in NamedArg #380: 0x73 (CliBlobCustomAttrib)  
WARN  Invalid FieldOrProp value in NamedArg #381: 0x6f (CliBlobCustomAttrib)  
WARN  Invalid FieldOrProp value in NamedArg #382: 0x75 (CliBlobCustomAttrib)  
WARN  Invalid FieldOrProp value in NamedArg #383: 0x72 (CliBlobCustomAttrib)  
WARN  Invalid FieldOrProp value in NamedArg #384: 0x63 (CliBlobCustomAttrib)  
WARN  Invalid FieldOrProp value in NamedArg #385: 0x65 (CliBlobCustomAttrib)  
WARN  Invalid FieldOrProp value in NamedArg #387: 0x63 (CliBlobCustomAttrib)  
WARN  Invalid FieldOrProp value in NamedArg #388: 0x65 (CliBlobCustomAttrib)  
WARN  Invalid FieldOrProp value in NamedArg #389: 0x73 (CliBlobCustomAttrib)  
WARN  Invalid FieldOrProp value in NamedArg #390: 0x2e (CliBlobCustomAttrib)  
WARN  Invalid FieldOrProp value in NamedArg #391: 0x52 (CliBlobCustomAttrib)  
WARN  Invalid FieldOrProp value in NamedArg #392: 0x65 (CliBlobCustomAttrib)  
WARN  Invalid FieldOrProp value in NamedArg #393: 0x73 (CliBlobCustomAttrib)  
WARN  Invalid FieldOrProp value in NamedArg #394: 0x6f (CliBlobCustomAttrib)  
WARN  Invalid FieldOrProp value in NamedArg #395: 0x75 (CliBlobCustomAttrib)  
WARN  Invalid FieldOrProp value in NamedArg #396: 0x72 (CliBlobCustomAttrib)  
WARN  Invalid FieldOrProp value in NamedArg #397: 0x63 (CliBlobCustomAttrib)  
WARN  Invalid FieldOrProp value in NamedArg #398: 0x65 (CliBlobCustomAttrib)  
WARN  Invalid FieldOrProp value in NamedArg #399: 0x52 (CliBlobCustomAttrib)  
WARN  Invalid FieldOrProp value in NamedArg #400: 0x65 (CliBlobCustomAttrib)  
WARN  Invalid FieldOrProp value in NamedArg #401: 0x61 (CliBlobCustomAttrib)  
WARN  Invalid FieldOrProp value in NamedArg #402: 0x64 (CliBlobCustomAttrib)  
WARN  Invalid FieldOrProp value in NamedArg #403: 0x65 (CliBlobCustomAttrib)  
WARN  Invalid FieldOrProp value in NamedArg #404: 0x72 (CliBlobCustomAttrib)  
WARN  Invalid FieldOrProp value in NamedArg #405: 0x2c (CliBlobCustomAttrib)  
WARN  Invalid FieldOrProp value in NamedArg #406: 0x20 (CliBlobCustomAttrib)  
WARN  Invalid FieldOrProp value in NamedArg #407: 0x6d (CliBlobCustomAttrib)  
WARN  Invalid FieldOrProp value in NamedArg #408: 0x73 (CliBlobCustomAttrib)  
WARN  Invalid FieldOrProp value in NamedArg #409: 0x63 (CliBlobCustomAttrib)  
WARN  Invalid FieldOrProp value in NamedArg #410: 0x6f (CliBlobCustomAttrib)  
WARN  Invalid FieldOrProp value in NamedArg #411: 0x72 (CliBlobCustomAttrib)  
WARN  Invalid FieldOrProp value in NamedArg #412: 0x6c (CliBlobCustomAttrib)  
WARN  Invalid FieldOrProp value in NamedArg #413: 0x69 (CliBlobCustomAttrib)  
WARN  Invalid FieldOrProp value in NamedArg #414: 0x62 (CliBlobCustomAttrib)  
WARN  Invalid FieldOrProp value in NamedArg #415: 0x2c (CliBlobCustomAttrib)  
WARN  Invalid FieldOrProp value in NamedArg #416: 0x20 (CliBlobCustomAttrib)  
WARN  Invalid FieldOrProp value in NamedArg #417: 0x56 (CliBlobCustomAttrib)  
WARN  Invalid FieldOrProp value in NamedArg #418: 0x65 (CliBlobCustomAttrib)  
WARN  Invalid FieldOrProp value in NamedArg #419: 0x72 (CliBlobCustomAttrib)  
WARN  Invalid FieldOrProp value in NamedArg #420: 0x73 (CliBlobCustomAttrib)  
WARN  Invalid FieldOrProp value in NamedArg #421: 0x69 (CliBlobCustomAttrib)  
WARN  Invalid FieldOrProp value in NamedArg #422: 0x6f (CliBlobCustomAttrib)  
WARN  Invalid FieldOrProp value in NamedArg #423: 0x6e (CliBlobCustomAttrib)  
WARN  Invalid FieldOrProp value in NamedArg #424: 0x3d (CliBlobCustomAttrib)  
WARN  Invalid FieldOrProp value in NamedArg #425: 0x34 (CliBlobCustomAttrib)  
WARN  Invalid FieldOrProp value in NamedArg #426: 0x2e (CliBlobCustomAttrib)  
WARN  Invalid FieldOrProp value in NamedArg #427: 0x30 (CliBlobCustomAttrib)  
WARN  Invalid FieldOrProp value in NamedArg #428: 0x2e (CliBlobCustomAttrib)  
WARN  Invalid FieldOrProp value in NamedArg #429: 0x30 (CliBlobCustomAttrib)  
WARN  Invalid FieldOrProp value in NamedArg #430: 0x2e (CliBlobCustomAttrib)  
WARN  Invalid FieldOrProp value in NamedArg #431: 0x30 (CliBlobCustomAttrib)  
WARN  Invalid FieldOrProp value in NamedArg #432: 0x2c (CliBlobCustomAttrib)  
WARN  Invalid FieldOrProp value in NamedArg #433: 0x20 (CliBlobCustomAttrib)  
WARN  Invalid FieldOrProp value in NamedArg #434: 0x43 (CliBlobCustomAttrib)  
WARN  Invalid FieldOrProp value in NamedArg #435: 0x75 (CliBlobCustomAttrib)  
WARN  Invalid FieldOrProp value in NamedArg #436: 0x6c (CliBlobCustomAttrib)  
WARN  Invalid FieldOrProp value in NamedArg #437: 0x74 (CliBlobCustomAttrib)  
WARN  Invalid FieldOrProp value in NamedArg #438: 0x75 (CliBlobCustomAttrib)  
WARN  Invalid FieldOrProp value in NamedArg #439: 0x72 (CliBlobCustomAttrib)  
WARN  Invalid FieldOrProp value in NamedArg #440: 0x65 (CliBlobCustomAttrib)  
WARN  Invalid FieldOrProp value in NamedArg #441: 0x3d (CliBlobCustomAttrib)  
WARN  Invalid FieldOrProp value in NamedArg #442: 0x6e (CliBlobCustomAttrib)  
WARN  Invalid FieldOrProp value in NamedArg #443: 0x65 (CliBlobCustomAttrib)  
WARN  Invalid FieldOrProp value in NamedArg #444: 0x75 (CliBlobCustomAttrib)  
WARN  Invalid FieldOrProp value in NamedArg #445: 0x74 (CliBlobCustomAttrib)  
WARN  Invalid FieldOrProp value in NamedArg #446: 0x72 (CliBlobCustomAttrib)  
WARN  Invalid FieldOrProp value in NamedArg #447: 0x61 (CliBlobCustomAttrib)  
WARN  Invalid FieldOrProp value in NamedArg #448: 0x6c (CliBlobCustomAttrib)  
WARN  Invalid FieldOrProp value in NamedArg #449: 0x2c (CliBlobCustomAttrib)  
WARN  Invalid FieldOrProp value in NamedArg #450: 0x20 (CliBlobCustomAttrib)  
WARN  Invalid FieldOrProp value in NamedArg #451: 0x50 (CliBlobCustomAttrib)  
WARN  Invalid FieldOrProp value in NamedArg #452: 0x75 (CliBlobCustomAttrib)  
WARN  Invalid FieldOrProp value in NamedArg #453: 0x62 (CliBlobCustomAttrib)  
WARN  Invalid FieldOrProp value in NamedArg #454: 0x6c (CliBlobCustomAttrib)  
WARN  Invalid FieldOrProp value in NamedArg #455: 0x69 (CliBlobCustomAttrib)  
WARN  Invalid FieldOrProp value in NamedArg #456: 0x63 (CliBlobCustomAttrib)  
WARN  Invalid FieldOrProp value in NamedArg #457: 0x4b (CliBlobCustomAttrib)  
WARN  Invalid FieldOrProp value in NamedArg #458: 0x65 (CliBlobCustomAttrib)  
WARN  Invalid FieldOrProp value in NamedArg #459: 0x79 (CliBlobCustomAttrib)  
WARN  Invalid FieldOrProp value in NamedArg #461: 0x52 (CliBlobCustomAttrib)  
WARN  Invalid FieldOrProp value in NamedArg #462: 0x65 (CliBlobCustomAttrib)  
WARN  Invalid FieldOrProp value in NamedArg #463: 0x73 (CliBlobCustomAttrib)  
WARN  Invalid FieldOrProp value in NamedArg #464: 0x6f (CliBlobCustomAttrib)  
WARN  Invalid FieldOrProp value in NamedArg #465: 0x75 (CliBlobCustomAttrib)  
WARN  Invalid FieldOrProp value in NamedArg #466: 0x72 (CliBlobCustomAttrib)  
WARN  Invalid FieldOrProp value in NamedArg #467: 0x63 (CliBlobCustomAttrib)  
WARN  Invalid FieldOrProp value in NamedArg #468: 0x65 (CliBlobCustomAttrib)  
WARN  Invalid FieldOrProp value in NamedArg #470: 0x65 (CliBlobCustomAttrib)  
WARN  Invalid FieldOrProp value in NamedArg #471: 0x72 (CliBlobCustomAttrib)  
WARN  Invalid FieldOrProp value in NamedArg #472: 0x73 (CliBlobCustomAttrib)  
WARN  Invalid FieldOrProp value in NamedArg #473: 0x69 (CliBlobCustomAttrib)  
WARN  Invalid FieldOrProp value in NamedArg #474: 0x6f (CliBlobCustomAttrib)  
WARN  Invalid FieldOrProp value in NamedArg #475: 0x6e (CliBlobCustomAttrib)  
WARN  Invalid FieldOrProp value in NamedArg #476: 0x3d (CliBlobCustomAttrib)  
WARN  Invalid FieldOrProp value in NamedArg #477: 0x34 (CliBlobCustomAttrib)  
WARN  Invalid FieldOrProp value in NamedArg #478: 0x2e (CliBlobCustomAttrib)  
WARN  Invalid FieldOrProp value in NamedArg #479: 0x30 (CliBlobCustomAttrib)  
WARN  Invalid FieldOrProp value in NamedArg #480: 0x2e (CliBlobCustomAttrib)  
WARN  Invalid FieldOrProp value in NamedArg #481: 0x30 (CliBlobCustomAttrib)  
WARN  Invalid FieldOrProp value in NamedArg #482: 0x2e (CliBlobCustomAttrib)  
WARN  Invalid FieldOrProp value in NamedArg #483: 0x30 (CliBlobCustomAttrib)  
WARN  Invalid FieldOrProp value in NamedArg #484: 0x2c (CliBlobCustomAttrib)  
WARN  Invalid FieldOrProp value in NamedArg #485: 0x20 (CliBlobCustomAttrib)  
WARN  Invalid FieldOrProp value in NamedArg #486: 0x43 (CliBlobCustomAttrib)  
WARN  Invalid FieldOrProp value in NamedArg #487: 0x75 (CliBlobCustomAttrib)  
WARN  Invalid FieldOrProp value in NamedArg #488: 0x6c (CliBlobCustomAttrib)  
WARN  Invalid FieldOrProp value in NamedArg #489: 0x74 (CliBlobCustomAttrib)  
WARN  Invalid FieldOrProp value in NamedArg #490: 0x75 (CliBlobCustomAttrib)  
WARN  Invalid FieldOrProp value in NamedArg #491: 0x72 (CliBlobCustomAttrib)  
WARN  Invalid FieldOrProp value in NamedArg #492: 0x65 (CliBlobCustomAttrib)  
WARN  Invalid FieldOrProp value in NamedArg #493: 0x3d (CliBlobCustomAttrib)  
WARN  Invalid FieldOrProp value in NamedArg #494: 0x6e (CliBlobCustomAttrib)  
WARN  Invalid FieldOrProp value in NamedArg #495: 0x65 (CliBlobCustomAttrib)  
WARN  Invalid FieldOrProp value in NamedArg #496: 0x75 (CliBlobCustomAttrib)  
WARN  Invalid FieldOrProp value in NamedArg #497: 0x74 (CliBlobCustomAttrib)  
WARN  Invalid FieldOrProp value in NamedArg #498: 0x72 (CliBlobCustomAttrib)  
WARN  Invalid FieldOrProp value in NamedArg #499: 0x61 (CliBlobCustomAttrib)  
WARN  Invalid FieldOrProp value in NamedArg #500: 0x6c (CliBlobCustomAttrib)  
WARN  Invalid FieldOrProp value in NamedArg #501: 0x2c (CliBlobCustomAttrib)  
WARN  Invalid FieldOrProp value in NamedArg #502: 0x20 (CliBlobCustomAttrib)  
WARN  Invalid FieldOrProp value in NamedArg #503: 0x50 (CliBlobCustomAttrib)  
WARN  Invalid FieldOrProp value in NamedArg #504: 0x75 (CliBlobCustomAttrib)  
WARN  Invalid FieldOrProp value in NamedArg #505: 0x62 (CliBlobCustomAttrib)  
WARN  Invalid FieldOrProp value in NamedArg #506: 0x6c (CliBlobCustomAttrib)  
WARN  Invalid FieldOrProp value in NamedArg #507: 0x69 (CliBlobCustomAttrib)  
WARN  Invalid FieldOrProp value in NamedArg #508: 0x63 (CliBlobCustomAttrib)  
WARN  Invalid FieldOrProp value in NamedArg #509: 0x4b (CliBlobCustomAttrib)  
WARN  Invalid FieldOrProp value in NamedArg #510: 0x65 (CliBlobCustomAttrib)  
WARN  Invalid FieldOrProp value in NamedArg #511: 0x79 (CliBlobCustomAttrib)  
WARN  Invalid FieldOrProp value in NamedArg #513: 0x0 (CliBlobCustomAttrib)  
WARN  Invalid FieldOrProp value in NamedArg #514: 0x4 (CliBlobCustomAttrib)  
WARN  Invalid FieldOrProp value in NamedArg #515: 0x4e (CliBlobCustomAttrib)  
WARN  Invalid FieldOrProp value in NamedArg #516: 0x0 (CliBlobCustomAttrib)  
WARN  Invalid FieldOrProp value in NamedArg #517: 0x49 (CliBlobCustomAttrib)  
WARN  Invalid FieldOrProp value in NamedArg #518: 0x0 (CliBlobCustomAttrib)  
WARN  Invalid FieldOrProp value in NamedArg #519: 0x0 (CliBlobCustomAttrib)  
WARN  Invalid FieldOrProp value in NamedArg #520: 0x0 (CliBlobCustomAttrib)  
WARN  Invalid FieldOrProp value in NamedArg #521: 0x0 (CliBlobCustomAttrib)  
WARN  Invalid FieldOrProp value in NamedArg #522: 0x0 (CliBlobCustomAttrib)  
WARN  Invalid FieldOrProp value in NamedArg #523: 0x8 (CliBlobCustomAttrib)  
WARN  Invalid FieldOrProp value in NamedArg #524: 0x62 (CliBlobCustomAttrib)  
WARN  Invalid FieldOrProp value in NamedArg #525: 0x0 (CliBlobCustomAttrib)  
WARN  Invalid FieldOrProp value in NamedArg #526: 0x72 (CliBlobCustomAttrib)  
WARN  Invalid FieldOrProp value in NamedArg #527: 0x0 (CliBlobCustomAttrib)  
WARN  Invalid FieldOrProp value in NamedArg #528: 0x50 (CliBlobCustomAttrib)  
WARN  Invalid FieldOrProp value in NamedArg #529: 0x0 (CliBlobCustomAttrib)  
WARN  Invalid FieldOrProp value in NamedArg #530: 0x43 (CliBlobCustomAttrib)  
WARN  Invalid FieldOrProp value in NamedArg #531: 0x0 (CliBlobCustomAttrib)  
WARN  Invalid FieldOrProp value in NamedArg #532: 0x1d (CliBlobCustomAttrib)  
WARN  Invalid FieldOrProp value in NamedArg #533: 0x65 (CliBlobCustomAttrib)  
WARN  Invalid FieldOrProp value in NamedArg #534: 0x1 (CliBlobCustomAttrib)  
WARN  Invalid FieldOrProp value in NamedArg #535: 0x0 (CliBlobCustomAttrib)  
WARN  Invalid FieldOrProp value in NamedArg #536: 0x40 (CliBlobCustomAttrib)  
WARN  Invalid FieldOrProp value in NamedArg #537: 0x0 (CliBlobCustomAttrib)  
WARN  Invalid FieldOrProp value in NamedArg #538: 0x1 (CliBlobCustomAttrib)  
WARN  Invalid FieldOrProp value in NamedArg #539: 0x0 (CliBlobCustomAttrib)  
WARN  Invalid FieldOrProp value in NamedArg #540: 0x0 (CliBlobCustomAttrib)  
WARN  Invalid FieldOrProp value in NamedArg #541: 0x0 (CliBlobCustomAttrib)  
WARN  Invalid FieldOrProp value in NamedArg #542: 0xffffffff (CliBlobCustomAttrib)  
WARN  Invalid FieldOrProp value in NamedArg #543: 0xffffffff (CliBlobCustomAttrib)  
WARN  Invalid FieldOrProp value in NamedArg #544: 0xffffffff (CliBlobCustomAttrib)  
WARN  Invalid FieldOrProp value in NamedArg #545: 0xffffffff (CliBlobCustomAttrib)  
WARN  Invalid FieldOrProp value in NamedArg #546: 0x1 (CliBlobCustomAttrib)  
WARN  Invalid FieldOrProp value in NamedArg #547: 0x0 (CliBlobCustomAttrib)  
WARN  Invalid FieldOrProp value in NamedArg #548: 0x0 (CliBlobCustomAttrib)  
WARN  Invalid FieldOrProp value in NamedArg #549: 0x0 (CliBlobCustomAttrib)  
WARN  Invalid FieldOrProp value in NamedArg #550: 0x0 (CliBlobCustomAttrib)  
WARN  Invalid FieldOrProp value in NamedArg #551: 0x0 (CliBlobCustomAttrib)  
WARN  Invalid FieldOrProp value in NamedArg #552: 0x0 (CliBlobCustomAttrib)  
WARN  Invalid FieldOrProp value in NamedArg #553: 0x0 (CliBlobCustomAttrib)  
WARN  Invalid FieldOrProp value in NamedArg #554: 0xc (CliBlobCustomAttrib)  
WARN  Invalid FieldOrProp value in NamedArg #555: 0x2 (CliBlobCustomAttrib)  
WARN  Invalid FieldOrProp value in NamedArg #556: 0x0 (CliBlobCustomAttrib)  
WARN  Invalid FieldOrProp value in NamedArg #557: 0x0 (CliBlobCustomAttrib)  
WARN  Invalid FieldOrProp value in NamedArg #558: 0x0 (CliBlobCustomAttrib)  
WARN  Invalid FieldOrProp value in NamedArg #559: 0x51 (CliBlobCustomAttrib)  
WARN  Invalid FieldOrProp value in NamedArg #561: 0x63 (CliBlobCustomAttrib)  
WARN  Invalid FieldOrProp value in NamedArg #562: 0x4b (CliBlobCustomAttrib)  
WARN  Invalid FieldOrProp value in NamedArg #563: 0x65 (CliBlobCustomAttrib)  
WARN  Invalid FieldOrProp value in NamedArg #564: 0x79 (CliBlobCustomAttrib)  
WARN  Invalid FieldOrProp value in NamedArg #566: 0x61 (CliBlobCustomAttrib)  
WARN  Invalid FieldOrProp value in NamedArg #567: 0x70 (CliBlobCustomAttrib)  
WARN  Invalid FieldOrProp value in NamedArg #568: 0x1 (CliBlobCustomAttrib)  
WARN  Invalid FieldOrProp value in NamedArg #569: 0x0 (CliBlobCustomAttrib)  
WARN  Invalid FieldOrProp value in NamedArg #570: 0x0 (CliBlobCustomAttrib)  
WARN  Invalid FieldOrProp value in NamedArg #571: 0x0 (CliBlobCustomAttrib)  
WARN  Invalid FieldOrProp value in NamedArg #572: 0x4 (CliBlobCustomAttrib)  
WARN  Invalid FieldOrProp value in NamedArg #573: 0x44 (CliBlobCustomAttrib)  
WARN  Invalid FieldOrProp value in NamedArg #574: 0x61 (CliBlobCustomAttrib)  
WARN  Invalid FieldOrProp value in NamedArg #575: 0x74 (CliBlobCustomAttrib)  
WARN  Invalid FieldOrProp value in NamedArg #576: 0x61 (CliBlobCustomAttrib)  
WARN  Invalid FieldOrProp value in NamedArg #577: 0x7 (CliBlobCustomAttrib)  
WARN  Invalid FieldOrProp value in NamedArg #578: 0x2 (CliBlobCustomAttrib)  
WARN  Invalid FieldOrProp value in NamedArg #579: 0x2 (CliBlobCustomAttrib)  
WARN  Invalid FieldOrProp value in NamedArg #580: 0x0 (CliBlobCustomAttrib)  
WARN  Invalid FieldOrProp value in NamedArg #581: 0x0 (CliBlobCustomAttrib)  
WARN  Invalid FieldOrProp value in NamedArg #582: 0x0 (CliBlobCustomAttrib)  
WARN  Invalid FieldOrProp value in NamedArg #583: 0x9 (CliBlobCustomAttrib)  
WARN  Invalid FieldOrProp value in NamedArg #584: 0x3 (CliBlobCustomAttrib)  
WARN  Invalid FieldOrProp value in NamedArg #585: 0x0 (CliBlobCustomAttrib)  
WARN  Invalid FieldOrProp value in NamedArg #586: 0x0 (CliBlobCustomAttrib)  
WARN  Invalid FieldOrProp value in NamedArg #587: 0x0 (CliBlobCustomAttrib)  
WARN  Invalid FieldOrProp value in NamedArg #588: 0xf (CliBlobCustomAttrib)  
WARN  Invalid FieldOrProp value in NamedArg #589: 0x3 (CliBlobCustomAttrib)  
WARN  Invalid FieldOrProp value in NamedArg #590: 0x0 (CliBlobCustomAttrib)  
WARN  Invalid FieldOrProp value in NamedArg #591: 0x0 (CliBlobCustomAttrib)  
WARN  Invalid FieldOrProp value in NamedArg #592: 0x0 (CliBlobCustomAttrib)  
WARN  Invalid FieldOrProp value in NamedArg #593: 0x7a (CliBlobCustomAttrib)  
WARN  Invalid FieldOrProp value in NamedArg #594: 0x64 (CliBlobCustomAttrib)  
WARN  Invalid FieldOrProp value in NamedArg #595: 0x1 (CliBlobCustomAttrib)  
WARN  Invalid FieldOrProp value in NamedArg #596: 0x0 (CliBlobCustomAttrib)  
WARN  Invalid FieldOrProp value in NamedArg #597: 0x2 (CliBlobCustomAttrib)  
WARN  Invalid FieldOrProp value in NamedArg #598: 0x42 (CliBlobCustomAttrib)  
WARN  Invalid FieldOrProp value in NamedArg #599: 0x4d (CliBlobCustomAttrib)  
WARN  Invalid FieldOrProp value in NamedArg #600: 0x7a (CliBlobCustomAttrib)  
WARN  Invalid FieldOrProp value in NamedArg #601: 0x64 (CliBlobCustomAttrib)  
WARN  Invalid FieldOrProp value in NamedArg #602: 0x1 (CliBlobCustomAttrib)  
WARN  Invalid FieldOrProp value in NamedArg #603: 0x0 (CliBlobCustomAttrib)  
WARN  Invalid FieldOrProp value in NamedArg #604: 0x0 (CliBlobCustomAttrib)  
WARN  Invalid FieldOrProp value in NamedArg #605: 0x0 (CliBlobCustomAttrib)  
WARN  Invalid FieldOrProp value in NamedArg #606: 0x0 (CliBlobCustomAttrib)  
WARN  Invalid FieldOrProp value in NamedArg #607: 0x0 (CliBlobCustomAttrib)  
WARN  Invalid FieldOrProp value in NamedArg #608: 0x36 (CliBlobCustomAttrib)  
WARN  Invalid FieldOrProp value in NamedArg #609: 0x0 (CliBlobCustomAttrib)  
WARN  Invalid FieldOrProp value in NamedArg #610: 0x0 (CliBlobCustomAttrib)  
WARN  Invalid FieldOrProp value in NamedArg #611: 0x0 (CliBlobCustomAttrib)  
WARN  Invalid FieldOrProp value in NamedArg #612: 0x28 (CliBlobCustomAttrib)  
WARN  Invalid FieldOrProp value in NamedArg #613: 0x0 (CliBlobCustomAttrib)  
WARN  Invalid FieldOrProp value in NamedArg #614: 0x0 (CliBlobCustomAttrib)  
WARN  Invalid FieldOrProp value in NamedArg #615: 0x0 (CliBlobCustomAttrib)  
WARN  Invalid FieldOrProp value in NamedArg #616: 0xffffff97 (CliBlobCustomAttrib)  
WARN  Invalid FieldOrProp value in NamedArg #617: 0x0 (CliBlobCustomAttrib)  
WARN  Invalid FieldOrProp value in NamedArg #618: 0x0 (CliBlobCustomAttrib)  
WARN  Invalid FieldOrProp value in NamedArg #619: 0x0 (CliBlobCustomAttrib)  
WARN  Invalid FieldOrProp value in NamedArg #620: 0xffffff97 (CliBlobCustomAttrib)  
WARN  Invalid FieldOrProp value in NamedArg #621: 0x0 (CliBlobCustomAttrib)  
WARN  Invalid FieldOrProp value in NamedArg #622: 0x0 (CliBlobCustomAttrib)  
WARN  Invalid FieldOrProp value in NamedArg #623: 0x0 (CliBlobCustomAttrib)  
WARN  Invalid FieldOrProp value in NamedArg #624: 0x1 (CliBlobCustomAttrib)  
WARN  Invalid FieldOrProp value in NamedArg #625: 0x0 (CliBlobCustomAttrib)  
WARN  Invalid FieldOrProp value in NamedArg #626: 0x20 (CliBlobCustomAttrib)  
WARN  Invalid FieldOrProp value in NamedArg #627: 0x0 (CliBlobCustomAttrib)  
WARN  Invalid FieldOrProp value in NamedArg #628: 0x0 (CliBlobCustomAttrib)  
WARN  Invalid FieldOrProp value in NamedArg #629: 0x0 (CliBlobCustomAttrib)  
WARN  Invalid FieldOrProp value in NamedArg #630: 0x0 (CliBlobCustomAttrib)  
WARN  Invalid FieldOrProp value in NamedArg #631: 0x0 (CliBlobCustomAttrib)  
WARN  Invalid FieldOrProp value in NamedArg #632: 0x0 (CliBlobCustomAttrib)  
WARN  Invalid FieldOrProp value in NamedArg #633: 0x0 (CliBlobCustomAttrib)  
WARN  Invalid FieldOrProp value in NamedArg #634: 0x0 (CliBlobCustomAttrib)  
WARN  Invalid FieldOrProp value in NamedArg #635: 0x0 (CliBlobCustomAttrib)  
WARN  Invalid FieldOrProp value in NamedArg #636: 0xffffffc4 (CliBlobCustomAttrib)  
WARN  Invalid FieldOrProp value in NamedArg #637: 0xe (CliBlobCustomAttrib)  
WARN  Invalid FieldOrProp value in NamedArg #638: 0x0 (CliBlobCustomAttrib)  
WARN  Invalid FieldOrProp value in NamedArg #639: 0x0 (CliBlobCustomAttrib)  
WARN  Invalid FieldOrProp value in NamedArg #640: 0xffffffc4 (CliBlobCustomAttrib)  
WARN  Invalid FieldOrProp value in NamedArg #641: 0xe (CliBlobCustomAttrib)  
WARN  Invalid FieldOrProp value in NamedArg #642: 0x0 (CliBlobCustomAttrib)  
WARN  Invalid FieldOrProp value in NamedArg #643: 0x0 (CliBlobCustomAttrib)  
WARN  Invalid FieldOrProp value in NamedArg #644: 0x0 (CliBlobCustomAttrib)  
WARN  Invalid FieldOrProp value in NamedArg #645: 0x0 (CliBlobCustomAttrib)  
WARN  Invalid FieldOrProp value in NamedArg #646: 0x0 (CliBlobCustomAttrib)  
WARN  Invalid FieldOrProp value in NamedArg #647: 0x0 (CliBlobCustomAttrib)  
WARN  Invalid FieldOrProp value in NamedArg #648: 0x0 (CliBlobCustomAttrib)  
WARN  Invalid FieldOrProp value in NamedArg #649: 0x0 (CliBlobCustomAttrib)  
WARN  Invalid FieldOrProp value in NamedArg #650: 0x0 (CliBlobCustomAttrib)  
WARN  Invalid FieldOrProp value in NamedArg #651: 0x0 (CliBlobCustomAttrib)  
WARN  Invalid FieldOrProp value in NamedArg #652: 0x40 (CliBlobCustomAttrib)  
WARN  Invalid FieldOrProp value in NamedArg #653: 0x0 (CliBlobCustomAttrib)  
WARN  Invalid FieldOrProp value in NamedArg #654: 0x0 (CliBlobCustomAttrib)  
WARN  Invalid FieldOrProp value in NamedArg #655: 0xffffffff (CliBlobCustomAttrib)  
WARN  Invalid FieldOrProp value in NamedArg #656: 0x0 (CliBlobCustomAttrib)  
WARN  Invalid FieldOrProp value in NamedArg #657: 0x1 (CliBlobCustomAttrib)  
WARN  Invalid FieldOrProp value in NamedArg #658: 0x44 (CliBlobCustomAttrib)  
WARN  Invalid FieldOrProp value in NamedArg #659: 0xffffffff (CliBlobCustomAttrib)  
WARN  Invalid FieldOrProp value in NamedArg #660: 0x0 (CliBlobCustomAttrib)  
WARN  Invalid FieldOrProp value in NamedArg #661: 0x0 (CliBlobCustomAttrib)  
WARN  Invalid FieldOrProp value in NamedArg #662: 0xffffffa0 (CliBlobCustomAttrib)  
WARN  Invalid FieldOrProp value in NamedArg #663: 0xffffffff (CliBlobCustomAttrib)  
WARN  Invalid FieldOrProp value in NamedArg #664: 0x6 (CliBlobCustomAttrib)  
WARN  Invalid FieldOrProp value in NamedArg #665: 0x0 (CliBlobCustomAttrib)  
WARN  Invalid FieldOrProp value in NamedArg #666: 0x0 (CliBlobCustomAttrib)  
WARN  Invalid FieldOrProp value in NamedArg #667: 0xffffffff (CliBlobCustomAttrib)  
WARN  Invalid FieldOrProp value in NamedArg #668: 0xffffff98 (CliBlobCustomAttrib)  
WARN  Invalid FieldOrProp value in NamedArg #669: 0x38 (CliBlobCustomAttrib)  
WARN  Invalid FieldOrProp value in NamedArg #670: 0x6 (CliBlobCustomAttrib)  
WARN  Invalid FieldOrProp value in NamedArg #671: 0xffffffff (CliBlobCustomAttrib)  
WARN  Invalid FieldOrProp value in NamedArg #672: 0x58 (CliBlobCustomAttrib)  
WARN  Invalid FieldOrProp value in NamedArg #673: 0x10 (CliBlobCustomAttrib)  
WARN  Invalid FieldOrProp value in NamedArg #674: 0x1f (CliBlobCustomAttrib)  
WARN  Invalid FieldOrProp value in NamedArg #675: 0xffffffff (CliBlobCustomAttrib)  
WARN  Invalid FieldOrProp value in NamedArg #676: 0xffffff80 (CliBlobCustomAttrib)  
WARN  Invalid FieldOrProp value in NamedArg #677: 0x38 (CliBlobCustomAttrib)  
WARN  Invalid FieldOrProp value in NamedArg #678: 0x4 (CliBlobCustomAttrib)  
WARN  Invalid FieldOrProp value in NamedArg #679: 0xffffffff (CliBlobCustomAttrib)  
WARN  Invalid FieldOrProp value in NamedArg #680: 0xffffff8d (CliBlobCustomAttrib)  
WARN  Invalid FieldOrProp value in NamedArg #681: 0x5a (CliBlobCustomAttrib)  
WARN  Invalid FieldOrProp value in NamedArg #682: 0x1a (CliBlobCustomAttrib)  
WARN  Invalid FieldOrProp value in NamedArg #683: 0xffffffff (CliBlobCustomAttrib)  
WARN  Invalid FieldOrProp value in NamedArg #685: 0xffffffff (CliBlobCustomAttrib)  
WARN  Invalid FieldOrProp value in NamedArg #686: 0xfffffffa (CliBlobCustomAttrib)  
WARN  Invalid FieldOrProp value in NamedArg #687: 0x28 (CliBlobCustomAttrib)  
WARN  Invalid FieldOrProp value in NamedArg #688: 0x1b (CliBlobCustomAttrib)  
WARN  Invalid FieldOrProp value in NamedArg #689: 0xffffffff (CliBlobCustomAttrib)  
WARN  Invalid FieldOrProp value in NamedArg #690: 0x0 (CliBlobCustomAttrib)  
WARN  Invalid FieldOrProp value in NamedArg #691: 0xffffff9a (CliBlobCustomAttrib)  
WARN  Invalid FieldOrProp value in NamedArg #692: 0x28 (CliBlobCustomAttrib)  
WARN  Invalid FieldOrProp value in NamedArg #693: 0xffffffff (CliBlobCustomAttrib)  
WARN  Invalid FieldOrProp value in NamedArg #694: 0x1 (CliBlobCustomAttrib)  
WARN  Invalid FieldOrProp value in NamedArg #695: 0xfffffff1 (CliBlobCustomAttrib)  
WARN  Invalid FieldOrProp value in NamedArg #696: 0x72 (CliBlobCustomAttrib)  
WARN  Invalid FieldOrProp value in NamedArg #697: 0xffffffff (CliBlobCustomAttrib)  
WARN  Invalid FieldOrProp value in NamedArg #698: 0x28 (CliBlobCustomAttrib)  
WARN  Invalid FieldOrProp value in NamedArg #699: 0x4 (CliBlobCustomAttrib)  
WARN  Invalid FieldOrProp value in NamedArg #700: 0x0 (CliBlobCustomAttrib)  
WARN  Invalid FieldOrProp value in NamedArg #701: 0xffffffff (CliBlobCustomAttrib)  
WARN  Invalid FieldOrProp value in NamedArg #702: 0x7e (CliBlobCustomAttrib)  
WARN  Invalid FieldOrProp value in NamedArg #703: 0xffffffff (CliBlobCustomAttrib)  
WARN  Invalid FieldOrProp value in NamedArg #704: 0xffffffff (CliBlobCustomAttrib)  
WARN  Invalid FieldOrProp value in NamedArg #705: 0xffffffff (CliBlobCustomAttrib)  
WARN  Invalid FieldOrProp value in NamedArg #706: 0x4 (CliBlobCustomAttrib)  
WARN  Invalid FieldOrProp value in NamedArg #707: 0x0 (CliBlobCustomAttrib)  
WARN  Invalid FieldOrProp value in NamedArg #708: 0x0 (CliBlobCustomAttrib)  
WARN  Invalid FieldOrProp value in NamedArg #709: 0xffffffff (CliBlobCustomAttrib)  
WARN  Invalid FieldOrProp value in NamedArg #710: 0x0 (CliBlobCustomAttrib)  
WARN  Invalid FieldOrProp value in NamedArg #711: 0xe (CliBlobCustomAttrib)  
WARN  Invalid FieldOrProp value in NamedArg #712: 0x7b (CliBlobCustomAttrib)  
WARN  Invalid FieldOrProp value in NamedArg #713: 0xffffffff (CliBlobCustomAttrib)  
WARN  Invalid FieldOrProp value in NamedArg #714: 0x0 (CliBlobCustomAttrib)  
WARN  Invalid FieldOrProp value in NamedArg #715: 0x1f (CliBlobCustomAttrib)  
WARN  Invalid FieldOrProp value in NamedArg #716: 0x7b (CliBlobCustomAttrib)  
WARN  Invalid FieldOrProp value in NamedArg #717: 0xffffffff (CliBlobCustomAttrib)  
WARN  Invalid FieldOrProp value in NamedArg #718: 0x4 (CliBlobCustomAttrib)  
WARN  Invalid FieldOrProp value in NamedArg #719: 0x7b (CliBlobCustomAttrib)  
WARN  Invalid FieldOrProp value in NamedArg #720: 0x2 (CliBlobCustomAttrib)  
WARN  Invalid FieldOrProp value in NamedArg #721: 0xffffffff (CliBlobCustomAttrib)  
WARN  Invalid FieldOrProp value in NamedArg #722: 0x1e (CliBlobCustomAttrib)  
WARN  Invalid FieldOrProp value in NamedArg #723: 0x7d (CliBlobCustomAttrib)  
WARN  Invalid FieldOrProp value in NamedArg #724: 0xa (CliBlobCustomAttrib)  
WARN  Invalid FieldOrProp value in NamedArg #725: 0xffffffff (CliBlobCustomAttrib)  
WARN  Invalid FieldOrProp value in NamedArg #726: 0x1f (CliBlobCustomAttrib)  
WARN  Invalid FieldOrProp value in NamedArg #727: 0x4 (CliBlobCustomAttrib)  
WARN  Invalid FieldOrProp value in NamedArg #728: 0x0 (CliBlobCustomAttrib)  
WARN  Invalid FieldOrProp value in NamedArg #729: 0xffffffff (CliBlobCustomAttrib)  
WARN  Invalid FieldOrProp value in NamedArg #730: 0x0 (CliBlobCustomAttrib)  
WARN  Invalid FieldOrProp value in NamedArg #731: 0x1 (CliBlobCustomAttrib)  
WARN  Invalid FieldOrProp value in NamedArg #732: 0xffffff94 (CliBlobCustomAttrib)  
WARN  Invalid FieldOrProp value in NamedArg #733: 0xffffffff (CliBlobCustomAttrib)  
WARN  Invalid FieldOrProp value in NamedArg #734: 0x15 (CliBlobCustomAttrib)  
WARN  Invalid FieldOrProp value in NamedArg #735: 0x7b (CliBlobCustomAttrib)  
WARN  Invalid FieldOrProp value in NamedArg #736: 0x2 (CliBlobCustomAttrib)  
WARN  Invalid FieldOrProp value in NamedArg #737: 0xffffffff (CliBlobCustomAttrib)  
WARN  Invalid FieldOrProp value in NamedArg #738: 0x0 (CliBlobCustomAttrib)  
WARN  Invalid FieldOrProp value in NamedArg #739: 0x1 (CliBlobCustomAttrib)  
WARN  Invalid FieldOrProp value in NamedArg #740: 0x1a (CliBlobCustomAttrib)  
WARN  Invalid FieldOrProp value in NamedArg #741: 0xffffffff (CliBlobCustomAttrib)  
WARN  Invalid FieldOrProp value in NamedArg #742: 0x44 (CliBlobCustomAttrib)  
WARN  Invalid FieldOrProp value in NamedArg #743: 0x7e (CliBlobCustomAttrib)  
WARN  Invalid FieldOrProp value in NamedArg #744: 0x0 (CliBlobCustomAttrib)  
WARN  Invalid FieldOrProp value in NamedArg #745: 0xffffffff (CliBlobCustomAttrib)  
WARN  Invalid FieldOrProp value in NamedArg #746: 0x30 (CliBlobCustomAttrib)  
WARN  Invalid FieldOrProp value in NamedArg #747: 0x13 (CliBlobCustomAttrib)  
WARN  Invalid FieldOrProp value in NamedArg #748: 0x0 (CliBlobCustomAttrib)  
WARN  Invalid FieldOrProp value in NamedArg #749: 0xffffffff (CliBlobCustomAttrib)  
WARN  Invalid FieldOrProp value in NamedArg #750: 0x59 (CliBlobCustomAttrib)  
WARN  Invalid FieldOrProp value in NamedArg #751: 0xffffffca (CliBlobCustomAttrib)  
WARN  Invalid FieldOrProp value in NamedArg #752: 0xffffffc6 (CliBlobCustomAttrib)  
WARN  Invalid FieldOrProp value in NamedArg #753: 0xffffffff (CliBlobCustomAttrib)  
WARN  Invalid FieldOrProp value in NamedArg #754: 0xffffffbe (CliBlobCustomAttrib)  
WARN  Invalid FieldOrProp value in NamedArg #755: 0xfffffff8 (CliBlobCustomAttrib)  
WARN  Invalid FieldOrProp value in NamedArg #756: 0x20 (CliBlobCustomAttrib)  
WARN  Invalid FieldOrProp value in NamedArg #757: 0xffffffff (CliBlobCustomAttrib)  
WARN  Invalid FieldOrProp value in NamedArg #758: 0x4 (CliBlobCustomAttrib)  
WARN  Invalid FieldOrProp value in NamedArg #759: 0x0 (CliBlobCustomAttrib)  
WARN  Invalid FieldOrProp value in NamedArg #760: 0x0 (CliBlobCustomAttrib)  
WARN  Invalid FieldOrProp value in NamedArg #761: 0xffffffff (CliBlobCustomAttrib)  
WARN  Invalid FieldOrProp value in NamedArg #762: 0x4 (CliBlobCustomAttrib)  
WARN  Invalid FieldOrProp value in NamedArg #763: 0x0 (CliBlobCustomAttrib)  
WARN  Invalid FieldOrProp value in NamedArg #764: 0x0 (CliBlobCustomAttrib)  
WARN  Invalid FieldOrProp value in NamedArg #765: 0xffffffff (CliBlobCustomAttrib)  
WARN  Invalid FieldOrProp value in NamedArg #767: 0x7e (CliBlobCustomAttrib)  
WARN  Invalid FieldOrProp value in NamedArg #768: 0xb (CliBlobCustomAttrib)  
WARN  Invalid FieldOrProp value in NamedArg #769: 0x2c (CliBlobCustomAttrib)  
WARN  Invalid FieldOrProp value in NamedArg #770: 0xffffffff (CliBlobCustomAttrib)  
WARN  Invalid FieldOrProp value in NamedArg #771: 0x4 (CliBlobCustomAttrib)  
WARN  Invalid FieldOrProp value in NamedArg #772: 0x3 (CliBlobCustomAttrib)  
WARN  Invalid FieldOrProp value in NamedArg #773: 0x4b (CliBlobCustomAttrib)  
WARN  Invalid FieldOrProp value in NamedArg #774: 0xffffffff (CliBlobCustomAttrib)  
WARN  Invalid FieldOrProp value in NamedArg #775: 0x72 (CliBlobCustomAttrib)  
WARN  Invalid FieldOrProp value in NamedArg #776: 0x7a (CliBlobCustomAttrib)  
WARN  Invalid FieldOrProp value in NamedArg #777: 0xa (CliBlobCustomAttrib)  
WARN  Invalid FieldOrProp value in NamedArg #778: 0xffffffff (CliBlobCustomAttrib)  
WARN  Invalid FieldOrProp value in NamedArg #779: 0x2c (CliBlobCustomAttrib)  
WARN  Invalid FieldOrProp value in NamedArg #780: 0x6 (CliBlobCustomAttrib)  
WARN  Invalid FieldOrProp value in NamedArg #781: 0x0 (CliBlobCustomAttrib)  
WARN  Invalid FieldOrProp value in NamedArg #782: 0xffffffff (CliBlobCustomAttrib)  
WARN  Invalid FieldOrProp value in NamedArg #783: 0x0 (CliBlobCustomAttrib)  
WARN  Invalid FieldOrProp value in NamedArg #784: 0x1 (CliBlobCustomAttrib)  
WARN  Invalid FieldOrProp value in NamedArg #785: 0xffffffff (CliBlobCustomAttrib)  
WARN  Invalid FieldOrProp value in NamedArg #786: 0xffffffff (CliBlobCustomAttrib)  
WARN  Invalid FieldOrProp value in NamedArg #787: 0x4 (CliBlobCustomAttrib)  
WARN  Invalid FieldOrProp value in NamedArg #788: 0x0 (CliBlobCustomAttrib)  
WARN  Invalid FieldOrProp value in NamedArg #789: 0x0 (CliBlobCustomAttrib)  
WARN  Invalid FieldOrProp value in NamedArg #790: 0xffffffff (CliBlobCustomAttrib)  
WARN  Invalid FieldOrProp value in NamedArg #791: 0xffffffd7 (CliBlobCustomAttrib)  
WARN  Invalid FieldOrProp value in NamedArg #792: 0x2d (CliBlobCustomAttrib)  
WARN  Invalid FieldOrProp value in NamedArg #793: 0x16 (CliBlobCustomAttrib)  
WARN  Invalid FieldOrProp value in NamedArg #794: 0xffffffff (CliBlobCustomAttrib)  
WARN  Invalid FieldOrProp value in NamedArg #795: 0x1 (CliBlobCustomAttrib)  
WARN  Invalid FieldOrProp value in NamedArg #796: 0x0 (CliBlobCustomAttrib)  
WARN  Invalid FieldOrProp value in NamedArg #797: 0x0 (CliBlobCustomAttrib)  
WARN  Invalid FieldOrProp value in NamedArg #798: 0xffffffff (CliBlobCustomAttrib)  
WARN  Invalid FieldOrProp value in NamedArg #799: 0x0 (CliBlobCustomAttrib)  
WARN  Invalid FieldOrProp value in NamedArg #800: 0xffffffe4 (CliBlobCustomAttrib)  
WARN  Invalid FieldOrProp value in NamedArg #801: 0x2b (CliBlobCustomAttrib)  
WARN  Invalid FieldOrProp value in NamedArg #802: 0xffffffff (CliBlobCustomAttrib)  
WARN  Invalid FieldOrProp value in NamedArg #803: 0xffffffff (CliBlobCustomAttrib)  
WARN  Invalid FieldOrProp value in NamedArg #804: 0xffffffff (CliBlobCustomAttrib)  
WARN  Invalid FieldOrProp value in NamedArg #805: 0xc (CliBlobCustomAttrib)  
WARN  Invalid FieldOrProp value in NamedArg #806: 0xffffffff (CliBlobCustomAttrib)  
WARN  Invalid FieldOrProp value in NamedArg #807: 0xffffffff (CliBlobCustomAttrib)  
WARN  Invalid FieldOrProp value in NamedArg #808: 0xffffffff (CliBlobCustomAttrib)  
WARN  Invalid FieldOrProp value in NamedArg #809: 0xffffffff (CliBlobCustomAttrib)  
WARN  Invalid FieldOrProp value in NamedArg #810: 0xffffffff (CliBlobCustomAttrib)  
WARN  Invalid FieldOrProp value in NamedArg #811: 0x0 (CliBlobCustomAttrib)  
WARN  Invalid FieldOrProp value in NamedArg #812: 0x0 (CliBlobCustomAttrib)  
WARN  Invalid FieldOrProp value in NamedArg #813: 0xffffffff (CliBlobCustomAttrib)  
WARN  Invalid FieldOrProp value in NamedArg #814: 0xffffffff (CliBlobCustomAttrib)  
WARN  Invalid FieldOrProp value in NamedArg #815: 0x7b (CliBlobCustomAttrib)  
WARN  Invalid FieldOrProp value in NamedArg #816: 0x6 (CliBlobCustomAttrib)  
WARN  Invalid FieldOrProp value in NamedArg #817: 0x2b (CliBlobCustomAttrib)  
WARN  Invalid FieldOrProp value in NamedArg #818: 0xffffffff (CliBlobCustomAttrib)  
WARN  Invalid FieldOrProp value in NamedArg #819: 0x0 (CliBlobCustomAttrib)  
WARN  Invalid FieldOrProp value in NamedArg #820: 0xffffff94 (CliBlobCustomAttrib)  
WARN  Invalid FieldOrProp value in NamedArg #821: 0x38 (CliBlobCustomAttrib)  
WARN  Invalid FieldOrProp value in NamedArg #822: 0xffffffff (CliBlobCustomAttrib)  
WARN  Invalid FieldOrProp value in NamedArg #823: 0x6 (CliBlobCustomAttrib)  
ERROR Failed to markup CustomAttribute: Unable to read past EOF: 35665, 1060380423 (CliStreamMetadata)  
INFO  Removing 6 unused filesystems from cache (FileSystemInstanceManager)  
INFO  Additional info:
Loading file:///home/analyst/ir-alalysis/samples/malware/955716cc4f74fea981ce80646e65d85d6222a131e9d9d4bf2ba5775650e867ec.exe?MD5=7592703d5de4dfe1db3b95d6c2f63b59...
[955716cc4f74fea981ce80646e65d85d6222a131e9d9d4bf2ba5775650e867ec.exe]: failed to create TerminatedCString at 00489270: Failed to resolve data length for TerminatedCString
------------------------------------------------

Searching 9 paths for library MSCOREE.DLL...
Library not found.
------------------------------------------------

Linking the External Programs of '955716cc4f74fea981ce80646e65d85d6222a131e9d9d4bf2ba5775650e867ec.exe' to imported libraries...
  [MSCOREE.DLL] -> not found in project
------------------------------------------------

 (AutoImporter)  
INFO  IMPORTING: Loaded 0 additional files (HeadlessAnalyzer)  
INFO  ANALYZING all memory and code: file:///home/analyst/ir-alalysis/samples/malware/955716cc4f74fea981ce80646e65d85d6222a131e9d9d4bf2ba5775650e867ec.exe (HeadlessAnalyzer)  
ERROR REPORT: Analysis timed out at 0 seconds. Processing not completed for file: file:///home/analyst/ir-alalysis/samples/malware/955716cc4f74fea981ce80646e65d85d6222a131e9d9d4bf2ba5775650e867ec.exe (HeadlessAnalyzer)  
INFO  SCRIPT: /home/analyst/ir-alalysis/scripts/get_cfg_stats.py (HeadlessAnalyzer)  
GHIDRA_STATS:Functions=83
GHIDRA_STATS:BasicBlocks=0
GHIDRA_STATS:TotalPcodeOps=0
INFO  ANALYZING changes made by post scripts: file:///home/analyst/ir-alalysis/samples/malware/955716cc4f74fea981ce80646e65d85d6222a131e9d9d4bf2ba5775650e867ec.exe (HeadlessAnalyzer)  
INFO  REPORT: Post-analysis succeeded for file: file:///home/analyst/ir-alalysis/samples/malware/955716cc4f74fea981ce80646e65d85d6222a131e9d9d4bf2ba5775650e867ec.exe (HeadlessAnalyzer)  
INFO  REPORT: Save succeeded for: /955716cc4f74fea981ce80646e65d85d6222a131e9d9d4bf2ba5775650e867ec.exe (ghidra_analysis_955716cc4f74fea981ce80646e65d85d6222a131e9d9d4bf2ba5775650e867ec.exe_20251025_202848:/955716cc4f74fea981ce80646e65d85d6222a131e9d9d4bf2ba5775650e867ec.exe) (HeadlessAnalyzer)  
INFO  REPORT: Import succeeded (HeadlessAnalyzer)  
==========================================
Ghidra analysis completed successfully
==========================================

Ghidra CFG Stats:
GHIDRA_STATS:Functions=83
GHIDRA_STATS:BasicBlocks=0
GHIDRA_STATS:TotalPcodeOps=0

Ghidra Performance:
	Elapsed (wall clock) time (h:mm:ss or m:ss): 0:27.04
	Maximum resident set size (kbytes): 695112

--- angr VEX IR Analysis ---

angr analysis: SUCCESS
==================================================
angr VEX IR Analysis
==================================================
Binary: /home/analyst/ir-alalysis/samples/malware/955716cc4f74fea981ce80646e65d85d6222a131e9d9d4bf2ba5775650e867ec.exe
==================================================
Loading binary with angr...
Architecture: X86
Entry point: 0x486ad6
Binary base address: 0x400000

Generating CFG with angr...
Functions discovered: 2
Basic blocks (CFG nodes): 2
CFG edges: 1

Counting VEX IR statements...
Total VEX statements: 2

--- angr CFG & IR Stats ---
ANGR_STATS:Functions=2
ANGR_STATS:Nodes=2
ANGR_STATS:Edges=1
ANGR_STATS:TotalVexStatements=2
---------------------------

Sample functions (first 10):
  - _start @ 0x486ad6
  - _CorExeMain @ 0x500000
==================================================
angr analysis completed successfully
==================================================

angr CFG Stats:
ANGR_STATS:Functions=2
ANGR_STATS:Nodes=2
ANGR_STATS:Edges=1
ANGR_STATS:TotalVexStatements=2

angr Performance:
	Elapsed (wall clock) time (h:mm:ss or m:ss): 0:03.25
	Maximum resident set size (kbytes): 132144

--- LLVM IR Analysis ---

==========================================
LLVM IR Analysis
==========================================
Binary:  /home/analyst/ir-alalysis/samples/malware/955716cc4f74fea981ce80646e65d85d6222a131e9d9d4bf2ba5775650e867ec.exe
==========================================

Detected native binary (not LLVM bitcode)
Performing LLVM-based binary analysis...

--- Binary Information ---

/home/analyst/ir-alalysis/samples/malware/955716cc4f74fea981ce80646e65d85d6222a131e9d9d4bf2ba5775650e867ec.exe:	file format coff-i386

Sections:
Idx Name          Size     VMA      Type
  0 .text         00084adc 00402000 TEXT
  1 .rsrc         0000145c 00488000 DATA
  2 .reloc        0000000c 0048a000 DATA

--- Disassembly (first 100 instructions) ---

/home/analyst/ir-alalysis/samples/malware/955716cc4f74fea981ce80646e65d85d6222a131e9d9d4bf2ba5775650e867ec.exe:	file format coff-i386

Disassembly of section .text:

00402000 <.text>:
  402000: b5 6a                        	movb	$106, %ch
  402002: 08 00                        	orb	%al, (%eax)
  402004: 00 00                        	addb	%al, (%eax)
  402006: 00 00                        	addb	%al, (%eax)
  402008: 48                           	decl	%eax
  402009: 00 00                        	addb	%al, (%eax)
  40200b: 00 02                        	addb	%al, (%edx)
  40200d: 00 05 00 68 5f 00            	addb	%al, 6252544
  402013: 00 58 43                     	addb	%bl, 67(%eax)
  402016: 00 00                        	addb	%al, (%eax)
  402018: 03 00                        	addl	(%eax), %eax
  40201a: 00 00                        	addb	%al, (%eax)
  40201c: 4b                           	decl	%ebx
  40201d: 00 00                        	addb	%al, (%eax)
  40201f: 06                           	pushl	%es
  402020: c0 a2 00 00 e8 aa 07         	shlb	$7, -1427636224(%edx)
		...
  40204f: 00 9e 02 28 14 00            	addb	%bl, 1320962(%esi)
  402055: 00 0a                        	addb	%cl, (%edx)
  402057: 00 00                        	addb	%al, (%eax)
  402059: 02 73 15                     	addb	21(%ebx), %dh
  40205c: 00 00                        	addb	%al, (%eax)
  40205e: 0a 7d 01                     	orb	1(%ebp), %bh
  402061: 00 00                        	addb	%al, (%eax)
  402063: 04 02                        	addb	$2, %al
  402065: 73 16                        	jae	0x40207d <.text+0x7d>
  402067: 00 00                        	addb	%al, (%eax)
  402069: 0a 7d 02                     	orb	2(%ebp), %bh
  40206c: 00 00                        	addb	%al, (%eax)
  40206e: 04 02                        	addb	$2, %al
  402070: 1f                           	popl	%ds
  402071: 0a 7d 03                     	orb	3(%ebp), %bh
  402074: 00 00                        	addb	%al, (%eax)
  402076: 04 2a                        	addb	$42, %al
  402078: 13 30                        	adcl	(%eax), %esi
  40207a: 01 00                        	addl	%eax, (%eax)
  40207c: 0c 00                        	orb	$0, %al
  40207e: 00 00                        	addb	%al, (%eax)
  402080: 01 00                        	addl	%eax, (%eax)
  402082: 00 11                        	addb	%dl, (%ecx)
  402084: 00 02                        	addb	%al, (%edx)
  402086: 7b 03                        	jnp	0x40208b <.text+0x8b>
  402088: 00 00                        	addb	%al, (%eax)
  40208a: 04 0a                        	addb	$10, %al
  40208c: 2b 00                        	subl	(%eax), %eax
  40208e: 06                           	pushl	%es
  40208f: 2a 13                        	subb	(%ebx), %dl
  402091: 30 02                        	xorb	%al, (%edx)
  402093: 00 25 00 00 00 02            	addb	%ah, 33554432
  402099: 00 00                        	addb	%al, (%eax)
  40209b: 11 00                        	adcl	%eax, (%eax)
  40209d: 03 16                        	addl	(%esi), %edx
  40209f: 31 0a                        	xorl	%ecx, (%edx)
  4020a1: 03 1f                        	addl	(%edi), %ebx
  4020a3: 2e fe 02                     	incb	%cs:(%edx)
  4020a6: 16                           	pushl	%ss
  4020a7: fe 01                        	incb	(%ecx)
  4020a9: 2b 01                        	subl	(%ecx), %eax
  4020ab: 16                           	pushl	%ss
  4020ac: 0a 06                        	orb	(%esi), %al
  4020ae: 2c 10                        	subb	$16, %al
  4020b0: 00 02                        	addb	%al, (%edx)
  4020b2: 03 7d 03                     	addl	3(%ebp), %edi
  4020b5: 00 00                        	addb	%al, (%eax)
  4020b7: 04 02                        	addb	$2, %al
  4020b9: 28 06                        	subb	%al, (%esi)
  4020bb: 00 00                        	addb	%al, (%eax)
  4020bd: 06                           	pushl	%es
  4020be: 00 00                        	addb	%al, (%eax)
  4020c0: 2a 00                        	subb	(%eax), %al
  4020c2: 00 00                        	addb	%al, (%eax)
  4020c4: 13 30                        	adcl	(%eax), %esi
  4020c6: 01 00                        	addl	%eax, (%eax)
  4020c8: 0c 00                        	orb	$0, %al
  4020ca: 00 00                        	addb	%al, (%eax)
  4020cc: 03 00                        	addl	(%eax), %eax
  4020ce: 00 11                        	addb	%dl, (%ecx)
  4020d0: 00 02                        	addb	%al, (%edx)
  4020d2: 7b 01                        	jnp	0x4020d5 <.text+0xd5>
  4020d4: 00 00                        	addb	%al, (%eax)
  4020d6: 04 0a                        	addb	$10, %al
  4020d8: 2b 00                        	subl	(%eax), %eax
  4020da: 06                           	pushl	%es
  4020db: 2a 13                        	subb	(%ebx), %dl
  4020dd: 30 01                        	xorb	%al, (%ecx)
  4020df: 00 0c 00                     	addb	%cl, (%eax,%eax)
  4020e2: 00 00                        	addb	%al, (%eax)
  4020e4: 04 00                        	addb	$0, %al
  4020e6: 00 11                        	addb	%dl, (%ecx)
  4020e8: 00 02                        	addb	%al, (%edx)
  4020ea: 7b 02                        	jnp	0x4020ee <.text+0xee>
  4020ec: 00 00                        	addb	%al, (%eax)
  4020ee: 04 0a                        	addb	$10, %al
  4020f0: 2b 00                        	subl	(%eax), %eax
  4020f2: 06                           	pushl	%es
  4020f3: 2a 13                        	subb	(%ebx), %dl
  4020f5: 30 04 00                     	xorb	%al, (%eax,%eax)
  4020f8: 9f                           	lahf
  4020f9: 00 00                        	addb	%al, (%eax)
  4020fb: 00 05 00 00 11 00            	addb	%al, 1114112
  402101: 02 7b 01                     	addb	1(%ebx), %bh
  402104: 00 00                        	addb	%al, (%eax)
  402106: 04 6f                        	addb	$111, %al
  402108: 17                           	popl	%ss
  402109: 00 00                        	addb	%al, (%eax)
  40210b: 0a 00                        	orb	(%eax), %al
  40210d: 02 7b 02                     	addb	2(%ebx), %bh
  402110: 00 00                        	addb	%al, (%eax)
  402112: 04 6f                        	addb	$111, %al
  402114: 18 00                        	sbbb	%al, (%eax)
  402116: 00 0a                        	addb	%cl, (%edx)
  402118: 00 02                        	addb	%al, (%edx)
  40211a: 7b 03                        	jnp	0x40211f <.text+0x11f>
  40211c: 00 00                        	addb	%al, (%eax)
  40211e: 04 17                        	addb	$23, %al
  402120: fe 04 0a                     	incb	(%edx,%ecx)
  402123: 06                           	pushl	%es
  402124: 2c 02                        	subb	$2, %al
  402126: 2b 76 02                     	subl	2(%esi), %esi
  402129: 7b 01                        	jnp	0x40212c <.text+0x12c>
  40212b: 00 00                        	addb	%al, (%eax)
  40212d: 04 17                        	addb	$23, %al
  40212f: 6a 6f                        	pushl	$111
  402131: 19 00                        	sbbl	%eax, (%eax)
  402133: 00 0a                        	addb	%cl, (%edx)
  402135: 00 02                        	addb	%al, (%edx)
  402137: 7b 03                        	jnp	0x40213c <.text+0x13c>
  402139: 00 00                        	addb	%al, (%eax)
  40213b: 04 17                        	addb	$23, %al
  40213d: fe 02                        	incb	(%edx)
  40213f: 0b 07                        	orl	(%edi), %eax
  402141: 2c 10                        	subb	$16, %al
  402143: 00 02                        	addb	%al, (%edx)
  402145: 7b 01                        	jnp	0x402148 <.text+0x148>
  402147: 00 00                        	addb	%al, (%eax)
  402149: 04 17                        	addb	$23, %al
  40214b: 6a 6f                        	pushl	$111
  40214d: 19 00                        	sbbl	%eax, (%eax)
  40214f: 00 0a                        	addb	%cl, (%edx)
  402151: 00 00                        	addb	%al, (%eax)
  402153: 18 0c 2b                     	sbbb	%cl, (%ebx,%ebp)
  402156: 31 00                        	xorl	%eax, (%eax)
  402158: 02 7b 01                     	addb	1(%ebx), %bh
  40215b: 00 00                        	addb	%al, (%eax)

--- Symbol Table (first 50 entries) ---

/home/analyst/ir-alalysis/samples/malware/955716cc4f74fea981ce80646e65d85d6222a131e9d9d4bf2ba5775650e867ec.exe:	file format coff-i386

SYMBOL TABLE:

NOTE: For true binary-to-LLVM IR lifting, consider using:
  - mcsema: https://github.com/lifting-bits/mcsema
  - remill: https://github.com/lifting-bits/remill
  - rellic: https://github.com/lifting-bits/rellic

==========================================
LLVM analysis completed successfully
==========================================
LLVM analysis: SUCCESS
	Command being timed: "/home/analyst/ir-alalysis/scripts/analyze_llvm.sh /home/analyst/ir-alalysis/samples/malware/955716cc4f74fea981ce80646e65d85d6222a131e9d9d4bf2ba5775650e867ec.exe"
	User time (seconds): 0.04
	System time (seconds): 0.10
	Percent of CPU this job got: 87%
	Elapsed (wall clock) time (h:mm:ss or m:ss): 0:00.17
	Average shared text size (kbytes): 0
	Average unshared data size (kbytes): 0
	Average stack size (kbytes): 0
	Average total size (kbytes): 0
	Maximum resident set size (kbytes): 51584
	Average resident set size (kbytes): 0
	Major (requiring I/O) page faults: 0
	Minor (reclaiming a frame) page faults: 10276
	Voluntary context switches: 19
	Involuntary context switches: 78
	Swaps: 0
	File system inputs: 0
	File system outputs: 16
	Socket messages sent: 0
	Socket messages received: 0
	Signals delivered: 0
	Page size (bytes): 4096
	Exit status: 0

Completed: 955716cc4f74fea981ce80646e65d85d6222a131e9d9d4bf2ba5775650e867ec.exe

========================================
Processing sample 33: 972eaa3723683be75937df1f64d95d88ebb7417d093d61663984431f5825b42c.elf
========================================

--- Ghidra P-code Analysis ---

Ghidra analysis: SUCCESS
==========================================
Ghidra Headless Analysis
==========================================
Binary:  /home/analyst/ir-alalysis/samples/malware/972eaa3723683be75937df1f64d95d88ebb7417d093d61663984431f5825b42c.elf
Project: ghidra_analysis_972eaa3723683be75937df1f64d95d88ebb7417d093d61663984431f5825b42c.elf_20251025_202918
Location: ./ghidra_projects
==========================================
INFO  Using log config file: jar:file:/home/analyst/ghidra/Ghidra/Framework/Generic/lib/Generic.jar!/generic.log4j.xml (LoggingInitialization)  
INFO  Using log file: /home/analyst/.config/ghidra/ghidra_11.4.2_PUBLIC/application.log (LoggingInitialization)  
INFO  Loading user preferences: /home/analyst/.config/ghidra/ghidra_11.4.2_PUBLIC/preferences (Preferences)  
INFO  Searching for classes... (ClassSearcher)  
INFO  Class search complete (1760 ms) (ClassSearcher)  
INFO  Initializing SSL Context (SSLContextInitializer)  
INFO  Initializing Random Number Generator... (SecureRandomFactory)  
INFO  Random Number Generator initialization complete: NativePRNGNonBlocking (SecureRandomFactory)  
INFO  Trust manager disabled, cacerts have not been set (ApplicationTrustManagerFactory)  
INFO  Headless startup complete (6677 ms) (AnalyzeHeadless)  
INFO  Class searcher loaded 58 extension points (18 false positives) (ClassSearcher)  
INFO  HEADLESS Script Paths:
    /home/analyst/ghidra/Ghidra/Features/GnuDemangler/ghidra_scripts
    /home/analyst/ghidra/Ghidra/Features/BytePatterns/ghidra_scripts
    /home/analyst/ghidra/Ghidra/Features/SystemEmulation/ghidra_scripts
    /home/analyst/ghidra/Ghidra/Processors/DATA/ghidra_scripts
    /home/analyst/ghidra/Ghidra/Features/PyGhidra/ghidra_scripts
    /home/analyst/ghidra/Ghidra/Features/MicrosoftCodeAnalyzer/ghidra_scripts
    /home/analyst/ghidra/Ghidra/Features/Base/ghidra_scripts
    /home/analyst/ghidra/Ghidra/Features/Jython/ghidra_scripts
    /home/analyst/ghidra/Ghidra/Features/VersionTracking/ghidra_scripts
    /home/analyst/ghidra/Ghidra/Features/PDB/ghidra_scripts
    /home/analyst/ghidra/Ghidra/Processors/Atmel/ghidra_scripts
    /home/analyst/ghidra/Ghidra/Debug/Debugger-rmi-trace/ghidra_scripts
    /home/analyst/ghidra/Ghidra/Features/FileFormats/ghidra_scripts
    /home/analyst/ghidra/Ghidra/Processors/JVM/ghidra_scripts
    /home/analyst/ghidra/Ghidra/Debug/Debugger/ghidra_scripts
    /home/analyst/ghidra/Ghidra/Processors/PIC/ghidra_scripts
    /home/analyst/ghidra/Ghidra/Features/WildcardAssembler/ghidra_scripts
    /home/analyst/ghidra/Ghidra/Processors/8051/ghidra_scripts
    /home/analyst/ghidra/Ghidra/Features/Decompiler/ghidra_scripts
    /home/analyst/ghidra/Ghidra/Features/DecompilerDependent/ghidra_scripts
    /home/analyst/ghidra/Ghidra/Features/FunctionID/ghidra_scripts
    /home/analyst/ghidra/Ghidra/Features/SwiftDemangler/ghidra_scripts
    /home/analyst/ghidra/Ghidra/Features/BSim/ghidra_scripts (HeadlessAnalyzer)  
INFO  HEADLESS: execution starts (HeadlessAnalyzer)  
INFO  Creating temporary project: /home/analyst/ir-alalysis/./ghidra_projects/ghidra_analysis_972eaa3723683be75937df1f64d95d88ebb7417d093d61663984431f5825b42c.elf_20251025_202918 (HeadlessAnalyzer)  
INFO  Creating project: /home/analyst/ir-alalysis/./ghidra_projects/ghidra_analysis_972eaa3723683be75937df1f64d95d88ebb7417d093d61663984431f5825b42c.elf_20251025_202918 (DefaultProject)  
INFO  REPORT: Processing input files:  (HeadlessAnalyzer)  
INFO       project: /home/analyst/ir-alalysis/./ghidra_projects/ghidra_analysis_972eaa3723683be75937df1f64d95d88ebb7417d093d61663984431f5825b42c.elf_20251025_202918 (HeadlessAnalyzer)  
INFO  IMPORTING: file:///home/analyst/ir-alalysis/samples/malware/972eaa3723683be75937df1f64d95d88ebb7417d093d61663984431f5825b42c.elf (HeadlessAnalyzer)  
INFO  Using Loader: Executable and Linking Format (ELF) (AutoImporter)  
INFO  Using Language/Compiler: MIPS:LE:32:default:default (AutoImporter)  
INFO  Using Library Search Path: [., /bin, /lib, /lib64, /lib/x86_64-linux-gnu, /lib/aarch64-linux-gnu, /usr/bin, /usr/lib, /usr/X11R6/bin, /usr/X11R6/lib, /usr/java/packages/lib, /usr/lib/x86_64-linux-gnu/jni, /usr/lib/x86_64-linux-gnu, /usr/lib/jni] (AutoImporter)  
INFO  Additional info:
Loading file:///home/analyst/ir-alalysis/samples/malware/972eaa3723683be75937df1f64d95d88ebb7417d093d61663984431f5825b42c.elf?MD5=9e3e16ef0323fe9c42af07333f59c25a...
Skipping section [.mdebug.abi32] with invalid size 0x0
------------------------------------------------

 (AutoImporter)  
INFO  IMPORTING: Loaded 0 additional files (HeadlessAnalyzer)  
INFO  ANALYZING all memory and code: file:///home/analyst/ir-alalysis/samples/malware/972eaa3723683be75937df1f64d95d88ebb7417d093d61663984431f5825b42c.elf (HeadlessAnalyzer)  
ERROR REPORT: Analysis timed out at 0 seconds. Processing not completed for file: file:///home/analyst/ir-alalysis/samples/malware/972eaa3723683be75937df1f64d95d88ebb7417d093d61663984431f5825b42c.elf (HeadlessAnalyzer)  
INFO  SCRIPT: /home/analyst/ir-alalysis/scripts/get_cfg_stats.py (HeadlessAnalyzer)  
GHIDRA_STATS:Functions=1
GHIDRA_STATS:BasicBlocks=0
GHIDRA_STATS:TotalPcodeOps=0
INFO  ANALYZING changes made by post scripts: file:///home/analyst/ir-alalysis/samples/malware/972eaa3723683be75937df1f64d95d88ebb7417d093d61663984431f5825b42c.elf (HeadlessAnalyzer)  
INFO  REPORT: Post-analysis succeeded for file: file:///home/analyst/ir-alalysis/samples/malware/972eaa3723683be75937df1f64d95d88ebb7417d093d61663984431f5825b42c.elf (HeadlessAnalyzer)  
INFO  REPORT: Save succeeded for: /972eaa3723683be75937df1f64d95d88ebb7417d093d61663984431f5825b42c.elf (ghidra_analysis_972eaa3723683be75937df1f64d95d88ebb7417d093d61663984431f5825b42c.elf_20251025_202918:/972eaa3723683be75937df1f64d95d88ebb7417d093d61663984431f5825b42c.elf) (HeadlessAnalyzer)  
INFO  REPORT: Import succeeded (HeadlessAnalyzer)  
==========================================
Ghidra analysis completed successfully
==========================================

Ghidra CFG Stats:
GHIDRA_STATS:Functions=1
GHIDRA_STATS:BasicBlocks=0
GHIDRA_STATS:TotalPcodeOps=0

Ghidra Performance:
	Elapsed (wall clock) time (h:mm:ss or m:ss): 0:27.29
	Maximum resident set size (kbytes): 640612

--- angr VEX IR Analysis ---

angr analysis: SUCCESS
==================================================
angr VEX IR Analysis
==================================================
Binary: /home/analyst/ir-alalysis/samples/malware/972eaa3723683be75937df1f64d95d88ebb7417d093d61663984431f5825b42c.elf
==================================================
Loading binary with angr...
Architecture: MIPS32
Entry point: 0x400260
Binary base address: 0x400000

Generating CFG with angr...
Functions discovered: 309
Basic blocks (CFG nodes): 4824
CFG edges: 9762

Counting VEX IR statements...
Total VEX statements: 98438

--- angr CFG & IR Stats ---
ANGR_STATS:Functions=309
ANGR_STATS:Nodes=4824
ANGR_STATS:Edges=9762
ANGR_STATS:TotalVexStatements=98438
---------------------------

Sample functions (first 10):
  - sub_400094 @ 0x400094
  - sub_4000b8 @ 0x4000b8
  - sub_4000e8 @ 0x4000e8
  - sub_400120 @ 0x400120
  - sub_4001dc @ 0x4001dc
  - _start @ 0x400260
  - sub_40026c @ 0x40026c
  - sub_4002d0 @ 0x4002d0
  - sub_400318 @ 0x400318
  - sub_4003c0 @ 0x4003c0
==================================================
angr analysis completed successfully
==================================================

angr CFG Stats:
ANGR_STATS:Functions=309
ANGR_STATS:Nodes=4824
ANGR_STATS:Edges=9762
ANGR_STATS:TotalVexStatements=98438

angr Performance:
	Elapsed (wall clock) time (h:mm:ss or m:ss): 0:13.46
	Maximum resident set size (kbytes): 199124

--- LLVM IR Analysis ---

==========================================
LLVM IR Analysis
==========================================
Binary:  /home/analyst/ir-alalysis/samples/malware/972eaa3723683be75937df1f64d95d88ebb7417d093d61663984431f5825b42c.elf
==========================================

Detected native binary (not LLVM bitcode)
Performing LLVM-based binary analysis...

--- Binary Information ---

/home/analyst/ir-alalysis/samples/malware/972eaa3723683be75937df1f64d95d88ebb7417d093d61663984431f5825b42c.elf:	file format elf32-mips

Sections:
Idx Name          Size     VMA      Type
  0               00000000 00000000 
  1 .init         0000008c 00400094 TEXT
  2 .text         00017ba0 00400120 TEXT
  3 .fini         0000005c 00417cc0 TEXT
  4 .rodata       00001e54 00417d20 DATA
  5 .ctors        00000008 0045a000 DATA
  6 .dtors        00000008 0045a008 DATA
  7 .data.rel.ro  00000030 0045a014 DATA
  8 .data         000003f0 0045a050 DATA
  9 .got          00000570 0045a440 DATA
 10 .sbss         00000024 0045a9b0 BSS
 11 .bss          00002288 0045a9e0 BSS
 12 .mdebug.abi32 00000000 00000c96 
 13 .shstrtab     00000064 00000000 

--- Disassembly (first 100 instructions) ---

/home/analyst/ir-alalysis/samples/malware/972eaa3723683be75937df1f64d95d88ebb7417d093d61663984431f5825b42c.elf:	file format elf32-mips

Disassembly of section .init:

00400094 <.init>:
  400094: 06 00 1c 3c  	lui	$gp, 6
  400098: 9c 23 9c 27  	addiu	$gp, $gp, 9116
  40009c: 21 e0 99 03  	addu	$gp, $gp, $25
  4000a0: e0 ff bd 27  	addiu	$sp, $sp, -32
  4000a4: 10 00 bc af  	sw	$gp, 16($sp)
  4000a8: 1c 00 bf af  	sw	$ra, 28($sp)
  4000ac: 18 00 bc af  	sw	$gp, 24($sp)
  4000b0: 01 00 11 04  	bal	8 <.init+0x24>
  4000b4: 00 00 00 00  	nop
  4000b8: 06 00 1c 3c  	lui	$gp, 6
  4000bc: 78 23 9c 27  	addiu	$gp, $gp, 9080
  4000c0: 21 e0 9f 03  	addu	$gp, $gp, $ra
  4000c4: 20 80 99 8f  	lw	$25, -32736($gp)
  4000c8: 00 00 00 00  	nop
  4000cc: dc 01 39 27  	addiu	$25, $25, 476
  4000d0: 09 f8 20 03  	jalr	$25
  4000d4: 00 00 00 00  	nop
  4000d8: 10 00 bc 8f  	lw	$gp, 16($sp)
  4000dc: 00 00 00 00  	nop
  4000e0: 01 00 11 04  	bal	8 <.init+0x54>
  4000e4: 00 00 00 00  	nop
  4000e8: 06 00 1c 3c  	lui	$gp, 6
  4000ec: 48 23 9c 27  	addiu	$gp, $gp, 9032
  4000f0: 21 e0 9f 03  	addu	$gp, $gp, $ra
  4000f4: 24 80 99 8f  	lw	$25, -32732($gp)
  4000f8: 00 00 00 00  	nop
  4000fc: 50 7c 39 27  	addiu	$25, $25, 31824
  400100: 09 f8 20 03  	jalr	$25
  400104: 00 00 00 00  	nop
  400108: 10 00 bc 8f  	lw	$gp, 16($sp)
  40010c: 00 00 00 00  	nop
  400110: 1c 00 bf 8f  	lw	$ra, 28($sp)
  400114: 00 00 00 00  	nop
  400118: 08 00 e0 03  	jr	$ra
  40011c: 20 00 bd 27  	addiu	$sp, $sp, 32

Disassembly of section .text:

00400120 <.text>:
  400120: 06 00 1c 3c  	lui	$gp, 6
  400124: 10 23 9c 27  	addiu	$gp, $gp, 8976
  400128: 21 e0 99 03  	addu	$gp, $gp, $25
  40012c: d8 ff bd 27  	addiu	$sp, $sp, -40
  400130: 20 00 bf af  	sw	$ra, 32($sp)
  400134: 1c 00 b1 af  	sw	$17, 28($sp)
  400138: 18 00 b0 af  	sw	$16, 24($sp)
  40013c: 10 00 bc af  	sw	$gp, 16($sp)
  400140: 18 80 91 8f  	lw	$17, -32744($gp)
  400144: 00 00 00 00  	nop
  400148: e0 a9 22 92  	lbu	$2, -22048($17)
  40014c: 00 00 00 00  	nop
  400150: 1d 00 40 14  	bnez	$2, 120 <.text+0xa8>
  400154: 00 00 00 00  	nop
  400158: 18 80 90 8f  	lw	$16, -32744($gp)
  40015c: 00 00 00 00  	nop
  400160: 50 a0 02 8e  	lw	$2, -24496($16)
  400164: 00 00 00 00  	nop
  400168: 00 00 59 8c  	lw	$25, 0($2)
  40016c: 00 00 00 00  	nop
  400170: 09 00 20 13  	beqz	$25, 40 <.text+0x78>
  400174: 04 00 42 24  	addiu	$2, $2, 4
  400178: 09 f8 20 03  	jalr	$25
  40017c: 50 a0 02 ae  	sw	$2, -24496($16)
  400180: 50 a0 02 8e  	lw	$2, -24496($16)
  400184: 10 00 bc 8f  	lw	$gp, 16($sp)
  400188: 00 00 59 8c  	lw	$25, 0($2)
  40018c: 00 00 00 00  	nop
  400190: f9 ff 20 17  	bnez	$25, -24 <.text+0x58>
  400194: 04 00 42 24  	addiu	$2, $2, 4
  400198: a0 83 82 8f  	lw	$2, -31840($gp)
  40019c: 00 00 00 00  	nop
  4001a0: 08 00 40 10  	beqz	$2, 36 <.text+0xa4>
  4001a4: 01 00 02 24  	addiu	$2, $zero, 1
  4001a8: 1c 80 84 8f  	lw	$4, -32740($gp)
  4001ac: a0 83 99 8f  	lw	$25, -31840($gp)
  4001b0: 00 00 00 00  	nop
  4001b4: 09 f8 20 03  	jalr	$25
  4001b8: 74 9b 84 24  	addiu	$4, $4, -25740
  4001bc: 10 00 bc 8f  	lw	$gp, 16($sp)
  4001c0: 01 00 02 24  	addiu	$2, $zero, 1
  4001c4: e0 a9 22 a2  	sb	$2, -22048($17)
  4001c8: 20 00 bf 8f  	lw	$ra, 32($sp)
  4001cc: 1c 00 b1 8f  	lw	$17, 28($sp)
  4001d0: 18 00 b0 8f  	lw	$16, 24($sp)
  4001d4: 08 00 e0 03  	jr	$ra
  4001d8: 28 00 bd 27  	addiu	$sp, $sp, 40
  4001dc: 06 00 1c 3c  	lui	$gp, 6
  4001e0: 54 22 9c 27  	addiu	$gp, $gp, 8788
  4001e4: 21 e0 99 03  	addu	$gp, $gp, $25
  4001e8: e0 ff bd 27  	addiu	$sp, $sp, -32
  4001ec: 18 00 bf af  	sw	$ra, 24($sp)
  4001f0: 10 00 bc af  	sw	$gp, 16($sp)
  4001f4: 1c 80 84 8f  	lw	$4, -32740($gp)
  4001f8: 18 80 85 8f  	lw	$5, -32744($gp)
  4001fc: 3c 81 82 8f  	lw	$2, -32452($gp)
  400200: 3c 81 99 8f  	lw	$25, -32452($gp)
  400204: 74 9b 84 24  	addiu	$4, $4, -25740
  400208: 05 00 40 10  	beqz	$2, 24 <.text+0x100>
  40020c: e4 a9 a5 24  	addiu	$5, $5, -22044
  400210: 09 f8 20 03  	jalr	$25
  400214: 00 00 00 00  	nop
  400218: 10 00 bc 8f  	lw	$gp, 16($sp)
  40021c: 00 00 00 00  	nop
  400220: 18 80 84 8f  	lw	$4, -32744($gp)
  400224: 4c 81 99 8f  	lw	$25, -32436($gp)
  400228: 10 a0 82 8c  	lw	$2, -24560($4)
  40022c: 00 00 00 00  	nop
  400230: 06 00 40 10  	beqz	$2, 28 <.text+0x12c>
  400234: 10 a0 84 24  	addiu	$4, $4, -24560
  400238: 04 00 20 13  	beqz	$25, 20 <.text+0x12c>
  40023c: 00 00 00 00  	nop
  400240: 18 00 bf 8f  	lw	$ra, 24($sp)
  400244: 08 00 20 03  	jr	$25
  400248: 20 00 bd 27  	addiu	$sp, $sp, 32
  40024c: 18 00 bf 8f  	lw	$ra, 24($sp)
  400250: 00 00 00 00  	nop
  400254: 08 00 e0 03  	jr	$ra
  400258: 20 00 bd 27  	addiu	$sp, $sp, 32
  40025c: 00 00 00 00  	nop
  400260: 21 00 e0 03  	move	$zero, $ra
  400264: 01 00 11 04  	bal	8 <.text+0x14c>
  400268: 00 00 00 00  	nop
  40026c: 06 00 1c 3c  	lui	$gp, 6
  400270: c4 21 9c 27  	addiu	$gp, $gp, 8644
  400274: 21 e0 9f 03  	addu	$gp, $gp, $ra
  400278: 21 f8 00 00  	move	$ra, $zero
  40027c: bc 82 84 8f  	lw	$4, -32068($gp)
  400280: 00 00 a5 8f  	lw	$5, 0($sp)
  400284: 04 00 a6 27  	addiu	$6, $sp, 4
  400288: f8 ff 01 24  	addiu	$1, $zero, -8
  40028c: 24 e8 a1 03  	and	$sp, $sp, $1
  400290: e0 ff bd 27  	addiu	$sp, $sp, -32
  400294: 0c 84 87 8f  	lw	$7, -31732($gp)
  400298: 6c 82 88 8f  	lw	$8, -32148($gp)
  40029c: 00 00 00 00  	nop
  4002a0: 10 00 a8 af  	sw	$8, 16($sp)
  4002a4: 14 00 a2 af  	sw	$2, 20($sp)
  4002a8: 18 00 bd af  	sw	$sp, 24($sp)
  4002ac: e0 82 99 8f  	lw	$25, -32032($gp)
  4002b0: 00 00 00 00  	nop
  4002b4: 09 f8 20 03  	jalr	$25
  4002b8: 00 00 00 00  	nop
  4002bc: ff ff 00 10  	b	0 <.text+0x19c>
		...

--- Symbol Table (first 50 entries) ---

/home/analyst/ir-alalysis/samples/malware/972eaa3723683be75937df1f64d95d88ebb7417d093d61663984431f5825b42c.elf:	file format elf32-mips

SYMBOL TABLE:

NOTE: For true binary-to-LLVM IR lifting, consider using:
  - mcsema: https://github.com/lifting-bits/mcsema
  - remill: https://github.com/lifting-bits/remill
  - rellic: https://github.com/lifting-bits/rellic

==========================================
LLVM analysis completed successfully
==========================================
LLVM analysis: SUCCESS
	Command being timed: "/home/analyst/ir-alalysis/scripts/analyze_llvm.sh /home/analyst/ir-alalysis/samples/malware/972eaa3723683be75937df1f64d95d88ebb7417d093d61663984431f5825b42c.elf"
	User time (seconds): 0.03
	System time (seconds): 0.07
	Percent of CPU this job got: 88%
	Elapsed (wall clock) time (h:mm:ss or m:ss): 0:00.12
	Average shared text size (kbytes): 0
	Average unshared data size (kbytes): 0
	Average stack size (kbytes): 0
	Average total size (kbytes): 0
	Maximum resident set size (kbytes): 51456
	Average resident set size (kbytes): 0
	Major (requiring I/O) page faults: 0
	Minor (reclaiming a frame) page faults: 9996
	Voluntary context switches: 19
	Involuntary context switches: 87
	Swaps: 0
	File system inputs: 0
	File system outputs: 16
	Socket messages sent: 0
	Socket messages received: 0
	Signals delivered: 0
	Page size (bytes): 4096
	Exit status: 0

Completed: 972eaa3723683be75937df1f64d95d88ebb7417d093d61663984431f5825b42c.elf

========================================
Processing sample 34: 9c8841de22ad96889ced1e5ea6cfc17e966f22658ef18d52ece8c7e77a8beed3.elf
========================================

--- Ghidra P-code Analysis ---

Ghidra analysis: SUCCESS
==========================================
Ghidra Headless Analysis
==========================================
Binary:  /home/analyst/ir-alalysis/samples/malware/9c8841de22ad96889ced1e5ea6cfc17e966f22658ef18d52ece8c7e77a8beed3.elf
Project: ghidra_analysis_9c8841de22ad96889ced1e5ea6cfc17e966f22658ef18d52ece8c7e77a8beed3.elf_20251025_202959
Location: ./ghidra_projects
==========================================
INFO  Using log config file: jar:file:/home/analyst/ghidra/Ghidra/Framework/Generic/lib/Generic.jar!/generic.log4j.xml (LoggingInitialization)  
INFO  Using log file: /home/analyst/.config/ghidra/ghidra_11.4.2_PUBLIC/application.log (LoggingInitialization)  
INFO  Loading user preferences: /home/analyst/.config/ghidra/ghidra_11.4.2_PUBLIC/preferences (Preferences)  
INFO  Searching for classes... (ClassSearcher)  
INFO  Class search complete (1369 ms) (ClassSearcher)  
INFO  Initializing SSL Context (SSLContextInitializer)  
INFO  Initializing Random Number Generator... (SecureRandomFactory)  
INFO  Random Number Generator initialization complete: NativePRNGNonBlocking (SecureRandomFactory)  
INFO  Trust manager disabled, cacerts have not been set (ApplicationTrustManagerFactory)  
INFO  Headless startup complete (5433 ms) (AnalyzeHeadless)  
INFO  Class searcher loaded 58 extension points (18 false positives) (ClassSearcher)  
INFO  HEADLESS Script Paths:
    /home/analyst/ghidra/Ghidra/Features/GnuDemangler/ghidra_scripts
    /home/analyst/ghidra/Ghidra/Features/BytePatterns/ghidra_scripts
    /home/analyst/ghidra/Ghidra/Features/SystemEmulation/ghidra_scripts
    /home/analyst/ghidra/Ghidra/Processors/DATA/ghidra_scripts
    /home/analyst/ghidra/Ghidra/Features/PyGhidra/ghidra_scripts
    /home/analyst/ghidra/Ghidra/Features/MicrosoftCodeAnalyzer/ghidra_scripts
    /home/analyst/ghidra/Ghidra/Features/Base/ghidra_scripts
    /home/analyst/ghidra/Ghidra/Features/Jython/ghidra_scripts
    /home/analyst/ghidra/Ghidra/Features/VersionTracking/ghidra_scripts
    /home/analyst/ghidra/Ghidra/Features/PDB/ghidra_scripts
    /home/analyst/ghidra/Ghidra/Processors/Atmel/ghidra_scripts
    /home/analyst/ghidra/Ghidra/Debug/Debugger-rmi-trace/ghidra_scripts
    /home/analyst/ghidra/Ghidra/Features/FileFormats/ghidra_scripts
    /home/analyst/ghidra/Ghidra/Processors/JVM/ghidra_scripts
    /home/analyst/ghidra/Ghidra/Debug/Debugger/ghidra_scripts
    /home/analyst/ghidra/Ghidra/Processors/PIC/ghidra_scripts
    /home/analyst/ghidra/Ghidra/Features/WildcardAssembler/ghidra_scripts
    /home/analyst/ghidra/Ghidra/Processors/8051/ghidra_scripts
    /home/analyst/ghidra/Ghidra/Features/Decompiler/ghidra_scripts
    /home/analyst/ghidra/Ghidra/Features/DecompilerDependent/ghidra_scripts
    /home/analyst/ghidra/Ghidra/Features/FunctionID/ghidra_scripts
    /home/analyst/ghidra/Ghidra/Features/SwiftDemangler/ghidra_scripts
    /home/analyst/ghidra/Ghidra/Features/BSim/ghidra_scripts (HeadlessAnalyzer)  
INFO  HEADLESS: execution starts (HeadlessAnalyzer)  
INFO  Creating temporary project: /home/analyst/ir-alalysis/./ghidra_projects/ghidra_analysis_9c8841de22ad96889ced1e5ea6cfc17e966f22658ef18d52ece8c7e77a8beed3.elf_20251025_202959 (HeadlessAnalyzer)  
INFO  Creating project: /home/analyst/ir-alalysis/./ghidra_projects/ghidra_analysis_9c8841de22ad96889ced1e5ea6cfc17e966f22658ef18d52ece8c7e77a8beed3.elf_20251025_202959 (DefaultProject)  
INFO  REPORT: Processing input files:  (HeadlessAnalyzer)  
INFO       project: /home/analyst/ir-alalysis/./ghidra_projects/ghidra_analysis_9c8841de22ad96889ced1e5ea6cfc17e966f22658ef18d52ece8c7e77a8beed3.elf_20251025_202959 (HeadlessAnalyzer)  
INFO  IMPORTING: file:///home/analyst/ir-alalysis/samples/malware/9c8841de22ad96889ced1e5ea6cfc17e966f22658ef18d52ece8c7e77a8beed3.elf (HeadlessAnalyzer)  
INFO  Using Loader: Executable and Linking Format (ELF) (AutoImporter)  
INFO  Using Language/Compiler: MIPS:BE:32:default:default (AutoImporter)  
INFO  Using Library Search Path: [., /bin, /lib, /lib64, /lib/x86_64-linux-gnu, /lib/aarch64-linux-gnu, /usr/bin, /usr/lib, /usr/X11R6/bin, /usr/X11R6/lib, /usr/java/packages/lib, /usr/lib/x86_64-linux-gnu/jni, /usr/lib/x86_64-linux-gnu, /usr/lib/jni] (AutoImporter)  
INFO  Additional info:
Loading file:///home/analyst/ir-alalysis/samples/malware/9c8841de22ad96889ced1e5ea6cfc17e966f22658ef18d52ece8c7e77a8beed3.elf?MD5=8afc516866137c1cda102ea8b80c2a98...
Skipping section [.mdebug.abi32] with invalid size 0x0
Unable to place symbol due to non-loaded section: .mdebug.abi32 - value=0xb76, section=.mdebug.abi32
_mips_gp0_value=0x464e60
------------------------------------------------

Resolving External Symbols of [/9c8841de22ad96889ced1e5ea6cfc17e966f22658ef18d52ece8c7e77a8beed3.elf] - 3 unresolved symbols, no external libraries configured - skipping
 (AutoImporter)  
INFO  IMPORTING: Loaded 0 additional files (HeadlessAnalyzer)  
INFO  ANALYZING all memory and code: file:///home/analyst/ir-alalysis/samples/malware/9c8841de22ad96889ced1e5ea6cfc17e966f22658ef18d52ece8c7e77a8beed3.elf (HeadlessAnalyzer)  
ERROR REPORT: Analysis timed out at 0 seconds. Processing not completed for file: file:///home/analyst/ir-alalysis/samples/malware/9c8841de22ad96889ced1e5ea6cfc17e966f22658ef18d52ece8c7e77a8beed3.elf (HeadlessAnalyzer)  
INFO  SCRIPT: /home/analyst/ir-alalysis/scripts/get_cfg_stats.py (HeadlessAnalyzer)  
GHIDRA_STATS:Functions=251
GHIDRA_STATS:BasicBlocks=0
GHIDRA_STATS:TotalPcodeOps=0
INFO  ANALYZING changes made by post scripts: file:///home/analyst/ir-alalysis/samples/malware/9c8841de22ad96889ced1e5ea6cfc17e966f22658ef18d52ece8c7e77a8beed3.elf (HeadlessAnalyzer)  
INFO  REPORT: Post-analysis succeeded for file: file:///home/analyst/ir-alalysis/samples/malware/9c8841de22ad96889ced1e5ea6cfc17e966f22658ef18d52ece8c7e77a8beed3.elf (HeadlessAnalyzer)  
INFO  REPORT: Save succeeded for: /9c8841de22ad96889ced1e5ea6cfc17e966f22658ef18d52ece8c7e77a8beed3.elf (ghidra_analysis_9c8841de22ad96889ced1e5ea6cfc17e966f22658ef18d52ece8c7e77a8beed3.elf_20251025_202959:/9c8841de22ad96889ced1e5ea6cfc17e966f22658ef18d52ece8c7e77a8beed3.elf) (HeadlessAnalyzer)  
INFO  REPORT: Import succeeded (HeadlessAnalyzer)  
==========================================
Ghidra analysis completed successfully
==========================================

Ghidra CFG Stats:
GHIDRA_STATS:Functions=251
GHIDRA_STATS:BasicBlocks=0
GHIDRA_STATS:TotalPcodeOps=0

Ghidra Performance:
	Elapsed (wall clock) time (h:mm:ss or m:ss): 0:23.92
	Maximum resident set size (kbytes): 616612

--- angr VEX IR Analysis ---

angr analysis: SUCCESS
==================================================
angr VEX IR Analysis
==================================================
Binary: /home/analyst/ir-alalysis/samples/malware/9c8841de22ad96889ced1e5ea6cfc17e966f22658ef18d52ece8c7e77a8beed3.elf
==================================================
Loading binary with angr...
Architecture: MIPS32
Entry point: 0x4002a0
Binary base address: 0x400000

Generating CFG with angr...
Functions discovered: 318
Basic blocks (CFG nodes): 4152
CFG edges: 8508

Counting VEX IR statements...
Total VEX statements: 93182

--- angr CFG & IR Stats ---
ANGR_STATS:Functions=318
ANGR_STATS:Nodes=4152
ANGR_STATS:Edges=8508
ANGR_STATS:TotalVexStatements=93182
---------------------------

Sample functions (first 10):
  - _init @ 0x4000cc
  - sub_4000f0 @ 0x4000f0
  - sub_400120 @ 0x400120
  - _ftext @ 0x400160
  - frame_dummy @ 0x40021c
  - __start @ 0x4002a0
  - sub_4002ac @ 0x4002ac
  - init_rand @ 0x400310
  - rand_cmwc @ 0x40043c
  - trim @ 0x400610
==================================================
angr analysis completed successfully
==================================================

angr CFG Stats:
ANGR_STATS:Functions=318
ANGR_STATS:Nodes=4152
ANGR_STATS:Edges=8508
ANGR_STATS:TotalVexStatements=93182

angr Performance:
	Elapsed (wall clock) time (h:mm:ss or m:ss): 0:11.63
	Maximum resident set size (kbytes): 192820

--- LLVM IR Analysis ---

==========================================
LLVM IR Analysis
==========================================
Binary:  /home/analyst/ir-alalysis/samples/malware/9c8841de22ad96889ced1e5ea6cfc17e966f22658ef18d52ece8c7e77a8beed3.elf
==========================================

Detected native binary (not LLVM bitcode)
Performing LLVM-based binary analysis...

--- Binary Information ---

/home/analyst/ir-alalysis/samples/malware/9c8841de22ad96889ced1e5ea6cfc17e966f22658ef18d52ece8c7e77a8beed3.elf:	file format elf32-mips

Sections:
Idx Name          Size     VMA      Type
  0               00000000 00000000 
  1 .reginfo      00000018 004000b4 
  2 .init         0000008c 004000cc TEXT
  3 .text         00018f50 00400160 TEXT
  4 .fini         0000005c 004190b0 TEXT
  5 .rodata       00003460 00419110 DATA
  6 .eh_frame     00000004 0041c570 DATA
  7 .ctors        00000008 0045c574 DATA
  8 .dtors        00000008 0045c57c DATA
  9 .jcr          00000004 0045c584 DATA
 10 .data.rel.ro  00000430 0045c588 DATA
 11 .data         000004b0 0045c9c0 DATA
 12 .got          000004d4 0045ce70 DATA
 13 .sbss         00000020 0045d344 BSS
 14 .bss          000063b4 0045d370 BSS
 15 .comment      00000b76 00000000 
 16 .mdebug.abi32 00000000 00000b76 
 17 .pdr          00001e60 00000000 
 18 .shstrtab     0000009a 00000000 
 19 .symtab       00002eb0 00000000 
 20 .strtab       00002289 00000000 

--- Disassembly (first 100 instructions) ---

/home/analyst/ir-alalysis/samples/malware/9c8841de22ad96889ced1e5ea6cfc17e966f22658ef18d52ece8c7e77a8beed3.elf:	file format elf32-mips

Disassembly of section .init:

004000cc <_init>:
  4000cc: 3c 1c 00 06  	lui	$gp, 6 <write.c+0x6>
  4000d0: 27 9c 4d 94  	addiu	$gp, $gp, 19860 <write.c+0x4d94>
  4000d4: 03 99 e0 21  	addu	$gp, $gp, $25
  4000d8: 27 bd ff e0  	addiu	$sp, $sp, -32 <__nameserver+0xffffffffffb9c8c8>
  4000dc: af bc 00 10  	sw	$gp, 16($sp)
  4000e0: af bf 00 1c  	sw	$ra, 28($sp)
  4000e4: af bc 00 18  	sw	$gp, 24($sp)
  4000e8: 04 11 00 01  	bal	8 <_init+0x24>
  4000ec: 00 00 00 00  	nop <write.c>
  4000f0: 3c 1c 00 06  	lui	$gp, 6 <write.c+0x6>
  4000f4: 27 9c 4d 70  	addiu	$gp, $gp, 19824 <write.c+0x4d70>
  4000f8: 03 9f e0 21  	addu	$gp, $gp, $ra
  4000fc: 8f 99 80 20  	lw	$25, -32736($gp)
  400100: 00 00 00 00  	nop <write.c>
  400104: 27 39 02 1c  	addiu	$25, $25, 540 <write.c+0x21c>
  400108: 03 20 f8 09  	jalr	$25
  40010c: 00 00 00 00  	nop <write.c>
  400110: 8f bc 00 10  	lw	$gp, 16($sp)
  400114: 00 00 00 00  	nop <write.c>
  400118: 04 11 00 01  	bal	8 <_init+0x54>
  40011c: 00 00 00 00  	nop <write.c>
  400120: 3c 1c 00 06  	lui	$gp, 6 <write.c+0x6>
  400124: 27 9c 4d 40  	addiu	$gp, $gp, 19776 <write.c+0x4d40>
  400128: 03 9f e0 21  	addu	$gp, $gp, $ra
  40012c: 8f 99 80 1c  	lw	$25, -32740($gp)
  400130: 00 00 00 00  	nop <write.c>
  400134: 27 39 90 40  	addiu	$25, $25, -28608 <__nameserver+0xffffffffffb95928>
  400138: 03 20 f8 09  	jalr	$25
  40013c: 00 00 00 00  	nop <write.c>
  400140: 8f bc 00 10  	lw	$gp, 16($sp)
  400144: 00 00 00 00  	nop <write.c>
  400148: 8f bf 00 1c  	lw	$ra, 28($sp)
  40014c: 00 00 00 00  	nop <write.c>
  400150: 03 e0 00 08  	jr	$ra
  400154: 27 bd 00 20  	addiu	$sp, $sp, 32 <write.c+0x20>

Disassembly of section .text:

00400160 <_ftext>:
  400160: 3c 1c 00 06  	lui	$gp, 6 <write.c+0x6>
  400164: 27 9c 4d 00  	addiu	$gp, $gp, 19712 <write.c+0x4d00>
  400168: 03 99 e0 21  	addu	$gp, $gp, $25
  40016c: 27 bd ff d8  	addiu	$sp, $sp, -40 <__nameserver+0xffffffffffb9c8c0>
  400170: af bf 00 20  	sw	$ra, 32($sp)
  400174: af b1 00 1c  	sw	$17, 28($sp)
  400178: af b0 00 18  	sw	$16, 24($sp)
  40017c: af bc 00 10  	sw	$gp, 16($sp)
  400180: 8f 91 80 18  	lw	$17, -32744($gp)
  400184: 00 00 00 00  	nop <write.c>
  400188: 92 22 d3 70  	lbu	$2, -11408($17)
  40018c: 00 00 00 00  	nop <write.c>
  400190: 14 40 00 1d  	bnez	$2, 120 <_ftext+0xa8>
  400194: 00 00 00 00  	nop <write.c>
  400198: 8f 90 80 18  	lw	$16, -32744($gp)
  40019c: 00 00 00 00  	nop <write.c>
  4001a0: 8e 02 c9 d0  	lw	$2, -13872($16)
  4001a4: 00 00 00 00  	nop <write.c>
  4001a8: 8c 59 00 00  	lw	$25, 0($2)
  4001ac: 00 00 00 00  	nop <write.c>
  4001b0: 13 20 00 09  	beqz	$25, 40 <_ftext+0x78>
  4001b4: 24 42 00 04  	addiu	$2, $2, 4 <write.c+0x4>
  4001b8: 03 20 f8 09  	jalr	$25
  4001bc: ae 02 c9 d0  	sw	$2, -13872($16)
  4001c0: 8e 02 c9 d0  	lw	$2, -13872($16)
  4001c4: 8f bc 00 10  	lw	$gp, 16($sp)
  4001c8: 8c 59 00 00  	lw	$25, 0($2)
  4001cc: 00 00 00 00  	nop <write.c>
  4001d0: 17 20 ff f9  	bnez	$25, -24 <_ftext+0x58>
  4001d4: 24 42 00 04  	addiu	$2, $2, 4 <write.c+0x4>
  4001d8: 8f 82 83 28  	lw	$2, -31960($gp)
  4001dc: 00 00 00 00  	nop <write.c>
  4001e0: 10 40 00 08  	beqz	$2, 36 <_ftext+0xa4>
  4001e4: 24 02 00 01  	addiu	$2, $zero, 1 <write.c+0x1>
  4001e8: 8f 84 80 1c  	lw	$4, -32740($gp)
  4001ec: 8f 99 83 28  	lw	$25, -31960($gp)
  4001f0: 00 00 00 00  	nop <write.c>
  4001f4: 03 20 f8 09  	jalr	$25
  4001f8: 24 84 c5 70  	addiu	$4, $4, -14992 <__nameserver+0xffffffffffb98e58>
  4001fc: 8f bc 00 10  	lw	$gp, 16($sp)
  400200: 24 02 00 01  	addiu	$2, $zero, 1 <write.c+0x1>
  400204: a2 22 d3 70  	sb	$2, -11408($17)
  400208: 8f bf 00 20  	lw	$ra, 32($sp)
  40020c: 8f b1 00 1c  	lw	$17, 28($sp)
  400210: 8f b0 00 18  	lw	$16, 24($sp)
  400214: 03 e0 00 08  	jr	$ra
  400218: 27 bd 00 28  	addiu	$sp, $sp, 40 <write.c+0x28>

0040021c <frame_dummy>:
  40021c: 3c 1c 00 06  	lui	$gp, 6 <write.c+0x6>
  400220: 27 9c 4c 44  	addiu	$gp, $gp, 19524 <write.c+0x4c44>
  400224: 03 99 e0 21  	addu	$gp, $gp, $25
  400228: 27 bd ff e0  	addiu	$sp, $sp, -32 <__nameserver+0xffffffffffb9c8c8>
  40022c: af bf 00 18  	sw	$ra, 24($sp)
  400230: af bc 00 10  	sw	$gp, 16($sp)
  400234: 8f 84 80 1c  	lw	$4, -32740($gp)
  400238: 8f 85 80 18  	lw	$5, -32744($gp)
  40023c: 8f 82 81 18  	lw	$2, -32488($gp)
  400240: 8f 99 81 18  	lw	$25, -32488($gp)
  400244: 24 84 c5 70  	addiu	$4, $4, -14992 <__nameserver+0xffffffffffb98e58>
  400248: 10 40 00 05  	beqz	$2, 24 <frame_dummy+0x44>
  40024c: 24 a5 d3 74  	addiu	$5, $5, -11404 <__nameserver+0xffffffffffb99c5c>
  400250: 03 20 f8 09  	jalr	$25
  400254: 00 00 00 00  	nop <write.c>
  400258: 8f bc 00 10  	lw	$gp, 16($sp)
  40025c: 00 00 00 00  	nop <write.c>
  400260: 8f 84 80 18  	lw	$4, -32744($gp)
  400264: 8f 99 81 30  	lw	$25, -32464($gp)
  400268: 8c 82 c5 84  	lw	$2, -14972($4)
  40026c: 00 00 00 00  	nop <write.c>
  400270: 10 40 00 06  	beqz	$2, 28 <frame_dummy+0x70>
  400274: 24 84 c5 84  	addiu	$4, $4, -14972 <__nameserver+0xffffffffffb98e6c>
  400278: 13 20 00 04  	beqz	$25, 20 <frame_dummy+0x70>
  40027c: 00 00 00 00  	nop <write.c>
  400280: 8f bf 00 18  	lw	$ra, 24($sp)
  400284: 03 20 00 08  	jr	$25
  400288: 27 bd 00 20  	addiu	$sp, $sp, 32 <write.c+0x20>
  40028c: 8f bf 00 18  	lw	$ra, 24($sp)
  400290: 00 00 00 00  	nop <write.c>
  400294: 03 e0 00 08  	jr	$ra
  400298: 27 bd 00 20  	addiu	$sp, $sp, 32 <write.c+0x20>
  40029c: 00 00 00 00  	nop <write.c>

004002a0 <__start>:
  4002a0: 03 e0 00 21  	move	$zero, $ra
  4002a4: 04 11 00 01  	bal	8 <__start+0xc>
  4002a8: 00 00 00 00  	nop <write.c>
  4002ac: 3c 1c 00 06  	lui	$gp, 6 <write.c+0x6>
  4002b0: 27 9c 4b b4  	addiu	$gp, $gp, 19380 <write.c+0x4bb4>
  4002b4: 03 9f e0 21  	addu	$gp, $gp, $ra
  4002b8: 00 00 f8 21  	move	$ra, $zero
  4002bc: 8f 84 82 64  	lw	$4, -32156($gp)
  4002c0: 8f a5 00 00  	lw	$5, 0($sp)
  4002c4: 27 a6 00 04  	addiu	$6, $sp, 4 <write.c+0x4>
  4002c8: 24 01 ff f8  	addiu	$1, $zero, -8 <__nameserver+0xffffffffffb9c8e0>
  4002cc: 03 a1 e8 24  	and	$sp, $sp, $1
  4002d0: 27 bd ff e0  	addiu	$sp, $sp, -32 <__nameserver+0xffffffffffb9c8c8>
  4002d4: 8f 87 83 84  	lw	$7, -31868($gp)
  4002d8: 8f 88 82 14  	lw	$8, -32236($gp)
  4002dc: 00 00 00 00  	nop <write.c>
  4002e0: af a8 00 10  	sw	$8, 16($sp)
  4002e4: af a2 00 14  	sw	$2, 20($sp)
  4002e8: af bd 00 18  	sw	$sp, 24($sp)
  4002ec: 8f 99 82 78  	lw	$25, -32136($gp)
  4002f0: 00 00 00 00  	nop <write.c>

--- Symbol Table (first 50 entries) ---

/home/analyst/ir-alalysis/samples/malware/9c8841de22ad96889ced1e5ea6cfc17e966f22658ef18d52ece8c7e77a8beed3.elf:	file format elf32-mips

SYMBOL TABLE:
004000b4 l    d  .reginfo	00000000 .reginfo
004000cc l    d  .init	00000000 .init
00400160 l    d  .text	00000000 .text
004190b0 l    d  .fini	00000000 .fini
00419110 l    d  .rodata	00000000 .rodata
0041c570 l    d  .eh_frame	00000000 .eh_frame
0045c574 l    d  .ctors	00000000 .ctors
0045c57c l    d  .dtors	00000000 .dtors
0045c584 l    d  .jcr	00000000 .jcr
0045c588 l    d  .data.rel.ro	00000000 .data.rel.ro
0045c9c0 l    d  .data	00000000 .data
0045ce70 l    d  .got	00000000 .got
0045d344 l    d  .sbss	00000000 .sbss
0045d370 l    d  .bss	00000000 .bss
00000000 l    d  .comment	00000000 .comment
00000b76 l    d  .mdebug.abi32	00000000 .mdebug.abi32
00000000 l    d  .pdr	00000000 .pdr
00000000 l    d  .shstrtab	00000000 .shstrtab
00000000 l    d  .symtab	00000000 .symtab
00000000 l    d  .strtab	00000000 .strtab
00000000 l    df *ABS*	00000000 initfini.c
00000000 l    df *ABS*	00000000 libc/sysdeps/linux/mips/crti.S
00000000 l    df *ABS*	00000000 crtstuff.c
0045c574 l     O .ctors	00000000 __CTOR_LIST__
0045c57c l     O .dtors	00000000 __DTOR_LIST__
0041c570 l     O .eh_frame	00000000 __EH_FRAME_BEGIN__
0045c584 l     O .jcr	00000000 __JCR_LIST__
0045d370 l     O .bss	00000001 completed.2296
0045c9d0 l     O .data	00000000 p.2294
00400160 l     F .text	00000000 __do_global_dtors_aux
0045d374 l     O .bss	00000018 object.2349
0040021c l     F .text	00000000 frame_dummy
00000000 l    df *ABS*	00000000 crtstuff.c
0045c578 l     O .ctors	00000000 __CTOR_END__
0045c580 l     O .dtors	00000000 __DTOR_END__
0041c570 l     O .eh_frame	00000000 __FRAME_END__
0045c584 l     O .jcr	00000000 __JCR_END__
00419040 l     F .text	00000000 __do_global_ctors_aux
00000000 l    df *ABS*	00000000 initfini.c
00000000 l    df *ABS*	00000000 libc/sysdeps/linux/mips/crtn.S
00000000 l    df *ABS*	00000000 libc/sysdeps/linux/mips/crt1.S
004002fc l       .text	00000000 hlt
00000000 l    df *ABS*	00000000 bot.c
0045c9f8 l     O .data	00000004 c
0045d3b0 l     O .bss	00004000 Q
0045c9fc l     O .data	00000004 i.3637
004007dc l     F .text	000000b8 printchar
00400894 l     F .text	0000023c prints
00400ad0 l     F .text	00000298 printi
00400d68 l     F .text	000005b0 print
004613b0 l     O .bss	00000004 fdopen_pids

NOTE: For true binary-to-LLVM IR lifting, consider using:
  - mcsema: https://github.com/lifting-bits/mcsema
  - remill: https://github.com/lifting-bits/remill
  - rellic: https://github.com/lifting-bits/rellic

==========================================
LLVM analysis completed successfully
==========================================
LLVM analysis: SUCCESS
	Command being timed: "/home/analyst/ir-alalysis/scripts/analyze_llvm.sh /home/analyst/ir-alalysis/samples/malware/9c8841de22ad96889ced1e5ea6cfc17e966f22658ef18d52ece8c7e77a8beed3.elf"
	User time (seconds): 0.05
	System time (seconds): 0.09
	Percent of CPU this job got: 77%
	Elapsed (wall clock) time (h:mm:ss or m:ss): 0:00.18
	Average shared text size (kbytes): 0
	Average unshared data size (kbytes): 0
	Average stack size (kbytes): 0
	Average total size (kbytes): 0
	Maximum resident set size (kbytes): 51584
	Average resident set size (kbytes): 0
	Major (requiring I/O) page faults: 0
	Minor (reclaiming a frame) page faults: 10031
	Voluntary context switches: 46
	Involuntary context switches: 162
	Swaps: 0
	File system inputs: 0
	File system outputs: 24
	Socket messages sent: 0
	Socket messages received: 0
	Signals delivered: 0
	Page size (bytes): 4096
	Exit status: 0

Completed: 9c8841de22ad96889ced1e5ea6cfc17e966f22658ef18d52ece8c7e77a8beed3.elf

========================================
Processing sample 35: a41ee1ea1fd091fe3e7c77a96f3198b86c6fcc63425924fb626b45413b841750.apk
========================================

--- Ghidra P-code Analysis ---

Ghidra analysis: SUCCESS
==========================================
Ghidra Headless Analysis
==========================================
Binary:  /home/analyst/ir-alalysis/samples/malware/a41ee1ea1fd091fe3e7c77a96f3198b86c6fcc63425924fb626b45413b841750.apk
Project: ghidra_analysis_a41ee1ea1fd091fe3e7c77a96f3198b86c6fcc63425924fb626b45413b841750.apk_20251025_203035
Location: ./ghidra_projects
==========================================
INFO  Using log config file: jar:file:/home/analyst/ghidra/Ghidra/Framework/Generic/lib/Generic.jar!/generic.log4j.xml (LoggingInitialization)  
INFO  Using log file: /home/analyst/.config/ghidra/ghidra_11.4.2_PUBLIC/application.log (LoggingInitialization)  
INFO  Loading user preferences: /home/analyst/.config/ghidra/ghidra_11.4.2_PUBLIC/preferences (Preferences)  
INFO  Searching for classes... (ClassSearcher)  
INFO  Class search complete (1155 ms) (ClassSearcher)  
INFO  Initializing SSL Context (SSLContextInitializer)  
INFO  Initializing Random Number Generator... (SecureRandomFactory)  
INFO  Random Number Generator initialization complete: NativePRNGNonBlocking (SecureRandomFactory)  
INFO  Trust manager disabled, cacerts have not been set (ApplicationTrustManagerFactory)  
INFO  Headless startup complete (4951 ms) (AnalyzeHeadless)  
INFO  Class searcher loaded 58 extension points (18 false positives) (ClassSearcher)  
INFO  HEADLESS Script Paths:
    /home/analyst/ghidra/Ghidra/Features/GnuDemangler/ghidra_scripts
    /home/analyst/ghidra/Ghidra/Features/BytePatterns/ghidra_scripts
    /home/analyst/ghidra/Ghidra/Features/SystemEmulation/ghidra_scripts
    /home/analyst/ghidra/Ghidra/Processors/DATA/ghidra_scripts
    /home/analyst/ghidra/Ghidra/Features/PyGhidra/ghidra_scripts
    /home/analyst/ghidra/Ghidra/Features/MicrosoftCodeAnalyzer/ghidra_scripts
    /home/analyst/ghidra/Ghidra/Features/Base/ghidra_scripts
    /home/analyst/ghidra/Ghidra/Features/Jython/ghidra_scripts
    /home/analyst/ghidra/Ghidra/Features/VersionTracking/ghidra_scripts
    /home/analyst/ghidra/Ghidra/Features/PDB/ghidra_scripts
    /home/analyst/ghidra/Ghidra/Processors/Atmel/ghidra_scripts
    /home/analyst/ghidra/Ghidra/Debug/Debugger-rmi-trace/ghidra_scripts
    /home/analyst/ghidra/Ghidra/Features/FileFormats/ghidra_scripts
    /home/analyst/ghidra/Ghidra/Processors/JVM/ghidra_scripts
    /home/analyst/ghidra/Ghidra/Debug/Debugger/ghidra_scripts
    /home/analyst/ghidra/Ghidra/Processors/PIC/ghidra_scripts
    /home/analyst/ghidra/Ghidra/Features/WildcardAssembler/ghidra_scripts
    /home/analyst/ghidra/Ghidra/Processors/8051/ghidra_scripts
    /home/analyst/ghidra/Ghidra/Features/Decompiler/ghidra_scripts
    /home/analyst/ghidra/Ghidra/Features/DecompilerDependent/ghidra_scripts
    /home/analyst/ghidra/Ghidra/Features/FunctionID/ghidra_scripts
    /home/analyst/ghidra/Ghidra/Features/SwiftDemangler/ghidra_scripts
    /home/analyst/ghidra/Ghidra/Features/BSim/ghidra_scripts (HeadlessAnalyzer)  
INFO  HEADLESS: execution starts (HeadlessAnalyzer)  
INFO  Creating temporary project: /home/analyst/ir-alalysis/./ghidra_projects/ghidra_analysis_a41ee1ea1fd091fe3e7c77a96f3198b86c6fcc63425924fb626b45413b841750.apk_20251025_203035 (HeadlessAnalyzer)  
INFO  Creating project: /home/analyst/ir-alalysis/./ghidra_projects/ghidra_analysis_a41ee1ea1fd091fe3e7c77a96f3198b86c6fcc63425924fb626b45413b841750.apk_20251025_203035 (DefaultProject)  
INFO  REPORT: Processing input files:  (HeadlessAnalyzer)  
INFO       project: /home/analyst/ir-alalysis/./ghidra_projects/ghidra_analysis_a41ee1ea1fd091fe3e7c77a96f3198b86c6fcc63425924fb626b45413b841750.apk_20251025_203035 (HeadlessAnalyzer)  
INFO  IMPORTING: file:///home/analyst/ir-alalysis/samples/malware/a41ee1ea1fd091fe3e7c77a96f3198b86c6fcc63425924fb626b45413b841750.apk (HeadlessAnalyzer)  
WARN  Unable to find password for 2 file(s) in a41ee1ea1fd091fe3e7c77a96f3198b86c6fcc63425924fb626b45413b841750.apk (ZipFileSystem)  
INFO  Using Loader: Android APK (AutoImporter)  
INFO  Using Language/Compiler: Dalvik:LE:32:DEX_KitKat:default (AutoImporter)  
INFO  Using Library Search Path: [., /bin, /lib, /lib64, /lib/x86_64-linux-gnu, /lib/aarch64-linux-gnu, /usr/bin, /usr/lib, /usr/X11R6/bin, /usr/X11R6/lib, /usr/java/packages/lib, /usr/lib/x86_64-linux-gnu/jni, /usr/lib/x86_64-linux-gnu, /usr/lib/jni] (AutoImporter)  
WARN  Unable to find password for 2 file(s) in a41ee1ea1fd091fe3e7c77a96f3198b86c6fcc63425924fb626b45413b841750.apk (ZipFileSystem)  
INFO  IMPORTING: Loaded 0 additional files (HeadlessAnalyzer)  
WARN  Analyzer 'Apply Data Archives' for classes.dex disabled by PSPEC file override (AnalysisScheduler)  
WARN  Analyzer 'Basic Constant Reference Analyzer' for classes.dex disabled by PSPEC file override (AnalysisScheduler)  
WARN  Analyzer 'Data Reference' for classes.dex disabled by PSPEC file override (AnalysisScheduler)  
WARN  Analyzer 'Call Convention ID' for classes.dex disabled by PSPEC file override (AnalysisScheduler)  
WARN  Analyzer 'Decompiler Switch Analysis' for classes.dex disabled by PSPEC file override (AnalysisScheduler)  
WARN  Analyzer 'Embedded Media' for classes.dex disabled by PSPEC file override (AnalysisScheduler)  
WARN  Analyzer 'Non-Returning Functions - Discovered' for classes.dex disabled by PSPEC file override (AnalysisScheduler)  
WARN  Analyzer 'Demangler GNU' for classes.dex disabled by PSPEC file override (AnalysisScheduler)  
WARN  Analyzer 'Reference' for classes.dex disabled by PSPEC file override (AnalysisScheduler)  
WARN  Analyzer 'Create Address Tables' for classes.dex disabled by PSPEC file override (AnalysisScheduler)  
WARN  Analyzer 'Call-Fixup Installer' for classes.dex disabled by PSPEC file override (AnalysisScheduler)  
WARN  Analyzer 'Call-Fixup Installer' for classes.dex disabled by PSPEC file override (AnalysisScheduler)  
WARN  Analyzer 'Disassemble Entry Points' for classes.dex disabled by PSPEC file override (AnalysisScheduler)  
WARN  Analyzer 'Subroutine References' for classes.dex disabled by PSPEC file override (AnalysisScheduler)  
WARN  Analyzer 'External Entry References' for classes.dex disabled by PSPEC file override (AnalysisScheduler)  
WARN  Analyzer 'Subroutine References' for classes.dex disabled by PSPEC file override (AnalysisScheduler)  
WARN  Analyzer 'Shared Return Calls' for classes.dex disabled by PSPEC file override (AnalysisScheduler)  
WARN  Analyzer 'Shared Return Calls' for classes.dex disabled by PSPEC file override (AnalysisScheduler)  
WARN  Analyzer 'Stack' for classes.dex disabled by PSPEC file override (AnalysisScheduler)  
WARN  Analyzer 'ASCII Strings' for classes.dex disabled by PSPEC file override (AnalysisScheduler)  
INFO  ANALYZING all memory and code: file:///home/analyst/ir-alalysis/samples/malware/a41ee1ea1fd091fe3e7c77a96f3198b86c6fcc63425924fb626b45413b841750.apk (HeadlessAnalyzer)  
ERROR REPORT: Analysis timed out at 0 seconds. Processing not completed for file: file:///home/analyst/ir-alalysis/samples/malware/a41ee1ea1fd091fe3e7c77a96f3198b86c6fcc63425924fb626b45413b841750.apk (HeadlessAnalyzer)  
INFO  SCRIPT: /home/analyst/ir-alalysis/scripts/get_cfg_stats.py (HeadlessAnalyzer)  
WARN  FAIL TO CLOSE /var/tmp/analyst-ghidra/fscache2/51/51ab98f1b62b97b4d0fb4ef938da0990 (ObfuscatedFileByteProvider)  
GHIDRA_STATS:Functions=0
GHIDRA_STATS:BasicBlocks=0
GHIDRA_STATS:TotalPcodeOps=0
INFO  ANALYZING changes made by post scripts: file:///home/analyst/ir-alalysis/samples/malware/a41ee1ea1fd091fe3e7c77a96f3198b86c6fcc63425924fb626b45413b841750.apk (HeadlessAnalyzer)  
INFO  REPORT: Post-analysis succeeded for file: file:///home/analyst/ir-alalysis/samples/malware/a41ee1ea1fd091fe3e7c77a96f3198b86c6fcc63425924fb626b45413b841750.apk (HeadlessAnalyzer)  
INFO  REPORT: Save succeeded for: /a41ee1ea1fd091fe3e7c77a96f3198b86c6fcc63425924fb626b45413b841750.apk/classes.dex (ghidra_analysis_a41ee1ea1fd091fe3e7c77a96f3198b86c6fcc63425924fb626b45413b841750.apk_20251025_203035:/a41ee1ea1fd091fe3e7c77a96f3198b86c6fcc63425924fb626b45413b841750.apk/classes.dex) (HeadlessAnalyzer)  
INFO  REPORT: Import succeeded (HeadlessAnalyzer)  
==========================================
Ghidra analysis completed successfully
==========================================

Ghidra CFG Stats:
GHIDRA_STATS:Functions=0
GHIDRA_STATS:BasicBlocks=0
GHIDRA_STATS:TotalPcodeOps=0

Ghidra Performance:
	Elapsed (wall clock) time (h:mm:ss or m:ss): 0:24.54
	Maximum resident set size (kbytes): 751588

--- angr VEX IR Analysis ---

angr analysis: FAILED
==================================================
angr VEX IR Analysis
==================================================
Binary: /home/analyst/ir-alalysis/samples/malware/a41ee1ea1fd091fe3e7c77a96f3198b86c6fcc63425924fb626b45413b841750.apk
==================================================
Loading binary with angr...

angr CFG Stats:
  (CFG stats not available)

angr Performance:
	Elapsed (wall clock) time (h:mm:ss or m:ss): 0:01.53
	Maximum resident set size (kbytes): 101088

--- LLVM IR Analysis ---

==========================================
LLVM IR Analysis
==========================================
Binary:  /home/analyst/ir-alalysis/samples/malware/a41ee1ea1fd091fe3e7c77a96f3198b86c6fcc63425924fb626b45413b841750.apk
==========================================

Detected native binary (not LLVM bitcode)
Performing LLVM-based binary analysis...

--- Binary Information ---
llvm-objdump: error: '/home/analyst/ir-alalysis/samples/malware/a41ee1ea1fd091fe3e7c77a96f3198b86c6fcc63425924fb626b45413b841750.apk': The file was not recognized as a valid object file

--- Disassembly (first 100 instructions) ---
llvm-objdump: error: '/home/analyst/ir-alalysis/samples/malware/a41ee1ea1fd091fe3e7c77a96f3198b86c6fcc63425924fb626b45413b841750.apk': The file was not recognized as a valid object file

--- Symbol Table (first 50 entries) ---
llvm-objdump: error: '/home/analyst/ir-alalysis/samples/malware/a41ee1ea1fd091fe3e7c77a96f3198b86c6fcc63425924fb626b45413b841750.apk': The file was not recognized as a valid object file

NOTE: For true binary-to-LLVM IR lifting, consider using:
  - mcsema: https://github.com/lifting-bits/mcsema
  - remill: https://github.com/lifting-bits/remill
  - rellic: https://github.com/lifting-bits/rellic

==========================================
LLVM analysis completed successfully
==========================================
LLVM analysis: SUCCESS
	Command being timed: "/home/analyst/ir-alalysis/scripts/analyze_llvm.sh /home/analyst/ir-alalysis/samples/malware/a41ee1ea1fd091fe3e7c77a96f3198b86c6fcc63425924fb626b45413b841750.apk"
	User time (seconds): 0.02
	System time (seconds): 0.06
	Percent of CPU this job got: 93%
	Elapsed (wall clock) time (h:mm:ss or m:ss): 0:00.09
	Average shared text size (kbytes): 0
	Average unshared data size (kbytes): 0
	Average stack size (kbytes): 0
	Average total size (kbytes): 0
	Maximum resident set size (kbytes): 50176
	Average resident set size (kbytes): 0
	Major (requiring I/O) page faults: 0
	Minor (reclaiming a frame) page faults: 10233
	Voluntary context switches: 32
	Involuntary context switches: 73
	Swaps: 0
	File system inputs: 2208
	File system outputs: 8
	Socket messages sent: 0
	Socket messages received: 0
	Signals delivered: 0
	Page size (bytes): 4096
	Exit status: 0

Completed: a41ee1ea1fd091fe3e7c77a96f3198b86c6fcc63425924fb626b45413b841750.apk

========================================
Processing sample 36: aa1065d40b7d684f439ac17e97f552bf229667afbf3507546206774c2df96665.elf
========================================

--- Ghidra P-code Analysis ---

Ghidra analysis: SUCCESS
==========================================
Ghidra Headless Analysis
==========================================
Binary:  /home/analyst/ir-alalysis/samples/malware/aa1065d40b7d684f439ac17e97f552bf229667afbf3507546206774c2df96665.elf
Project: ghidra_analysis_aa1065d40b7d684f439ac17e97f552bf229667afbf3507546206774c2df96665.elf_20251025_203102
Location: ./ghidra_projects
==========================================
INFO  Using log config file: jar:file:/home/analyst/ghidra/Ghidra/Framework/Generic/lib/Generic.jar!/generic.log4j.xml (LoggingInitialization)  
INFO  Using log file: /home/analyst/.config/ghidra/ghidra_11.4.2_PUBLIC/application.log (LoggingInitialization)  
INFO  Loading user preferences: /home/analyst/.config/ghidra/ghidra_11.4.2_PUBLIC/preferences (Preferences)  
INFO  Searching for classes... (ClassSearcher)  
INFO  Class search complete (1155 ms) (ClassSearcher)  
INFO  Initializing SSL Context (SSLContextInitializer)  
INFO  Initializing Random Number Generator... (SecureRandomFactory)  
INFO  Random Number Generator initialization complete: NativePRNGNonBlocking (SecureRandomFactory)  
INFO  Trust manager disabled, cacerts have not been set (ApplicationTrustManagerFactory)  
INFO  Headless startup complete (3918 ms) (AnalyzeHeadless)  
INFO  Class searcher loaded 58 extension points (18 false positives) (ClassSearcher)  
INFO  HEADLESS Script Paths:
    /home/analyst/ghidra/Ghidra/Features/GnuDemangler/ghidra_scripts
    /home/analyst/ghidra/Ghidra/Features/BytePatterns/ghidra_scripts
    /home/analyst/ghidra/Ghidra/Features/SystemEmulation/ghidra_scripts
    /home/analyst/ghidra/Ghidra/Processors/DATA/ghidra_scripts
    /home/analyst/ghidra/Ghidra/Features/PyGhidra/ghidra_scripts
    /home/analyst/ghidra/Ghidra/Features/MicrosoftCodeAnalyzer/ghidra_scripts
    /home/analyst/ghidra/Ghidra/Features/Base/ghidra_scripts
    /home/analyst/ghidra/Ghidra/Features/Jython/ghidra_scripts
    /home/analyst/ghidra/Ghidra/Features/VersionTracking/ghidra_scripts
    /home/analyst/ghidra/Ghidra/Features/PDB/ghidra_scripts
    /home/analyst/ghidra/Ghidra/Processors/Atmel/ghidra_scripts
    /home/analyst/ghidra/Ghidra/Debug/Debugger-rmi-trace/ghidra_scripts
    /home/analyst/ghidra/Ghidra/Features/FileFormats/ghidra_scripts
    /home/analyst/ghidra/Ghidra/Processors/JVM/ghidra_scripts
    /home/analyst/ghidra/Ghidra/Debug/Debugger/ghidra_scripts
    /home/analyst/ghidra/Ghidra/Processors/PIC/ghidra_scripts
    /home/analyst/ghidra/Ghidra/Features/WildcardAssembler/ghidra_scripts
    /home/analyst/ghidra/Ghidra/Processors/8051/ghidra_scripts
    /home/analyst/ghidra/Ghidra/Features/Decompiler/ghidra_scripts
    /home/analyst/ghidra/Ghidra/Features/DecompilerDependent/ghidra_scripts
    /home/analyst/ghidra/Ghidra/Features/FunctionID/ghidra_scripts
    /home/analyst/ghidra/Ghidra/Features/SwiftDemangler/ghidra_scripts
    /home/analyst/ghidra/Ghidra/Features/BSim/ghidra_scripts (HeadlessAnalyzer)  
INFO  HEADLESS: execution starts (HeadlessAnalyzer)  
INFO  Creating temporary project: /home/analyst/ir-alalysis/./ghidra_projects/ghidra_analysis_aa1065d40b7d684f439ac17e97f552bf229667afbf3507546206774c2df96665.elf_20251025_203102 (HeadlessAnalyzer)  
INFO  Creating project: /home/analyst/ir-alalysis/./ghidra_projects/ghidra_analysis_aa1065d40b7d684f439ac17e97f552bf229667afbf3507546206774c2df96665.elf_20251025_203102 (DefaultProject)  
INFO  REPORT: Processing input files:  (HeadlessAnalyzer)  
INFO       project: /home/analyst/ir-alalysis/./ghidra_projects/ghidra_analysis_aa1065d40b7d684f439ac17e97f552bf229667afbf3507546206774c2df96665.elf_20251025_203102 (HeadlessAnalyzer)  
INFO  IMPORTING: file:///home/analyst/ir-alalysis/samples/malware/aa1065d40b7d684f439ac17e97f552bf229667afbf3507546206774c2df96665.elf (HeadlessAnalyzer)  
INFO  Using Loader: Executable and Linking Format (ELF) (AutoImporter)  
INFO  Using Language/Compiler: x86:LE:64:default:gcc (AutoImporter)  
INFO  Using Library Search Path: [., /bin, /lib, /lib64, /lib/x86_64-linux-gnu, /lib/aarch64-linux-gnu, /usr/bin, /usr/lib, /usr/X11R6/bin, /usr/X11R6/lib, /usr/java/packages/lib, /usr/lib/x86_64-linux-gnu/jni, /usr/lib/x86_64-linux-gnu, /usr/lib/jni] (AutoImporter)  
INFO  Additional info:
Loading file:///home/analyst/ir-alalysis/samples/malware/aa1065d40b7d684f439ac17e97f552bf229667afbf3507546206774c2df96665.elf?MD5=33784cad5827fdf6450f5757c952a41f...
------------------------------------------------

 (AutoImporter)  
INFO  IMPORTING: Loaded 0 additional files (HeadlessAnalyzer)  
INFO  ANALYZING all memory and code: file:///home/analyst/ir-alalysis/samples/malware/aa1065d40b7d684f439ac17e97f552bf229667afbf3507546206774c2df96665.elf (HeadlessAnalyzer)  
ERROR REPORT: Analysis timed out at 0 seconds. Processing not completed for file: file:///home/analyst/ir-alalysis/samples/malware/aa1065d40b7d684f439ac17e97f552bf229667afbf3507546206774c2df96665.elf (HeadlessAnalyzer)  
INFO  SCRIPT: /home/analyst/ir-alalysis/scripts/get_cfg_stats.py (HeadlessAnalyzer)  
GHIDRA_STATS:Functions=1
GHIDRA_STATS:BasicBlocks=0
GHIDRA_STATS:TotalPcodeOps=0
INFO  ANALYZING changes made by post scripts: file:///home/analyst/ir-alalysis/samples/malware/aa1065d40b7d684f439ac17e97f552bf229667afbf3507546206774c2df96665.elf (HeadlessAnalyzer)  
INFO  REPORT: Post-analysis succeeded for file: file:///home/analyst/ir-alalysis/samples/malware/aa1065d40b7d684f439ac17e97f552bf229667afbf3507546206774c2df96665.elf (HeadlessAnalyzer)  
INFO  REPORT: Save succeeded for: /aa1065d40b7d684f439ac17e97f552bf229667afbf3507546206774c2df96665.elf (ghidra_analysis_aa1065d40b7d684f439ac17e97f552bf229667afbf3507546206774c2df96665.elf_20251025_203102:/aa1065d40b7d684f439ac17e97f552bf229667afbf3507546206774c2df96665.elf) (HeadlessAnalyzer)  
INFO  REPORT: Import succeeded (HeadlessAnalyzer)  
==========================================
Ghidra analysis completed successfully
==========================================

Ghidra CFG Stats:
GHIDRA_STATS:Functions=1
GHIDRA_STATS:BasicBlocks=0
GHIDRA_STATS:TotalPcodeOps=0

Ghidra Performance:
	Elapsed (wall clock) time (h:mm:ss or m:ss): 0:16.76
	Maximum resident set size (kbytes): 613324

--- angr VEX IR Analysis ---

angr analysis: FAILED
==================================================
angr VEX IR Analysis
==================================================
Binary: /home/analyst/ir-alalysis/samples/malware/aa1065d40b7d684f439ac17e97f552bf229667afbf3507546206774c2df96665.elf
==================================================
Loading binary with angr...
Architecture: AMD64
Entry point: 0x400194
Binary base address: 0x400000

Generating CFG with angr...

angr CFG Stats:
  (CFG stats not available)

angr Performance:
	Elapsed (wall clock) time (h:mm:ss or m:ss): 0:02.74
	Maximum resident set size (kbytes): 137324

--- LLVM IR Analysis ---

==========================================
LLVM IR Analysis
==========================================
Binary:  /home/analyst/ir-alalysis/samples/malware/aa1065d40b7d684f439ac17e97f552bf229667afbf3507546206774c2df96665.elf
==========================================

Detected native binary (not LLVM bitcode)
Performing LLVM-based binary analysis...

--- Binary Information ---

/home/analyst/ir-alalysis/samples/malware/aa1065d40b7d684f439ac17e97f552bf229667afbf3507546206774c2df96665.elf:	file format elf64-x86-64

Sections:
Idx Name          Size     VMA              Type
  0               00000000 0000000000000000 
  1 .init         00000013 00000000004000e8 TEXT
  2 .text         0000fae6 0000000000400100 TEXT
  3 .fini         0000000e 000000000040fbe6 TEXT
  4 .rodata       000020c6 000000000040fc00 DATA
  5 .ctors        00000010 0000000000512000 DATA
  6 .dtors        00000010 0000000000512010 DATA
  7 .data         000004a8 0000000000512040 DATA
  8 .bss          00002a70 0000000000512500 BSS
  9 .shstrtab     0000003e 0000000000000000 

--- Disassembly (first 100 instructions) ---

/home/analyst/ir-alalysis/samples/malware/aa1065d40b7d684f439ac17e97f552bf229667afbf3507546206774c2df96665.elf:	file format elf64-x86-64

Disassembly of section .init:

00000000004000e8 <.init>:
  4000e8: 48 83 ec 08                  	subq	$8, %rsp
  4000ec: e8 5f 00 00 00               	callq	0x400150
  4000f1: e8 ba fa 00 00               	callq	0x40fbb0
  4000f6: 48 83 c4 08                  	addq	$8, %rsp
  4000fa: c3                           	retq

Disassembly of section .text:

0000000000400100 <.text>:
  400100: 80 3d f9 23 11 00 00         	cmpb	$0, 1123321(%rip)       # 0x512500
  400107: 55                           	pushq	%rbp
  400108: 48 89 e5                     	movq	%rsp, %rbp
  40010b: 74 10                        	je	0x40011d <.text+0x1d>
  40010d: eb 38                        	jmp	0x400147 <.text+0x47>
  40010f: 90                           	nop
  400110: 48 83 c0 08                  	addq	$8, %rax
  400114: 48 89 05 2d 1f 11 00         	movq	%rax, 1122093(%rip)     # 0x512048
  40011b: ff d2                        	callq	*%rdx
  40011d: 48 8b 05 24 1f 11 00         	movq	1122084(%rip), %rax     # 0x512048
  400124: 48 8b 10                     	movq	(%rax), %rdx
  400127: 48 85 d2                     	testq	%rdx, %rdx
  40012a: 75 e4                        	jne	0x400110 <.text+0x10>
  40012c: b8 00 00 00 00               	movl	$0, %eax
  400131: 48 85 c0                     	testq	%rax, %rax
  400134: 74 0a                        	je	0x400140 <.text+0x40>
  400136: bf c8 1c 41 00               	movl	$4267208, %edi          # imm = 0x411CC8
  40013b: e8 c0 fe bf ff               	callq	0x0
  400140: c6 05 b9 23 11 00 01         	movb	$1, 1123257(%rip)       # 0x512500
  400147: c9                           	leave
  400148: c3                           	retq
  400149: 66 66 66 90                  	nop
  40014d: 66 66 90                     	nop
  400150: 55                           	pushq	%rbp
  400151: b8 00 00 00 00               	movl	$0, %eax
  400156: 48 85 c0                     	testq	%rax, %rax
  400159: 48 89 e5                     	movq	%rsp, %rbp
  40015c: 74 0f                        	je	0x40016d <.text+0x6d>
  40015e: be 20 25 51 00               	movl	$5317920, %esi          # imm = 0x512520
  400163: bf c8 1c 41 00               	movl	$4267208, %edi          # imm = 0x411CC8
  400168: e8 93 fe bf ff               	callq	0x0
  40016d: 48 83 3d ab 1e 11 00 00      	cmpq	$0, 1121963(%rip)       # 0x512020
  400175: 74 19                        	je	0x400190 <.text+0x90>
  400177: b8 00 00 00 00               	movl	$0, %eax
  40017c: 48 85 c0                     	testq	%rax, %rax
  40017f: 74 0f                        	je	0x400190 <.text+0x90>
  400181: bf 20 20 51 00               	movl	$5316640, %edi          # imm = 0x512020
  400186: 49 89 c3                     	movq	%rax, %r11
  400189: c9                           	leave
  40018a: 41 ff e3                     	jmpq	*%r11
  40018d: 66 66 90                     	nop
  400190: c9                           	leave
  400191: c3                           	retq
  400192: 90                           	nop
  400193: 90                           	nop
  400194: 31 ed                        	xorl	%ebp, %ebp
  400196: 49 89 d1                     	movq	%rdx, %r9
  400199: 5e                           	popq	%rsi
  40019a: 48 89 e2                     	movq	%rsp, %rdx
  40019d: 48 83 e4 f0                  	andq	$-16, %rsp
  4001a1: 50                           	pushq	%rax
  4001a2: 54                           	pushq	%rsp
  4001a3: 48 c7 c7 eb 42 40 00         	movq	$4211435, %rdi          # imm = 0x4042EB
  4001aa: 48 c7 c1 e8 00 40 00         	movq	$4194536, %rcx          # imm = 0x4000E8
  4001b1: 49 c7 c0 e6 fb 40 00         	movq	$4258790, %r8           # imm = 0x40FBE6
  4001b8: e8 01 b7 00 00               	callq	0x40b8be <.text+0xb7be>
  4001bd: f4                           	hlt
  4001be: 45 31 c0                     	xorl	%r8d, %r8d
  4001c1: eb 16                        	jmp	0x4001d9 <.text+0xd9>
  4001c3: 8a 46 08                     	movb	8(%rsi), %al
  4001c6: 49 89 f1                     	movq	%rsi, %r9
  4001c9: 48 83 c6 10                  	addq	$16, %rsi
  4001cd: 38 d0                        	cmpb	%dl, %al
  4001cf: 75 05                        	jne	0x4001d6 <.text+0xd6>
  4001d1: 49 8b 09                     	movq	(%r9), %rcx
  4001d4: eb 0c                        	jmp	0x4001e2 <.text+0xe2>
  4001d6: 41 ff c0                     	incl	%r8d
  4001d9: 40 0f b6 c7                  	movzbl	%dil, %eax
  4001dd: 41 39 c0                     	cmpl	%eax, %r8d
  4001e0: 7c e1                        	jl	0x4001c3 <.text+0xc3>
  4001e2: 48 89 c8                     	movq	%rcx, %rax
  4001e5: c3                           	retq
  4001e6: 41 55                        	pushq	%r13
  4001e8: 41 89 f5                     	movl	%esi, %r13d
  4001eb: 41 54                        	pushq	%r12
  4001ed: 45 31 e4                     	xorl	%r12d, %r12d
  4001f0: 55                           	pushq	%rbp
  4001f1: 48 89 fd                     	movq	%rdi, %rbp
  4001f4: 53                           	pushq	%rbx
  4001f5: 48 89 fb                     	movq	%rdi, %rbx
  4001f8: 48 83 ec 08                  	subq	$8, %rsp
  4001fc: 48 85 ff                     	testq	%rdi, %rdi
  4001ff: 75 16                        	jne	0x400217 <.text+0x117>
  400201: eb 28                        	jmp	0x40022b <.text+0x12b>
  400203: 48 8b 3b                     	movq	(%rbx), %rdi
  400206: 48 85 ff                     	testq	%rdi, %rdi
  400209: 74 05                        	je	0x400210 <.text+0x110>
  40020b: e8 03 aa 00 00               	callq	0x40ac13 <.text+0xab13>
  400210: 41 ff c4                     	incl	%r12d
  400213: 48 83 c3 10                  	addq	$16, %rbx
  400217: 45 39 ec                     	cmpl	%r13d, %r12d
  40021a: 7c e7                        	jl	0x400203 <.text+0x103>
  40021c: 5a                           	popq	%rdx
  40021d: 5b                           	popq	%rbx
  40021e: 48 89 ef                     	movq	%rbp, %rdi
  400221: 5d                           	popq	%rbp
  400222: 41 5c                        	popq	%r12
  400224: 41 5d                        	popq	%r13
  400226: e9 e8 a9 00 00               	jmp	0x40ac13 <.text+0xab13>
  40022b: 58                           	popq	%rax
  40022c: 5b                           	popq	%rbx
  40022d: 5d                           	popq	%rbp
  40022e: 41 5c                        	popq	%r12
  400230: 41 5d                        	popq	%r13
  400232: c3                           	retq
  400233: 53                           	pushq	%rbx
  400234: 40 0f b6 ff                  	movzbl	%dil, %edi
  400238: 89 cb                        	movl	%ecx, %ebx
  40023a: 0f b6 d2                     	movzbl	%dl, %edx
  40023d: 31 c9                        	xorl	%ecx, %ecx
  40023f: e8 7a ff ff ff               	callq	0x4001be <.text+0xbe>
  400244: 48 85 c0                     	testq	%rax, %rax
  400247: 48 89 c7                     	movq	%rax, %rdi
  40024a: 74 06                        	je	0x400252 <.text+0x152>
  40024c: 5b                           	popq	%rbx
  40024d: e9 ce 91 00 00               	jmp	0x409420 <.text+0x9320>
  400252: 89 d8                        	movl	%ebx, %eax
  400254: 5b                           	popq	%rbx
  400255: c3                           	retq
  400256: 53                           	pushq	%rbx
  400257: 40 0f b6 ff                  	movzbl	%dil, %edi
  40025b: 89 cb                        	movl	%ecx, %ebx
  40025d: 0f b6 d2                     	movzbl	%dl, %edx
  400260: 31 c9                        	xorl	%ecx, %ecx
  400262: e8 57 ff ff ff               	callq	0x4001be <.text+0xbe>
  400267: 48 85 c0                     	testq	%rax, %rax
  40026a: 48 89 c7                     	movq	%rax, %rdi
  40026d: 74 0d                        	je	0x40027c <.text+0x17c>
  40026f: 5b                           	popq	%rbx
  400270: be 0a 00 00 00               	movl	$10, %esi
  400275: 31 c0                        	xorl	%eax, %eax
  400277: e9 1b 56 00 00               	jmp	0x405897 <.text+0x5797>
  40027c: 89 d8                        	movl	%ebx, %eax
  40027e: 5b                           	popq	%rbx
  40027f: c3                           	retq

--- Symbol Table (first 50 entries) ---

/home/analyst/ir-alalysis/samples/malware/aa1065d40b7d684f439ac17e97f552bf229667afbf3507546206774c2df96665.elf:	file format elf64-x86-64

SYMBOL TABLE:

NOTE: For true binary-to-LLVM IR lifting, consider using:
  - mcsema: https://github.com/lifting-bits/mcsema
  - remill: https://github.com/lifting-bits/remill
  - rellic: https://github.com/lifting-bits/rellic

==========================================
LLVM analysis completed successfully
==========================================
LLVM analysis: SUCCESS
	Command being timed: "/home/analyst/ir-alalysis/scripts/analyze_llvm.sh /home/analyst/ir-alalysis/samples/malware/aa1065d40b7d684f439ac17e97f552bf229667afbf3507546206774c2df96665.elf"
	User time (seconds): 0.02
	System time (seconds): 0.07
	Percent of CPU this job got: 92%
	Elapsed (wall clock) time (h:mm:ss or m:ss): 0:00.10
	Average shared text size (kbytes): 0
	Average unshared data size (kbytes): 0
	Average stack size (kbytes): 0
	Average total size (kbytes): 0
	Maximum resident set size (kbytes): 51840
	Average resident set size (kbytes): 0
	Major (requiring I/O) page faults: 0
	Minor (reclaiming a frame) page faults: 9982
	Voluntary context switches: 34
	Involuntary context switches: 98
	Swaps: 0
	File system inputs: 0
	File system outputs: 16
	Socket messages sent: 0
	Socket messages received: 0
	Signals delivered: 0
	Page size (bytes): 4096
	Exit status: 0

Completed: aa1065d40b7d684f439ac17e97f552bf229667afbf3507546206774c2df96665.elf

========================================
Processing sample 37: b47507522532844a7828ff33455702528c966f52b44e87ae7d664cc93127aa0d.elf
========================================

--- Ghidra P-code Analysis ---

Ghidra analysis: SUCCESS
==========================================
Ghidra Headless Analysis
==========================================
Binary:  /home/analyst/ir-alalysis/samples/malware/b47507522532844a7828ff33455702528c966f52b44e87ae7d664cc93127aa0d.elf
Project: ghidra_analysis_b47507522532844a7828ff33455702528c966f52b44e87ae7d664cc93127aa0d.elf_20251025_203122
Location: ./ghidra_projects
==========================================
INFO  Using log config file: jar:file:/home/analyst/ghidra/Ghidra/Framework/Generic/lib/Generic.jar!/generic.log4j.xml (LoggingInitialization)  
INFO  Using log file: /home/analyst/.config/ghidra/ghidra_11.4.2_PUBLIC/application.log (LoggingInitialization)  
INFO  Loading user preferences: /home/analyst/.config/ghidra/ghidra_11.4.2_PUBLIC/preferences (Preferences)  
INFO  Searching for classes... (ClassSearcher)  
INFO  Class search complete (1003 ms) (ClassSearcher)  
INFO  Initializing SSL Context (SSLContextInitializer)  
INFO  Initializing Random Number Generator... (SecureRandomFactory)  
INFO  Random Number Generator initialization complete: NativePRNGNonBlocking (SecureRandomFactory)  
INFO  Trust manager disabled, cacerts have not been set (ApplicationTrustManagerFactory)  
INFO  Headless startup complete (3336 ms) (AnalyzeHeadless)  
INFO  Class searcher loaded 58 extension points (18 false positives) (ClassSearcher)  
INFO  HEADLESS Script Paths:
    /home/analyst/ghidra/Ghidra/Features/GnuDemangler/ghidra_scripts
    /home/analyst/ghidra/Ghidra/Features/BytePatterns/ghidra_scripts
    /home/analyst/ghidra/Ghidra/Features/SystemEmulation/ghidra_scripts
    /home/analyst/ghidra/Ghidra/Processors/DATA/ghidra_scripts
    /home/analyst/ghidra/Ghidra/Features/PyGhidra/ghidra_scripts
    /home/analyst/ghidra/Ghidra/Features/MicrosoftCodeAnalyzer/ghidra_scripts
    /home/analyst/ghidra/Ghidra/Features/Base/ghidra_scripts
    /home/analyst/ghidra/Ghidra/Features/Jython/ghidra_scripts
    /home/analyst/ghidra/Ghidra/Features/VersionTracking/ghidra_scripts
    /home/analyst/ghidra/Ghidra/Features/PDB/ghidra_scripts
    /home/analyst/ghidra/Ghidra/Processors/Atmel/ghidra_scripts
    /home/analyst/ghidra/Ghidra/Debug/Debugger-rmi-trace/ghidra_scripts
    /home/analyst/ghidra/Ghidra/Features/FileFormats/ghidra_scripts
    /home/analyst/ghidra/Ghidra/Processors/JVM/ghidra_scripts
    /home/analyst/ghidra/Ghidra/Debug/Debugger/ghidra_scripts
    /home/analyst/ghidra/Ghidra/Processors/PIC/ghidra_scripts
    /home/analyst/ghidra/Ghidra/Features/WildcardAssembler/ghidra_scripts
    /home/analyst/ghidra/Ghidra/Processors/8051/ghidra_scripts
    /home/analyst/ghidra/Ghidra/Features/Decompiler/ghidra_scripts
    /home/analyst/ghidra/Ghidra/Features/DecompilerDependent/ghidra_scripts
    /home/analyst/ghidra/Ghidra/Features/FunctionID/ghidra_scripts
    /home/analyst/ghidra/Ghidra/Features/SwiftDemangler/ghidra_scripts
    /home/analyst/ghidra/Ghidra/Features/BSim/ghidra_scripts (HeadlessAnalyzer)  
INFO  HEADLESS: execution starts (HeadlessAnalyzer)  
INFO  Creating temporary project: /home/analyst/ir-alalysis/./ghidra_projects/ghidra_analysis_b47507522532844a7828ff33455702528c966f52b44e87ae7d664cc93127aa0d.elf_20251025_203122 (HeadlessAnalyzer)  
INFO  Creating project: /home/analyst/ir-alalysis/./ghidra_projects/ghidra_analysis_b47507522532844a7828ff33455702528c966f52b44e87ae7d664cc93127aa0d.elf_20251025_203122 (DefaultProject)  
INFO  REPORT: Processing input files:  (HeadlessAnalyzer)  
INFO       project: /home/analyst/ir-alalysis/./ghidra_projects/ghidra_analysis_b47507522532844a7828ff33455702528c966f52b44e87ae7d664cc93127aa0d.elf_20251025_203122 (HeadlessAnalyzer)  
INFO  IMPORTING: file:///home/analyst/ir-alalysis/samples/malware/b47507522532844a7828ff33455702528c966f52b44e87ae7d664cc93127aa0d.elf (HeadlessAnalyzer)  
INFO  Using Loader: Executable and Linking Format (ELF) (AutoImporter)  
INFO  Using Language/Compiler: ARM:LE:32:v8:default (AutoImporter)  
INFO  Using Library Search Path: [., /bin, /lib, /lib64, /lib/x86_64-linux-gnu, /lib/aarch64-linux-gnu, /usr/bin, /usr/lib, /usr/X11R6/bin, /usr/X11R6/lib, /usr/java/packages/lib, /usr/lib/x86_64-linux-gnu/jni, /usr/lib/x86_64-linux-gnu, /usr/lib/jni] (AutoImporter)  
INFO  Additional info:
Loading file:///home/analyst/ir-alalysis/samples/malware/b47507522532844a7828ff33455702528c966f52b44e87ae7d664cc93127aa0d.elf?MD5=e906573025851daa7e44856382d800a9...
Skipping zero-length segment [1,Loadable segment] at address ram:00029a70
------------------------------------------------

 (AutoImporter)  
INFO  IMPORTING: Loaded 0 additional files (HeadlessAnalyzer)  
INFO  ANALYZING all memory and code: file:///home/analyst/ir-alalysis/samples/malware/b47507522532844a7828ff33455702528c966f52b44e87ae7d664cc93127aa0d.elf (HeadlessAnalyzer)  
ERROR REPORT: Analysis timed out at 0 seconds. Processing not completed for file: file:///home/analyst/ir-alalysis/samples/malware/b47507522532844a7828ff33455702528c966f52b44e87ae7d664cc93127aa0d.elf (HeadlessAnalyzer)  
INFO  SCRIPT: /home/analyst/ir-alalysis/scripts/get_cfg_stats.py (HeadlessAnalyzer)  
GHIDRA_STATS:Functions=1
GHIDRA_STATS:BasicBlocks=0
GHIDRA_STATS:TotalPcodeOps=0
INFO  ANALYZING changes made by post scripts: file:///home/analyst/ir-alalysis/samples/malware/b47507522532844a7828ff33455702528c966f52b44e87ae7d664cc93127aa0d.elf (HeadlessAnalyzer)  
INFO  REPORT: Post-analysis succeeded for file: file:///home/analyst/ir-alalysis/samples/malware/b47507522532844a7828ff33455702528c966f52b44e87ae7d664cc93127aa0d.elf (HeadlessAnalyzer)  
INFO  REPORT: Save succeeded for: /b47507522532844a7828ff33455702528c966f52b44e87ae7d664cc93127aa0d.elf (ghidra_analysis_b47507522532844a7828ff33455702528c966f52b44e87ae7d664cc93127aa0d.elf_20251025_203122:/b47507522532844a7828ff33455702528c966f52b44e87ae7d664cc93127aa0d.elf) (HeadlessAnalyzer)  
INFO  REPORT: Import succeeded (HeadlessAnalyzer)  
==========================================
Ghidra analysis completed successfully
==========================================

Ghidra CFG Stats:
GHIDRA_STATS:Functions=1
GHIDRA_STATS:BasicBlocks=0
GHIDRA_STATS:TotalPcodeOps=0

Ghidra Performance:
	Elapsed (wall clock) time (h:mm:ss or m:ss): 0:15.41
	Maximum resident set size (kbytes): 632268

--- angr VEX IR Analysis ---

angr analysis: SUCCESS
==================================================
angr VEX IR Analysis
==================================================
Binary: /home/analyst/ir-alalysis/samples/malware/b47507522532844a7828ff33455702528c966f52b44e87ae7d664cc93127aa0d.elf
==================================================
Loading binary with angr...
Architecture: ARMEL
Entry point: 0x113f8
Binary base address: 0x8000

Generating CFG with angr...
Functions discovered: 359
Basic blocks (CFG nodes): 597
CFG edges: 377

Counting VEX IR statements...
Total VEX statements: 19729

--- angr CFG & IR Stats ---
ANGR_STATS:Functions=359
ANGR_STATS:Nodes=597
ANGR_STATS:Edges=377
ANGR_STATS:TotalVexStatements=19729
---------------------------

Sample functions (first 10):
  - sub_8003 @ 0x8003
  - sub_808c @ 0x808c
  - sub_809c @ 0x809c
  - sub_80c0 @ 0x80c0
  - sub_80c8 @ 0x80c8
  - sub_80d2 @ 0x80d2
  - sub_80dc @ 0x80dc
  - sub_80e9 @ 0x80e9
  - sub_80f2 @ 0x80f2
  - sub_80f8 @ 0x80f8
==================================================
angr analysis completed successfully
==================================================

angr CFG Stats:
ANGR_STATS:Functions=359
ANGR_STATS:Nodes=597
ANGR_STATS:Edges=377
ANGR_STATS:TotalVexStatements=19729

angr Performance:
	Elapsed (wall clock) time (h:mm:ss or m:ss): 0:08.00
	Maximum resident set size (kbytes): 141024

--- LLVM IR Analysis ---

==========================================
LLVM IR Analysis
==========================================
Binary:  /home/analyst/ir-alalysis/samples/malware/b47507522532844a7828ff33455702528c966f52b44e87ae7d664cc93127aa0d.elf
==========================================

Detected native binary (not LLVM bitcode)
Performing LLVM-based binary analysis...

--- Binary Information ---

/home/analyst/ir-alalysis/samples/malware/b47507522532844a7828ff33455702528c966f52b44e87ae7d664cc93127aa0d.elf:	file format elf32-littlearm

Sections:
Idx Name          Size     VMA      Type

--- Disassembly (first 100 instructions) ---

/home/analyst/ir-alalysis/samples/malware/b47507522532844a7828ff33455702528c966f52b44e87ae7d664cc93127aa0d.elf:	file format elf32-littlearm

--- Symbol Table (first 50 entries) ---

/home/analyst/ir-alalysis/samples/malware/b47507522532844a7828ff33455702528c966f52b44e87ae7d664cc93127aa0d.elf:	file format elf32-littlearm

SYMBOL TABLE:

NOTE: For true binary-to-LLVM IR lifting, consider using:
  - mcsema: https://github.com/lifting-bits/mcsema
  - remill: https://github.com/lifting-bits/remill
  - rellic: https://github.com/lifting-bits/rellic

==========================================
LLVM analysis completed successfully
==========================================
LLVM analysis: SUCCESS
	Command being timed: "/home/analyst/ir-alalysis/scripts/analyze_llvm.sh /home/analyst/ir-alalysis/samples/malware/b47507522532844a7828ff33455702528c966f52b44e87ae7d664cc93127aa0d.elf"
	User time (seconds): 0.03
	System time (seconds): 0.07
	Percent of CPU this job got: 97%
	Elapsed (wall clock) time (h:mm:ss or m:ss): 0:00.10
	Average shared text size (kbytes): 0
	Average unshared data size (kbytes): 0
	Average stack size (kbytes): 0
	Average total size (kbytes): 0
	Maximum resident set size (kbytes): 51072
	Average resident set size (kbytes): 0
	Major (requiring I/O) page faults: 0
	Minor (reclaiming a frame) page faults: 9935
	Voluntary context switches: 17
	Involuntary context switches: 66
	Swaps: 0
	File system inputs: 0
	File system outputs: 8
	Socket messages sent: 0
	Socket messages received: 0
	Signals delivered: 0
	Page size (bytes): 4096
	Exit status: 0

Completed: b47507522532844a7828ff33455702528c966f52b44e87ae7d664cc93127aa0d.elf

========================================
Processing sample 38: b662d97f03013459254b40e5428948d726b6d1406d9639bd553c7c0015bac797.elf
========================================

--- Ghidra P-code Analysis ---

Ghidra analysis: SUCCESS
==========================================
Ghidra Headless Analysis
==========================================
Binary:  /home/analyst/ir-alalysis/samples/malware/b662d97f03013459254b40e5428948d726b6d1406d9639bd553c7c0015bac797.elf
Project: ghidra_analysis_b662d97f03013459254b40e5428948d726b6d1406d9639bd553c7c0015bac797.elf_20251025_203145
Location: ./ghidra_projects
==========================================
INFO  Using log config file: jar:file:/home/analyst/ghidra/Ghidra/Framework/Generic/lib/Generic.jar!/generic.log4j.xml (LoggingInitialization)  
INFO  Using log file: /home/analyst/.config/ghidra/ghidra_11.4.2_PUBLIC/application.log (LoggingInitialization)  
INFO  Loading user preferences: /home/analyst/.config/ghidra/ghidra_11.4.2_PUBLIC/preferences (Preferences)  
INFO  Searching for classes... (ClassSearcher)  
INFO  Class search complete (1143 ms) (ClassSearcher)  
INFO  Initializing SSL Context (SSLContextInitializer)  
INFO  Initializing Random Number Generator... (SecureRandomFactory)  
INFO  Random Number Generator initialization complete: NativePRNGNonBlocking (SecureRandomFactory)  
INFO  Trust manager disabled, cacerts have not been set (ApplicationTrustManagerFactory)  
INFO  Headless startup complete (4070 ms) (AnalyzeHeadless)  
INFO  Class searcher loaded 58 extension points (18 false positives) (ClassSearcher)  
INFO  HEADLESS Script Paths:
    /home/analyst/ghidra/Ghidra/Features/GnuDemangler/ghidra_scripts
    /home/analyst/ghidra/Ghidra/Features/BytePatterns/ghidra_scripts
    /home/analyst/ghidra/Ghidra/Features/SystemEmulation/ghidra_scripts
    /home/analyst/ghidra/Ghidra/Processors/DATA/ghidra_scripts
    /home/analyst/ghidra/Ghidra/Features/PyGhidra/ghidra_scripts
    /home/analyst/ghidra/Ghidra/Features/MicrosoftCodeAnalyzer/ghidra_scripts
    /home/analyst/ghidra/Ghidra/Features/Base/ghidra_scripts
    /home/analyst/ghidra/Ghidra/Features/Jython/ghidra_scripts
    /home/analyst/ghidra/Ghidra/Features/VersionTracking/ghidra_scripts
    /home/analyst/ghidra/Ghidra/Features/PDB/ghidra_scripts
    /home/analyst/ghidra/Ghidra/Processors/Atmel/ghidra_scripts
    /home/analyst/ghidra/Ghidra/Debug/Debugger-rmi-trace/ghidra_scripts
    /home/analyst/ghidra/Ghidra/Features/FileFormats/ghidra_scripts
    /home/analyst/ghidra/Ghidra/Processors/JVM/ghidra_scripts
    /home/analyst/ghidra/Ghidra/Debug/Debugger/ghidra_scripts
    /home/analyst/ghidra/Ghidra/Processors/PIC/ghidra_scripts
    /home/analyst/ghidra/Ghidra/Features/WildcardAssembler/ghidra_scripts
    /home/analyst/ghidra/Ghidra/Processors/8051/ghidra_scripts
    /home/analyst/ghidra/Ghidra/Features/Decompiler/ghidra_scripts
    /home/analyst/ghidra/Ghidra/Features/DecompilerDependent/ghidra_scripts
    /home/analyst/ghidra/Ghidra/Features/FunctionID/ghidra_scripts
    /home/analyst/ghidra/Ghidra/Features/SwiftDemangler/ghidra_scripts
    /home/analyst/ghidra/Ghidra/Features/BSim/ghidra_scripts (HeadlessAnalyzer)  
INFO  HEADLESS: execution starts (HeadlessAnalyzer)  
INFO  Creating temporary project: /home/analyst/ir-alalysis/./ghidra_projects/ghidra_analysis_b662d97f03013459254b40e5428948d726b6d1406d9639bd553c7c0015bac797.elf_20251025_203145 (HeadlessAnalyzer)  
INFO  Creating project: /home/analyst/ir-alalysis/./ghidra_projects/ghidra_analysis_b662d97f03013459254b40e5428948d726b6d1406d9639bd553c7c0015bac797.elf_20251025_203145 (DefaultProject)  
INFO  REPORT: Processing input files:  (HeadlessAnalyzer)  
INFO       project: /home/analyst/ir-alalysis/./ghidra_projects/ghidra_analysis_b662d97f03013459254b40e5428948d726b6d1406d9639bd553c7c0015bac797.elf_20251025_203145 (HeadlessAnalyzer)  
INFO  IMPORTING: file:///home/analyst/ir-alalysis/samples/malware/b662d97f03013459254b40e5428948d726b6d1406d9639bd553c7c0015bac797.elf (HeadlessAnalyzer)  
INFO  Using Loader: Executable and Linking Format (ELF) (AutoImporter)  
INFO  Using Language/Compiler: x86:LE:32:default:gcc (AutoImporter)  
INFO  Using Library Search Path: [., /bin, /lib, /lib64, /lib/x86_64-linux-gnu, /lib/aarch64-linux-gnu, /usr/bin, /usr/lib, /usr/X11R6/bin, /usr/X11R6/lib, /usr/java/packages/lib, /usr/lib/x86_64-linux-gnu/jni, /usr/lib/x86_64-linux-gnu, /usr/lib/jni] (AutoImporter)  
INFO  Additional info:
Loading file:///home/analyst/ir-alalysis/samples/malware/b662d97f03013459254b40e5428948d726b6d1406d9639bd553c7c0015bac797.elf?MD5=899dce326d3fea6e2be67d65b7ebe381...
------------------------------------------------

 (AutoImporter)  
INFO  IMPORTING: Loaded 0 additional files (HeadlessAnalyzer)  
INFO  ANALYZING all memory and code: file:///home/analyst/ir-alalysis/samples/malware/b662d97f03013459254b40e5428948d726b6d1406d9639bd553c7c0015bac797.elf (HeadlessAnalyzer)  
ERROR REPORT: Analysis timed out at 0 seconds. Processing not completed for file: file:///home/analyst/ir-alalysis/samples/malware/b662d97f03013459254b40e5428948d726b6d1406d9639bd553c7c0015bac797.elf (HeadlessAnalyzer)  
INFO  SCRIPT: /home/analyst/ir-alalysis/scripts/get_cfg_stats.py (HeadlessAnalyzer)  
GHIDRA_STATS:Functions=251
GHIDRA_STATS:BasicBlocks=0
GHIDRA_STATS:TotalPcodeOps=0
INFO  ANALYZING changes made by post scripts: file:///home/analyst/ir-alalysis/samples/malware/b662d97f03013459254b40e5428948d726b6d1406d9639bd553c7c0015bac797.elf (HeadlessAnalyzer)  
INFO  REPORT: Post-analysis succeeded for file: file:///home/analyst/ir-alalysis/samples/malware/b662d97f03013459254b40e5428948d726b6d1406d9639bd553c7c0015bac797.elf (HeadlessAnalyzer)  
INFO  REPORT: Save succeeded for: /b662d97f03013459254b40e5428948d726b6d1406d9639bd553c7c0015bac797.elf (ghidra_analysis_b662d97f03013459254b40e5428948d726b6d1406d9639bd553c7c0015bac797.elf_20251025_203145:/b662d97f03013459254b40e5428948d726b6d1406d9639bd553c7c0015bac797.elf) (HeadlessAnalyzer)  
INFO  REPORT: Import succeeded (HeadlessAnalyzer)  
==========================================
Ghidra analysis completed successfully
==========================================

Ghidra CFG Stats:
GHIDRA_STATS:Functions=251
GHIDRA_STATS:BasicBlocks=0
GHIDRA_STATS:TotalPcodeOps=0

Ghidra Performance:
	Elapsed (wall clock) time (h:mm:ss or m:ss): 0:18.29
	Maximum resident set size (kbytes): 719704

--- angr VEX IR Analysis ---

angr analysis: SUCCESS
==================================================
angr VEX IR Analysis
==================================================
Binary: /home/analyst/ir-alalysis/samples/malware/b662d97f03013459254b40e5428948d726b6d1406d9639bd553c7c0015bac797.elf
==================================================
Loading binary with angr...
Architecture: X86
Entry point: 0x8048168
Binary base address: 0x8048000

Generating CFG with angr...
Functions discovered: 458
Basic blocks (CFG nodes): 4177
CFG edges: 8324

Counting VEX IR statements...
Total VEX statements: 100702

--- angr CFG & IR Stats ---
ANGR_STATS:Functions=458
ANGR_STATS:Nodes=4177
ANGR_STATS:Edges=8324
ANGR_STATS:TotalVexStatements=100702
---------------------------

Sample functions (first 10):
  - _init @ 0x8048094
  - __get_pc_thunk_bx @ 0x80480b0
  - sub_80480b4 @ 0x80480b4
  - __do_global_dtors_aux @ 0x80480c0
  - sub_8048104 @ 0x8048104
  - frame_dummy @ 0x8048110
  - sub_8048167 @ 0x8048167
  - _start @ 0x8048168
  - sub_8048189 @ 0x8048189
  - sub_804818a @ 0x804818a
==================================================
angr analysis completed successfully
==================================================

angr CFG Stats:
ANGR_STATS:Functions=458
ANGR_STATS:Nodes=4177
ANGR_STATS:Edges=8324
ANGR_STATS:TotalVexStatements=100702

angr Performance:
	Elapsed (wall clock) time (h:mm:ss or m:ss): 0:05.68
	Maximum resident set size (kbytes): 169372

--- LLVM IR Analysis ---

==========================================
LLVM IR Analysis
==========================================
Binary:  /home/analyst/ir-alalysis/samples/malware/b662d97f03013459254b40e5428948d726b6d1406d9639bd553c7c0015bac797.elf
==========================================

Detected native binary (not LLVM bitcode)
Performing LLVM-based binary analysis...

--- Binary Information ---

/home/analyst/ir-alalysis/samples/malware/b662d97f03013459254b40e5428948d726b6d1406d9639bd553c7c0015bac797.elf:	file format elf32-i386

Sections:
Idx Name          Size     VMA      Type
  0               00000000 00000000 
  1 .init         0000001c 08048094 TEXT
  2 .text         0000e6b4 080480b0 TEXT
  3 .fini         00000017 08056764 TEXT
  4 .rodata       000037e0 08056780 DATA
  5 .eh_frame     00000004 08059f60 DATA
  6 .ctors        00000008 0805a000 DATA
  7 .dtors        00000008 0805a008 DATA
  8 .jcr          00000004 0805a010 DATA
  9 .got.plt      0000000c 0805a014 DATA
 10 .data         00000340 0805a020 DATA
 11 .bss          000066e4 0805a360 BSS
 12 .comment      00000b9a 00000000 
 13 .shstrtab     0000006f 00000000 
 14 .symtab       00002e60 00000000 
 15 .strtab       000022c0 00000000 

--- Disassembly (first 100 instructions) ---

/home/analyst/ir-alalysis/samples/malware/b662d97f03013459254b40e5428948d726b6d1406d9639bd553c7c0015bac797.elf:	file format elf32-i386

Disassembly of section .init:

08048094 <_init>:
 8048094: 55                           	pushl	%ebp
 8048095: 89 e5                        	movl	%esp, %ebp
 8048097: 53                           	pushl	%ebx
 8048098: e8 13 00 00 00               	calll	0x80480b0 <__get_pc_thunk_bx>
 804809d: 81 c3 77 1f 01 00            	addl	$73591, %ebx            # imm = 0x11F77
 80480a3: e8 68 00 00 00               	calll	0x8048110 <frame_dummy>
 80480a8: e8 83 e6 00 00               	calll	0x8056730 <__do_global_ctors_aux>
 80480ad: 5b                           	popl	%ebx
 80480ae: 5d                           	popl	%ebp
 80480af: c3                           	retl

Disassembly of section .text:

080480b0 <__get_pc_thunk_bx>:
 80480b0: 8b 1c 24                     	movl	(%esp), %ebx
 80480b3: c3                           	retl
 80480b4: 90                           	nop
 80480b5: 90                           	nop
 80480b6: 90                           	nop
 80480b7: 90                           	nop
 80480b8: 90                           	nop
 80480b9: 90                           	nop
 80480ba: 90                           	nop
 80480bb: 90                           	nop
 80480bc: 90                           	nop
 80480bd: 90                           	nop
 80480be: 90                           	nop
 80480bf: 90                           	nop

080480c0 <__do_global_dtors_aux>:
 80480c0: 55                           	pushl	%ebp
 80480c1: 89 e5                        	movl	%esp, %ebp
 80480c3: 83 ec 08                     	subl	$8, %esp
 80480c6: 80 3d 60 a3 05 08 00         	cmpb	$0, 134587232
 80480cd: 74 0c                        	je	0x80480db <__do_global_dtors_aux+0x1b>
 80480cf: eb 31                        	jmp	0x8048102 <__do_global_dtors_aux+0x42>
 80480d1: 83 c0 04                     	addl	$4, %eax
 80480d4: a3 24 a0 05 08               	movl	%eax, 134586404
 80480d9: ff d2                        	calll	*%edx
 80480db: a1 24 a0 05 08               	movl	134586404, %eax
 80480e0: 8b 10                        	movl	(%eax), %edx
 80480e2: 85 d2                        	testl	%edx, %edx
 80480e4: 75 eb                        	jne	0x80480d1 <__do_global_dtors_aux+0x11>
 80480e6: b8 00 00 00 00               	movl	$0, %eax
 80480eb: 85 c0                        	testl	%eax, %eax
 80480ed: 74 0c                        	je	0x80480fb <__do_global_dtors_aux+0x3b>
 80480ef: c7 04 24 60 9f 05 08         	movl	$134586208, (%esp)      # imm = 0x8059F60
 80480f6: e8 05 7f fb f7               	calll	0x0 <write.c>
 80480fb: c6 05 60 a3 05 08 01         	movb	$1, 134587232
 8048102: c9                           	leave
 8048103: c3                           	retl
 8048104: 8d b6 00 00 00 00            	leal	(%esi), %esi
 804810a: 8d bf 00 00 00 00            	leal	(%edi), %edi

08048110 <frame_dummy>:
 8048110: 55                           	pushl	%ebp
 8048111: b8 00 00 00 00               	movl	$0, %eax
 8048116: 89 e5                        	movl	%esp, %ebp
 8048118: 83 ec 18                     	subl	$24, %esp
 804811b: e8 00 00 00 00               	calll	0x8048120 <frame_dummy+0x10>
 8048120: 5a                           	popl	%edx
 8048121: 81 c2 f4 1e 01 00            	addl	$73460, %edx            # imm = 0x11EF4
 8048127: 85 c0                        	testl	%eax, %eax
 8048129: 74 1f                        	je	0x804814a <frame_dummy+0x3a>
 804812b: 89 54 24 0c                  	movl	%edx, 12(%esp)
 804812f: 31 c9                        	xorl	%ecx, %ecx
 8048131: ba 64 a3 05 08               	movl	$134587236, %edx        # imm = 0x805A364
 8048136: 89 4c 24 08                  	movl	%ecx, 8(%esp)
 804813a: 89 54 24 04                  	movl	%edx, 4(%esp)
 804813e: c7 04 24 60 9f 05 08         	movl	$134586208, (%esp)      # imm = 0x8059F60
 8048145: e8 b6 7e fb f7               	calll	0x0 <write.c>
 804814a: a1 10 a0 05 08               	movl	134586384, %eax
 804814f: 85 c0                        	testl	%eax, %eax
 8048151: 74 12                        	je	0x8048165 <frame_dummy+0x55>
 8048153: b8 00 00 00 00               	movl	$0, %eax
 8048158: 85 c0                        	testl	%eax, %eax
 804815a: 74 09                        	je	0x8048165 <frame_dummy+0x55>
 804815c: c7 04 24 10 a0 05 08         	movl	$134586384, (%esp)      # imm = 0x805A010
 8048163: ff d0                        	calll	*%eax
 8048165: c9                           	leave
 8048166: c3                           	retl
 8048167: 90                           	nop

08048168 <_start>:
 8048168: 31 ed                        	xorl	%ebp, %ebp
 804816a: 5e                           	popl	%esi
 804816b: 89 e1                        	movl	%esp, %ecx
 804816d: 83 e4 f0                     	andl	$-16, %esp
 8048170: 50                           	pushl	%eax
 8048171: 54                           	pushl	%esp
 8048172: 52                           	pushl	%edx
 8048173: 68 64 67 05 08               	pushl	$134571876              # imm = 0x8056764
 8048178: 68 94 80 04 08               	pushl	$134512788              # imm = 0x8048094
 804817d: 51                           	pushl	%ecx
 804817e: 56                           	pushl	%esi
 804817f: 68 72 f6 04 08               	pushl	$134542962              # imm = 0x804F672
 8048184: e8 ee b0 00 00               	calll	0x8053277 <__uClibc_main>
 8048189: f4                           	hlt
 804818a: 90                           	nop
 804818b: 90                           	nop

0804818c <init_rand>:
 804818c: 55                           	pushl	%ebp
 804818d: 89 e5                        	movl	%esp, %ebp
 804818f: 83 ec 10                     	subl	$16, %esp
 8048192: 8b 45 08                     	movl	8(%ebp), %eax
 8048195: a3 a0 a3 05 08               	movl	%eax, 134587296
 804819a: 8b 45 08                     	movl	8(%ebp), %eax
 804819d: 2d 47 86 c8 61               	subl	$1640531527, %eax       # imm = 0x61C88647
 80481a2: a3 a4 a3 05 08               	movl	%eax, 134587300
 80481a7: 8b 45 08                     	movl	8(%ebp), %eax
 80481aa: 05 72 f3 6e 3c               	addl	$1013904242, %eax       # imm = 0x3C6EF372
 80481af: a3 a8 a3 05 08               	movl	%eax, 134587304
 80481b4: c7 45 fc 03 00 00 00         	movl	$3, -4(%ebp)
 80481bb: eb 33                        	jmp	0x80481f0 <init_rand+0x64>
 80481bd: 8b 4d fc                     	movl	-4(%ebp), %ecx
 80481c0: 8b 45 fc                     	movl	-4(%ebp), %eax
 80481c3: 83 e8 03                     	subl	$3, %eax
 80481c6: 8b 14 85 a0 a3 05 08         	movl	134587296(,%eax,4), %edx
 80481cd: 8b 45 fc                     	movl	-4(%ebp), %eax
 80481d0: 83 e8 02                     	subl	$2, %eax
 80481d3: 8b 04 85 a0 a3 05 08         	movl	134587296(,%eax,4), %eax
 80481da: 31 c2                        	xorl	%eax, %edx
 80481dc: 8b 45 fc                     	movl	-4(%ebp), %eax
 80481df: 31 d0                        	xorl	%edx, %eax
 80481e1: 35 b9 79 37 9e               	xorl	$2654435769, %eax       # imm = 0x9E3779B9
 80481e6: 89 04 8d a0 a3 05 08         	movl	%eax, 134587296(,%ecx,4)
 80481ed: ff 45 fc                     	incl	-4(%ebp)
 80481f0: 81 7d fc ff 0f 00 00         	cmpl	$4095, -4(%ebp)         # imm = 0xFFF
 80481f7: 7e c4                        	jle	0x80481bd <init_rand+0x31>
 80481f9: c9                           	leave
 80481fa: c3                           	retl

080481fb <rand_cmwc>:
 80481fb: 55                           	pushl	%ebp
 80481fc: 89 e5                        	movl	%esp, %ebp
 80481fe: 53                           	pushl	%ebx
 80481ff: 83 ec 24                     	subl	$36, %esp
 8048202: c7 45 e8 5e 49 00 00         	movl	$18782, -24(%ebp)       # imm = 0x495E
 8048209: c7 45 ec 00 00 00 00         	movl	$0, -20(%ebp)
 8048210: c7 45 f4 fe ff ff ff         	movl	$4294967294, -12(%ebp)  # imm = 0xFFFFFFFE
 8048217: a1 50 a0 05 08               	movl	134586448, %eax
 804821c: 40                           	incl	%eax
 804821d: 25 ff 0f 00 00               	andl	$4095, %eax             # imm = 0xFFF

--- Symbol Table (first 50 entries) ---

/home/analyst/ir-alalysis/samples/malware/b662d97f03013459254b40e5428948d726b6d1406d9639bd553c7c0015bac797.elf:	file format elf32-i386

SYMBOL TABLE:
08048094 l    d  .init	00000000 .init
080480b0 l    d  .text	00000000 .text
08056764 l    d  .fini	00000000 .fini
08056780 l    d  .rodata	00000000 .rodata
08059f60 l    d  .eh_frame	00000000 .eh_frame
0805a000 l    d  .ctors	00000000 .ctors
0805a008 l    d  .dtors	00000000 .dtors
0805a010 l    d  .jcr	00000000 .jcr
0805a014 l    d  .got.plt	00000000 .got.plt
0805a020 l    d  .data	00000000 .data
0805a360 l    d  .bss	00000000 .bss
00000000 l    d  .comment	00000000 .comment
00000000 l    d  .shstrtab	00000000 .shstrtab
00000000 l    d  .symtab	00000000 .symtab
00000000 l    d  .strtab	00000000 .strtab
00000000 l    df *ABS*	00000000 libc/sysdeps/linux/i386/crti.S
00000000 l    df *ABS*	00000000 crtstuff.c
0805a000 l     O .ctors	00000000 __CTOR_LIST__
0805a008 l     O .dtors	00000000 __DTOR_LIST__
08059f60 l     O .eh_frame	00000000 __EH_FRAME_BEGIN__
0805a010 l     O .jcr	00000000 __JCR_LIST__
0805a360 l     O .bss	00000001 completed.2429
0805a024 l     O .data	00000000 p.2427
080480c0 l     F .text	00000000 __do_global_dtors_aux
0805a364 l     O .bss	00000018 object.2482
08048110 l     F .text	00000000 frame_dummy
00000000 l    df *ABS*	00000000 crtstuff.c
0805a004 l     O .ctors	00000000 __CTOR_END__
0805a00c l     O .dtors	00000000 __DTOR_END__
08059f60 l     O .eh_frame	00000000 __FRAME_END__
0805a010 l     O .jcr	00000000 __JCR_END__
08056730 l     F .text	00000000 __do_global_ctors_aux
00000000 l    df *ABS*	00000000 initfini.c
00000000 l    df *ABS*	00000000 libc/sysdeps/linux/i386/crtn.S
00000000 l    df *ABS*	00000000 libc/sysdeps/linux/i386/crt1.S
00000000 l    df *ABS*	00000000 bot.c
0805a04c l     O .data	00000004 c
0805a3a0 l     O .bss	00004000 Q
0805a050 l     O .data	00000004 i.3754
08048366 l     F .text	00000042 printchar
080483a8 l     F .text	000000da prints
08048482 l     F .text	0000013f printi
080485c1 l     F .text	000002d2 print
0805e3a0 l     O .bss	00000004 fdopen_pids
080567c0 l     O .rodata	00000400 hextable
08056da0 l     O .rodata	00000090 C.96.4645
08056e40 l     O .rodata	00000090 C.100.4686
08056ee0 l     O .rodata	00000090 C.104.4726
08056f80 l     O .rodata	00000090 C.108.4766
08057020 l     O .rodata	00000090 C.112.4806
080570c0 l     O .rodata	00000090 C.116.4846

NOTE: For true binary-to-LLVM IR lifting, consider using:
  - mcsema: https://github.com/lifting-bits/mcsema
  - remill: https://github.com/lifting-bits/remill
  - rellic: https://github.com/lifting-bits/rellic

==========================================
LLVM analysis completed successfully
==========================================
LLVM analysis: SUCCESS
	Command being timed: "/home/analyst/ir-alalysis/scripts/analyze_llvm.sh /home/analyst/ir-alalysis/samples/malware/b662d97f03013459254b40e5428948d726b6d1406d9639bd553c7c0015bac797.elf"
	User time (seconds): 0.03
	System time (seconds): 0.06
	Percent of CPU this job got: 85%
	Elapsed (wall clock) time (h:mm:ss or m:ss): 0:00.11
	Average shared text size (kbytes): 0
	Average unshared data size (kbytes): 0
	Average stack size (kbytes): 0
	Average total size (kbytes): 0
	Maximum resident set size (kbytes): 51968
	Average resident set size (kbytes): 0
	Major (requiring I/O) page faults: 0
	Minor (reclaiming a frame) page faults: 10027
	Voluntary context switches: 155
	Involuntary context switches: 206
	Swaps: 0
	File system inputs: 0
	File system outputs: 24
	Socket messages sent: 0
	Socket messages received: 0
	Signals delivered: 0
	Page size (bytes): 4096
	Exit status: 0

Completed: b662d97f03013459254b40e5428948d726b6d1406d9639bd553c7c0015bac797.elf

========================================
Processing sample 39: b9d268f3ace4549e2dd92797b148ce3cece15baa3663c87d8ac6885fdb31a925.elf
========================================

--- Ghidra P-code Analysis ---

Ghidra analysis: SUCCESS
==========================================
Ghidra Headless Analysis
==========================================
Binary:  /home/analyst/ir-alalysis/samples/malware/b9d268f3ace4549e2dd92797b148ce3cece15baa3663c87d8ac6885fdb31a925.elf
Project: ghidra_analysis_b9d268f3ace4549e2dd92797b148ce3cece15baa3663c87d8ac6885fdb31a925.elf_20251025_203210
Location: ./ghidra_projects
==========================================
INFO  Using log config file: jar:file:/home/analyst/ghidra/Ghidra/Framework/Generic/lib/Generic.jar!/generic.log4j.xml (LoggingInitialization)  
INFO  Using log file: /home/analyst/.config/ghidra/ghidra_11.4.2_PUBLIC/application.log (LoggingInitialization)  
INFO  Loading user preferences: /home/analyst/.config/ghidra/ghidra_11.4.2_PUBLIC/preferences (Preferences)  
INFO  Searching for classes... (ClassSearcher)  
INFO  Class search complete (1251 ms) (ClassSearcher)  
INFO  Initializing SSL Context (SSLContextInitializer)  
INFO  Initializing Random Number Generator... (SecureRandomFactory)  
INFO  Random Number Generator initialization complete: NativePRNGNonBlocking (SecureRandomFactory)  
INFO  Trust manager disabled, cacerts have not been set (ApplicationTrustManagerFactory)  
INFO  Headless startup complete (4234 ms) (AnalyzeHeadless)  
INFO  Class searcher loaded 58 extension points (18 false positives) (ClassSearcher)  
INFO  HEADLESS Script Paths:
    /home/analyst/ghidra/Ghidra/Features/GnuDemangler/ghidra_scripts
    /home/analyst/ghidra/Ghidra/Features/BytePatterns/ghidra_scripts
    /home/analyst/ghidra/Ghidra/Features/SystemEmulation/ghidra_scripts
    /home/analyst/ghidra/Ghidra/Processors/DATA/ghidra_scripts
    /home/analyst/ghidra/Ghidra/Features/PyGhidra/ghidra_scripts
    /home/analyst/ghidra/Ghidra/Features/MicrosoftCodeAnalyzer/ghidra_scripts
    /home/analyst/ghidra/Ghidra/Features/Base/ghidra_scripts
    /home/analyst/ghidra/Ghidra/Features/Jython/ghidra_scripts
    /home/analyst/ghidra/Ghidra/Features/VersionTracking/ghidra_scripts
    /home/analyst/ghidra/Ghidra/Features/PDB/ghidra_scripts
    /home/analyst/ghidra/Ghidra/Processors/Atmel/ghidra_scripts
    /home/analyst/ghidra/Ghidra/Debug/Debugger-rmi-trace/ghidra_scripts
    /home/analyst/ghidra/Ghidra/Features/FileFormats/ghidra_scripts
    /home/analyst/ghidra/Ghidra/Processors/JVM/ghidra_scripts
    /home/analyst/ghidra/Ghidra/Debug/Debugger/ghidra_scripts
    /home/analyst/ghidra/Ghidra/Processors/PIC/ghidra_scripts
    /home/analyst/ghidra/Ghidra/Features/WildcardAssembler/ghidra_scripts
    /home/analyst/ghidra/Ghidra/Processors/8051/ghidra_scripts
    /home/analyst/ghidra/Ghidra/Features/Decompiler/ghidra_scripts
    /home/analyst/ghidra/Ghidra/Features/DecompilerDependent/ghidra_scripts
    /home/analyst/ghidra/Ghidra/Features/FunctionID/ghidra_scripts
    /home/analyst/ghidra/Ghidra/Features/SwiftDemangler/ghidra_scripts
    /home/analyst/ghidra/Ghidra/Features/BSim/ghidra_scripts (HeadlessAnalyzer)  
INFO  HEADLESS: execution starts (HeadlessAnalyzer)  
INFO  Creating temporary project: /home/analyst/ir-alalysis/./ghidra_projects/ghidra_analysis_b9d268f3ace4549e2dd92797b148ce3cece15baa3663c87d8ac6885fdb31a925.elf_20251025_203210 (HeadlessAnalyzer)  
INFO  Creating project: /home/analyst/ir-alalysis/./ghidra_projects/ghidra_analysis_b9d268f3ace4549e2dd92797b148ce3cece15baa3663c87d8ac6885fdb31a925.elf_20251025_203210 (DefaultProject)  
INFO  REPORT: Processing input files:  (HeadlessAnalyzer)  
INFO       project: /home/analyst/ir-alalysis/./ghidra_projects/ghidra_analysis_b9d268f3ace4549e2dd92797b148ce3cece15baa3663c87d8ac6885fdb31a925.elf_20251025_203210 (HeadlessAnalyzer)  
INFO  IMPORTING: file:///home/analyst/ir-alalysis/samples/malware/b9d268f3ace4549e2dd92797b148ce3cece15baa3663c87d8ac6885fdb31a925.elf (HeadlessAnalyzer)  
INFO  Using Loader: Executable and Linking Format (ELF) (AutoImporter)  
INFO  Using Language/Compiler: MIPS:BE:32:default:default (AutoImporter)  
INFO  Using Library Search Path: [., /bin, /lib, /lib64, /lib/x86_64-linux-gnu, /lib/aarch64-linux-gnu, /usr/bin, /usr/lib, /usr/X11R6/bin, /usr/X11R6/lib, /usr/java/packages/lib, /usr/lib/x86_64-linux-gnu/jni, /usr/lib/x86_64-linux-gnu, /usr/lib/jni] (AutoImporter)  
INFO  Additional info:
Loading file:///home/analyst/ir-alalysis/samples/malware/b9d268f3ace4549e2dd92797b148ce3cece15baa3663c87d8ac6885fdb31a925.elf?MD5=a9f19f08981037e35880af711784ef63...
Skipping section [.mdebug.abi32] with invalid size 0x0
------------------------------------------------

 (AutoImporter)  
INFO  IMPORTING: Loaded 0 additional files (HeadlessAnalyzer)  
INFO  ANALYZING all memory and code: file:///home/analyst/ir-alalysis/samples/malware/b9d268f3ace4549e2dd92797b148ce3cece15baa3663c87d8ac6885fdb31a925.elf (HeadlessAnalyzer)  
ERROR REPORT: Analysis timed out at 0 seconds. Processing not completed for file: file:///home/analyst/ir-alalysis/samples/malware/b9d268f3ace4549e2dd92797b148ce3cece15baa3663c87d8ac6885fdb31a925.elf (HeadlessAnalyzer)  
INFO  SCRIPT: /home/analyst/ir-alalysis/scripts/get_cfg_stats.py (HeadlessAnalyzer)  
GHIDRA_STATS:Functions=1
GHIDRA_STATS:BasicBlocks=0
GHIDRA_STATS:TotalPcodeOps=0
INFO  ANALYZING changes made by post scripts: file:///home/analyst/ir-alalysis/samples/malware/b9d268f3ace4549e2dd92797b148ce3cece15baa3663c87d8ac6885fdb31a925.elf (HeadlessAnalyzer)  
INFO  REPORT: Post-analysis succeeded for file: file:///home/analyst/ir-alalysis/samples/malware/b9d268f3ace4549e2dd92797b148ce3cece15baa3663c87d8ac6885fdb31a925.elf (HeadlessAnalyzer)  
INFO  REPORT: Save succeeded for: /b9d268f3ace4549e2dd92797b148ce3cece15baa3663c87d8ac6885fdb31a925.elf (ghidra_analysis_b9d268f3ace4549e2dd92797b148ce3cece15baa3663c87d8ac6885fdb31a925.elf_20251025_203210:/b9d268f3ace4549e2dd92797b148ce3cece15baa3663c87d8ac6885fdb31a925.elf) (HeadlessAnalyzer)  
INFO  REPORT: Import succeeded (HeadlessAnalyzer)  
==========================================
Ghidra analysis completed successfully
==========================================

Ghidra CFG Stats:
GHIDRA_STATS:Functions=1
GHIDRA_STATS:BasicBlocks=0
GHIDRA_STATS:TotalPcodeOps=0

Ghidra Performance:
	Elapsed (wall clock) time (h:mm:ss or m:ss): 0:18.98
	Maximum resident set size (kbytes): 803036

--- angr VEX IR Analysis ---

angr analysis: SUCCESS
==================================================
angr VEX IR Analysis
==================================================
Binary: /home/analyst/ir-alalysis/samples/malware/b9d268f3ace4549e2dd92797b148ce3cece15baa3663c87d8ac6885fdb31a925.elf
==================================================
Loading binary with angr...
Architecture: MIPS32
Entry point: 0x400260
Binary base address: 0x400000

Generating CFG with angr...
Functions discovered: 309
Basic blocks (CFG nodes): 4824
CFG edges: 9763

Counting VEX IR statements...
Total VEX statements: 97335

--- angr CFG & IR Stats ---
ANGR_STATS:Functions=309
ANGR_STATS:Nodes=4824
ANGR_STATS:Edges=9763
ANGR_STATS:TotalVexStatements=97335
---------------------------

Sample functions (first 10):
  - sub_400094 @ 0x400094
  - sub_4000b8 @ 0x4000b8
  - sub_4000e8 @ 0x4000e8
  - sub_400120 @ 0x400120
  - sub_4001dc @ 0x4001dc
  - _start @ 0x400260
  - sub_40026c @ 0x40026c
  - sub_4002d0 @ 0x4002d0
  - sub_400318 @ 0x400318
  - sub_4003c0 @ 0x4003c0
==================================================
angr analysis completed successfully
==================================================

angr CFG Stats:
ANGR_STATS:Functions=309
ANGR_STATS:Nodes=4824
ANGR_STATS:Edges=9763
ANGR_STATS:TotalVexStatements=97335

angr Performance:
	Elapsed (wall clock) time (h:mm:ss or m:ss): 0:10.00
	Maximum resident set size (kbytes): 198624

--- LLVM IR Analysis ---

==========================================
LLVM IR Analysis
==========================================
Binary:  /home/analyst/ir-alalysis/samples/malware/b9d268f3ace4549e2dd92797b148ce3cece15baa3663c87d8ac6885fdb31a925.elf
==========================================

Detected native binary (not LLVM bitcode)
Performing LLVM-based binary analysis...

--- Binary Information ---

/home/analyst/ir-alalysis/samples/malware/b9d268f3ace4549e2dd92797b148ce3cece15baa3663c87d8ac6885fdb31a925.elf:	file format elf32-mips

Sections:
Idx Name          Size     VMA      Type
  0               00000000 00000000 
  1 .init         0000008c 00400094 TEXT
  2 .text         000175c0 00400120 TEXT
  3 .fini         0000005c 004176e0 TEXT
  4 .rodata       00001e54 00417740 DATA
  5 .ctors        00000008 0045a000 DATA
  6 .dtors        00000008 0045a008 DATA
  7 .data.rel.ro  00000030 0045a014 DATA
  8 .data         000003f0 0045a050 DATA
  9 .got          00000570 0045a440 DATA
 10 .sbss         00000024 0045a9b0 BSS
 11 .bss          00002288 0045a9e0 BSS
 12 .mdebug.abi32 00000000 00000c96 
 13 .shstrtab     00000064 00000000 

--- Disassembly (first 100 instructions) ---

/home/analyst/ir-alalysis/samples/malware/b9d268f3ace4549e2dd92797b148ce3cece15baa3663c87d8ac6885fdb31a925.elf:	file format elf32-mips

Disassembly of section .init:

00400094 <.init>:
  400094: 3c 1c 00 06  	lui	$gp, 6
  400098: 27 9c 23 9c  	addiu	$gp, $gp, 9116
  40009c: 03 99 e0 21  	addu	$gp, $gp, $25
  4000a0: 27 bd ff e0  	addiu	$sp, $sp, -32
  4000a4: af bc 00 10  	sw	$gp, 16($sp)
  4000a8: af bf 00 1c  	sw	$ra, 28($sp)
  4000ac: af bc 00 18  	sw	$gp, 24($sp)
  4000b0: 04 11 00 01  	bal	8 <.init+0x24>
  4000b4: 00 00 00 00  	nop
  4000b8: 3c 1c 00 06  	lui	$gp, 6
  4000bc: 27 9c 23 78  	addiu	$gp, $gp, 9080
  4000c0: 03 9f e0 21  	addu	$gp, $gp, $ra
  4000c4: 8f 99 80 20  	lw	$25, -32736($gp)
  4000c8: 00 00 00 00  	nop
  4000cc: 27 39 01 dc  	addiu	$25, $25, 476
  4000d0: 03 20 f8 09  	jalr	$25
  4000d4: 00 00 00 00  	nop
  4000d8: 8f bc 00 10  	lw	$gp, 16($sp)
  4000dc: 00 00 00 00  	nop
  4000e0: 04 11 00 01  	bal	8 <.init+0x54>
  4000e4: 00 00 00 00  	nop
  4000e8: 3c 1c 00 06  	lui	$gp, 6
  4000ec: 27 9c 23 48  	addiu	$gp, $gp, 9032
  4000f0: 03 9f e0 21  	addu	$gp, $gp, $ra
  4000f4: 8f 99 80 24  	lw	$25, -32732($gp)
  4000f8: 00 00 00 00  	nop
  4000fc: 27 39 76 70  	addiu	$25, $25, 30320
  400100: 03 20 f8 09  	jalr	$25
  400104: 00 00 00 00  	nop
  400108: 8f bc 00 10  	lw	$gp, 16($sp)
  40010c: 00 00 00 00  	nop
  400110: 8f bf 00 1c  	lw	$ra, 28($sp)
  400114: 00 00 00 00  	nop
  400118: 03 e0 00 08  	jr	$ra
  40011c: 27 bd 00 20  	addiu	$sp, $sp, 32

Disassembly of section .text:

00400120 <.text>:
  400120: 3c 1c 00 06  	lui	$gp, 6
  400124: 27 9c 23 10  	addiu	$gp, $gp, 8976
  400128: 03 99 e0 21  	addu	$gp, $gp, $25
  40012c: 27 bd ff d8  	addiu	$sp, $sp, -40
  400130: af bf 00 20  	sw	$ra, 32($sp)
  400134: af b1 00 1c  	sw	$17, 28($sp)
  400138: af b0 00 18  	sw	$16, 24($sp)
  40013c: af bc 00 10  	sw	$gp, 16($sp)
  400140: 8f 91 80 18  	lw	$17, -32744($gp)
  400144: 00 00 00 00  	nop
  400148: 92 22 a9 e0  	lbu	$2, -22048($17)
  40014c: 00 00 00 00  	nop
  400150: 14 40 00 1d  	bnez	$2, 120 <.text+0xa8>
  400154: 00 00 00 00  	nop
  400158: 8f 90 80 18  	lw	$16, -32744($gp)
  40015c: 00 00 00 00  	nop
  400160: 8e 02 a0 50  	lw	$2, -24496($16)
  400164: 00 00 00 00  	nop
  400168: 8c 59 00 00  	lw	$25, 0($2)
  40016c: 00 00 00 00  	nop
  400170: 13 20 00 09  	beqz	$25, 40 <.text+0x78>
  400174: 24 42 00 04  	addiu	$2, $2, 4
  400178: 03 20 f8 09  	jalr	$25
  40017c: ae 02 a0 50  	sw	$2, -24496($16)
  400180: 8e 02 a0 50  	lw	$2, -24496($16)
  400184: 8f bc 00 10  	lw	$gp, 16($sp)
  400188: 8c 59 00 00  	lw	$25, 0($2)
  40018c: 00 00 00 00  	nop
  400190: 17 20 ff f9  	bnez	$25, -24 <.text+0x58>
  400194: 24 42 00 04  	addiu	$2, $2, 4
  400198: 8f 82 83 a0  	lw	$2, -31840($gp)
  40019c: 00 00 00 00  	nop
  4001a0: 10 40 00 08  	beqz	$2, 36 <.text+0xa4>
  4001a4: 24 02 00 01  	addiu	$2, $zero, 1
  4001a8: 8f 84 80 1c  	lw	$4, -32740($gp)
  4001ac: 8f 99 83 a0  	lw	$25, -31840($gp)
  4001b0: 00 00 00 00  	nop
  4001b4: 03 20 f8 09  	jalr	$25
  4001b8: 24 84 95 94  	addiu	$4, $4, -27244
  4001bc: 8f bc 00 10  	lw	$gp, 16($sp)
  4001c0: 24 02 00 01  	addiu	$2, $zero, 1
  4001c4: a2 22 a9 e0  	sb	$2, -22048($17)
  4001c8: 8f bf 00 20  	lw	$ra, 32($sp)
  4001cc: 8f b1 00 1c  	lw	$17, 28($sp)
  4001d0: 8f b0 00 18  	lw	$16, 24($sp)
  4001d4: 03 e0 00 08  	jr	$ra
  4001d8: 27 bd 00 28  	addiu	$sp, $sp, 40
  4001dc: 3c 1c 00 06  	lui	$gp, 6
  4001e0: 27 9c 22 54  	addiu	$gp, $gp, 8788
  4001e4: 03 99 e0 21  	addu	$gp, $gp, $25
  4001e8: 27 bd ff e0  	addiu	$sp, $sp, -32
  4001ec: af bf 00 18  	sw	$ra, 24($sp)
  4001f0: af bc 00 10  	sw	$gp, 16($sp)
  4001f4: 8f 84 80 1c  	lw	$4, -32740($gp)
  4001f8: 8f 85 80 18  	lw	$5, -32744($gp)
  4001fc: 8f 82 81 3c  	lw	$2, -32452($gp)
  400200: 8f 99 81 3c  	lw	$25, -32452($gp)
  400204: 24 84 95 94  	addiu	$4, $4, -27244
  400208: 10 40 00 05  	beqz	$2, 24 <.text+0x100>
  40020c: 24 a5 a9 e4  	addiu	$5, $5, -22044
  400210: 03 20 f8 09  	jalr	$25
  400214: 00 00 00 00  	nop
  400218: 8f bc 00 10  	lw	$gp, 16($sp)
  40021c: 00 00 00 00  	nop
  400220: 8f 84 80 18  	lw	$4, -32744($gp)
  400224: 8f 99 81 4c  	lw	$25, -32436($gp)
  400228: 8c 82 a0 10  	lw	$2, -24560($4)
  40022c: 00 00 00 00  	nop
  400230: 10 40 00 06  	beqz	$2, 28 <.text+0x12c>
  400234: 24 84 a0 10  	addiu	$4, $4, -24560
  400238: 13 20 00 04  	beqz	$25, 20 <.text+0x12c>
  40023c: 00 00 00 00  	nop
  400240: 8f bf 00 18  	lw	$ra, 24($sp)
  400244: 03 20 00 08  	jr	$25
  400248: 27 bd 00 20  	addiu	$sp, $sp, 32
  40024c: 8f bf 00 18  	lw	$ra, 24($sp)
  400250: 00 00 00 00  	nop
  400254: 03 e0 00 08  	jr	$ra
  400258: 27 bd 00 20  	addiu	$sp, $sp, 32
  40025c: 00 00 00 00  	nop
  400260: 03 e0 00 21  	move	$zero, $ra
  400264: 04 11 00 01  	bal	8 <.text+0x14c>
  400268: 00 00 00 00  	nop
  40026c: 3c 1c 00 06  	lui	$gp, 6
  400270: 27 9c 21 c4  	addiu	$gp, $gp, 8644
  400274: 03 9f e0 21  	addu	$gp, $gp, $ra
  400278: 00 00 f8 21  	move	$ra, $zero
  40027c: 8f 84 82 bc  	lw	$4, -32068($gp)
  400280: 8f a5 00 00  	lw	$5, 0($sp)
  400284: 27 a6 00 04  	addiu	$6, $sp, 4
  400288: 24 01 ff f8  	addiu	$1, $zero, -8
  40028c: 03 a1 e8 24  	and	$sp, $sp, $1
  400290: 27 bd ff e0  	addiu	$sp, $sp, -32
  400294: 8f 87 84 0c  	lw	$7, -31732($gp)
  400298: 8f 88 82 6c  	lw	$8, -32148($gp)
  40029c: 00 00 00 00  	nop
  4002a0: af a8 00 10  	sw	$8, 16($sp)
  4002a4: af a2 00 14  	sw	$2, 20($sp)
  4002a8: af bd 00 18  	sw	$sp, 24($sp)
  4002ac: 8f 99 82 e0  	lw	$25, -32032($gp)
  4002b0: 00 00 00 00  	nop
  4002b4: 03 20 f8 09  	jalr	$25
  4002b8: 00 00 00 00  	nop
  4002bc: 10 00 ff ff  	b	0 <.text+0x19c>
		...

--- Symbol Table (first 50 entries) ---

/home/analyst/ir-alalysis/samples/malware/b9d268f3ace4549e2dd92797b148ce3cece15baa3663c87d8ac6885fdb31a925.elf:	file format elf32-mips

SYMBOL TABLE:

NOTE: For true binary-to-LLVM IR lifting, consider using:
  - mcsema: https://github.com/lifting-bits/mcsema
  - remill: https://github.com/lifting-bits/remill
  - rellic: https://github.com/lifting-bits/rellic

==========================================
LLVM analysis completed successfully
==========================================
LLVM analysis: SUCCESS
	Command being timed: "/home/analyst/ir-alalysis/scripts/analyze_llvm.sh /home/analyst/ir-alalysis/samples/malware/b9d268f3ace4549e2dd92797b148ce3cece15baa3663c87d8ac6885fdb31a925.elf"
	User time (seconds): 0.04
	System time (seconds): 0.10
	Percent of CPU this job got: 91%
	Elapsed (wall clock) time (h:mm:ss or m:ss): 0:00.15
	Average shared text size (kbytes): 0
	Average unshared data size (kbytes): 0
	Average stack size (kbytes): 0
	Average total size (kbytes): 0
	Maximum resident set size (kbytes): 51584
	Average resident set size (kbytes): 0
	Major (requiring I/O) page faults: 0
	Minor (reclaiming a frame) page faults: 9978
	Voluntary context switches: 59
	Involuntary context switches: 133
	Swaps: 0
	File system inputs: 0
	File system outputs: 16
	Socket messages sent: 0
	Socket messages received: 0
	Signals delivered: 0
	Page size (bytes): 4096
	Exit status: 0

Completed: b9d268f3ace4549e2dd92797b148ce3cece15baa3663c87d8ac6885fdb31a925.elf

========================================
Processing sample 40: ba753bfe68956aa2969797f8bd2b09adae91fa783f39a34e912c41410fe43134.sh
========================================

--- Ghidra P-code Analysis ---

Ghidra analysis: SUCCESS
==========================================
Ghidra Headless Analysis
==========================================
Binary:  /home/analyst/ir-alalysis/samples/malware/ba753bfe68956aa2969797f8bd2b09adae91fa783f39a34e912c41410fe43134.sh
Project: ghidra_analysis_ba753bfe68956aa2969797f8bd2b09adae91fa783f39a34e912c41410fe43134.sh_20251025_203239
Location: ./ghidra_projects
==========================================
INFO  Using log config file: jar:file:/home/analyst/ghidra/Ghidra/Framework/Generic/lib/Generic.jar!/generic.log4j.xml (LoggingInitialization)  
INFO  Using log file: /home/analyst/.config/ghidra/ghidra_11.4.2_PUBLIC/application.log (LoggingInitialization)  
INFO  Loading user preferences: /home/analyst/.config/ghidra/ghidra_11.4.2_PUBLIC/preferences (Preferences)  
INFO  Searching for classes... (ClassSearcher)  
INFO  Class search complete (1199 ms) (ClassSearcher)  
INFO  Initializing SSL Context (SSLContextInitializer)  
INFO  Initializing Random Number Generator... (SecureRandomFactory)  
INFO  Random Number Generator initialization complete: NativePRNGNonBlocking (SecureRandomFactory)  
INFO  Trust manager disabled, cacerts have not been set (ApplicationTrustManagerFactory)  
INFO  Headless startup complete (4092 ms) (AnalyzeHeadless)  
INFO  Class searcher loaded 58 extension points (18 false positives) (ClassSearcher)  
INFO  HEADLESS Script Paths:
    /home/analyst/ghidra/Ghidra/Features/GnuDemangler/ghidra_scripts
    /home/analyst/ghidra/Ghidra/Features/BytePatterns/ghidra_scripts
    /home/analyst/ghidra/Ghidra/Features/SystemEmulation/ghidra_scripts
    /home/analyst/ghidra/Ghidra/Processors/DATA/ghidra_scripts
    /home/analyst/ghidra/Ghidra/Features/PyGhidra/ghidra_scripts
    /home/analyst/ghidra/Ghidra/Features/MicrosoftCodeAnalyzer/ghidra_scripts
    /home/analyst/ghidra/Ghidra/Features/Base/ghidra_scripts
    /home/analyst/ghidra/Ghidra/Features/Jython/ghidra_scripts
    /home/analyst/ghidra/Ghidra/Features/VersionTracking/ghidra_scripts
    /home/analyst/ghidra/Ghidra/Features/PDB/ghidra_scripts
    /home/analyst/ghidra/Ghidra/Processors/Atmel/ghidra_scripts
    /home/analyst/ghidra/Ghidra/Debug/Debugger-rmi-trace/ghidra_scripts
    /home/analyst/ghidra/Ghidra/Features/FileFormats/ghidra_scripts
    /home/analyst/ghidra/Ghidra/Processors/JVM/ghidra_scripts
    /home/analyst/ghidra/Ghidra/Debug/Debugger/ghidra_scripts
    /home/analyst/ghidra/Ghidra/Processors/PIC/ghidra_scripts
    /home/analyst/ghidra/Ghidra/Features/WildcardAssembler/ghidra_scripts
    /home/analyst/ghidra/Ghidra/Processors/8051/ghidra_scripts
    /home/analyst/ghidra/Ghidra/Features/Decompiler/ghidra_scripts
    /home/analyst/ghidra/Ghidra/Features/DecompilerDependent/ghidra_scripts
    /home/analyst/ghidra/Ghidra/Features/FunctionID/ghidra_scripts
    /home/analyst/ghidra/Ghidra/Features/SwiftDemangler/ghidra_scripts
    /home/analyst/ghidra/Ghidra/Features/BSim/ghidra_scripts (HeadlessAnalyzer)  
INFO  HEADLESS: execution starts (HeadlessAnalyzer)  
INFO  Creating temporary project: /home/analyst/ir-alalysis/./ghidra_projects/ghidra_analysis_ba753bfe68956aa2969797f8bd2b09adae91fa783f39a34e912c41410fe43134.sh_20251025_203239 (HeadlessAnalyzer)  
INFO  Creating project: /home/analyst/ir-alalysis/./ghidra_projects/ghidra_analysis_ba753bfe68956aa2969797f8bd2b09adae91fa783f39a34e912c41410fe43134.sh_20251025_203239 (DefaultProject)  
INFO  REPORT: Processing input files:  (HeadlessAnalyzer)  
INFO       project: /home/analyst/ir-alalysis/./ghidra_projects/ghidra_analysis_ba753bfe68956aa2969797f8bd2b09adae91fa783f39a34e912c41410fe43134.sh_20251025_203239 (HeadlessAnalyzer)  
INFO  IMPORTING: file:///home/analyst/ir-alalysis/samples/malware/ba753bfe68956aa2969797f8bd2b09adae91fa783f39a34e912c41410fe43134.sh (HeadlessAnalyzer)  
INFO  No load spec found for import file: /home/analyst/ir-alalysis/samples/malware/ba753bfe68956aa2969797f8bd2b09adae91fa783f39a34e912c41410fe43134.sh (AutoImporter)  
ERROR The AutoImporter could not successfully load file:///home/analyst/ir-alalysis/samples/malware/ba753bfe68956aa2969797f8bd2b09adae91fa783f39a34e912c41410fe43134.sh with the provided import parameters. Please ensure that any specified processor/cspec arguments are compatible with the loader that is used during import and try again. (HeadlessAnalyzer)  
ERROR REPORT: Import failed for file: file:///home/analyst/ir-alalysis/samples/malware/ba753bfe68956aa2969797f8bd2b09adae91fa783f39a34e912c41410fe43134.sh (HeadlessAnalyzer)  
==========================================
Ghidra analysis completed successfully
==========================================

Ghidra CFG Stats:
  (CFG stats not available)

Ghidra Performance:
	Elapsed (wall clock) time (h:mm:ss or m:ss): 0:08.39
	Maximum resident set size (kbytes): 210724

--- angr VEX IR Analysis ---

angr analysis: FAILED
==================================================
angr VEX IR Analysis
==================================================
Binary: /home/analyst/ir-alalysis/samples/malware/ba753bfe68956aa2969797f8bd2b09adae91fa783f39a34e912c41410fe43134.sh
==================================================
Loading binary with angr...

angr CFG Stats:
  (CFG stats not available)

angr Performance:
	Elapsed (wall clock) time (h:mm:ss or m:ss): 0:01.58
	Maximum resident set size (kbytes): 100920

--- LLVM IR Analysis ---

==========================================
LLVM IR Analysis
==========================================
Binary:  /home/analyst/ir-alalysis/samples/malware/ba753bfe68956aa2969797f8bd2b09adae91fa783f39a34e912c41410fe43134.sh
==========================================

Detected native binary (not LLVM bitcode)
Performing LLVM-based binary analysis...

--- Binary Information ---
llvm-objdump: error: '/home/analyst/ir-alalysis/samples/malware/ba753bfe68956aa2969797f8bd2b09adae91fa783f39a34e912c41410fe43134.sh': The file was not recognized as a valid object file

--- Disassembly (first 100 instructions) ---
llvm-objdump: error: '/home/analyst/ir-alalysis/samples/malware/ba753bfe68956aa2969797f8bd2b09adae91fa783f39a34e912c41410fe43134.sh': The file was not recognized as a valid object file

--- Symbol Table (first 50 entries) ---
llvm-objdump: error: '/home/analyst/ir-alalysis/samples/malware/ba753bfe68956aa2969797f8bd2b09adae91fa783f39a34e912c41410fe43134.sh': The file was not recognized as a valid object file

NOTE: For true binary-to-LLVM IR lifting, consider using:
  - mcsema: https://github.com/lifting-bits/mcsema
  - remill: https://github.com/lifting-bits/remill
  - rellic: https://github.com/lifting-bits/rellic

==========================================
LLVM analysis completed successfully
==========================================
LLVM analysis: SUCCESS
	Command being timed: "/home/analyst/ir-alalysis/scripts/analyze_llvm.sh /home/analyst/ir-alalysis/samples/malware/ba753bfe68956aa2969797f8bd2b09adae91fa783f39a34e912c41410fe43134.sh"
	User time (seconds): 0.03
	System time (seconds): 0.06
	Percent of CPU this job got: 91%
	Elapsed (wall clock) time (h:mm:ss or m:ss): 0:00.10
	Average shared text size (kbytes): 0
	Average unshared data size (kbytes): 0
	Average stack size (kbytes): 0
	Average total size (kbytes): 0
	Maximum resident set size (kbytes): 50304
	Average resident set size (kbytes): 0
	Major (requiring I/O) page faults: 0
	Minor (reclaiming a frame) page faults: 10253
	Voluntary context switches: 18
	Involuntary context switches: 102
	Swaps: 0
	File system inputs: 0
	File system outputs: 8
	Socket messages sent: 0
	Socket messages received: 0
	Signals delivered: 0
	Page size (bytes): 4096
	Exit status: 0

Completed: ba753bfe68956aa2969797f8bd2b09adae91fa783f39a34e912c41410fe43134.sh

========================================
Processing sample 41: c06b340e94ed25377c4bcaf15b4bbc7ed5e66baa2326e3d4b665fdd389c5b8d6.elf
========================================

--- Ghidra P-code Analysis ---

Ghidra analysis: SUCCESS
==========================================
Ghidra Headless Analysis
==========================================
Binary:  /home/analyst/ir-alalysis/samples/malware/c06b340e94ed25377c4bcaf15b4bbc7ed5e66baa2326e3d4b665fdd389c5b8d6.elf
Project: ghidra_analysis_c06b340e94ed25377c4bcaf15b4bbc7ed5e66baa2326e3d4b665fdd389c5b8d6.elf_20251025_203249
Location: ./ghidra_projects
==========================================
INFO  Using log config file: jar:file:/home/analyst/ghidra/Ghidra/Framework/Generic/lib/Generic.jar!/generic.log4j.xml (LoggingInitialization)  
INFO  Using log file: /home/analyst/.config/ghidra/ghidra_11.4.2_PUBLIC/application.log (LoggingInitialization)  
INFO  Loading user preferences: /home/analyst/.config/ghidra/ghidra_11.4.2_PUBLIC/preferences (Preferences)  
INFO  Searching for classes... (ClassSearcher)  
INFO  Class search complete (1211 ms) (ClassSearcher)  
INFO  Initializing SSL Context (SSLContextInitializer)  
INFO  Initializing Random Number Generator... (SecureRandomFactory)  
INFO  Random Number Generator initialization complete: NativePRNGNonBlocking (SecureRandomFactory)  
INFO  Trust manager disabled, cacerts have not been set (ApplicationTrustManagerFactory)  
INFO  Headless startup complete (4596 ms) (AnalyzeHeadless)  
INFO  Class searcher loaded 58 extension points (18 false positives) (ClassSearcher)  
INFO  HEADLESS Script Paths:
    /home/analyst/ghidra/Ghidra/Features/GnuDemangler/ghidra_scripts
    /home/analyst/ghidra/Ghidra/Features/BytePatterns/ghidra_scripts
    /home/analyst/ghidra/Ghidra/Features/SystemEmulation/ghidra_scripts
    /home/analyst/ghidra/Ghidra/Processors/DATA/ghidra_scripts
    /home/analyst/ghidra/Ghidra/Features/PyGhidra/ghidra_scripts
    /home/analyst/ghidra/Ghidra/Features/MicrosoftCodeAnalyzer/ghidra_scripts
    /home/analyst/ghidra/Ghidra/Features/Base/ghidra_scripts
    /home/analyst/ghidra/Ghidra/Features/Jython/ghidra_scripts
    /home/analyst/ghidra/Ghidra/Features/VersionTracking/ghidra_scripts
    /home/analyst/ghidra/Ghidra/Features/PDB/ghidra_scripts
    /home/analyst/ghidra/Ghidra/Processors/Atmel/ghidra_scripts
    /home/analyst/ghidra/Ghidra/Debug/Debugger-rmi-trace/ghidra_scripts
    /home/analyst/ghidra/Ghidra/Features/FileFormats/ghidra_scripts
    /home/analyst/ghidra/Ghidra/Processors/JVM/ghidra_scripts
    /home/analyst/ghidra/Ghidra/Debug/Debugger/ghidra_scripts
    /home/analyst/ghidra/Ghidra/Processors/PIC/ghidra_scripts
    /home/analyst/ghidra/Ghidra/Features/WildcardAssembler/ghidra_scripts
    /home/analyst/ghidra/Ghidra/Processors/8051/ghidra_scripts
    /home/analyst/ghidra/Ghidra/Features/Decompiler/ghidra_scripts
    /home/analyst/ghidra/Ghidra/Features/DecompilerDependent/ghidra_scripts
    /home/analyst/ghidra/Ghidra/Features/FunctionID/ghidra_scripts
    /home/analyst/ghidra/Ghidra/Features/SwiftDemangler/ghidra_scripts
    /home/analyst/ghidra/Ghidra/Features/BSim/ghidra_scripts (HeadlessAnalyzer)  
INFO  HEADLESS: execution starts (HeadlessAnalyzer)  
INFO  Creating temporary project: /home/analyst/ir-alalysis/./ghidra_projects/ghidra_analysis_c06b340e94ed25377c4bcaf15b4bbc7ed5e66baa2326e3d4b665fdd389c5b8d6.elf_20251025_203249 (HeadlessAnalyzer)  
INFO  Creating project: /home/analyst/ir-alalysis/./ghidra_projects/ghidra_analysis_c06b340e94ed25377c4bcaf15b4bbc7ed5e66baa2326e3d4b665fdd389c5b8d6.elf_20251025_203249 (DefaultProject)  
INFO  REPORT: Processing input files:  (HeadlessAnalyzer)  
INFO       project: /home/analyst/ir-alalysis/./ghidra_projects/ghidra_analysis_c06b340e94ed25377c4bcaf15b4bbc7ed5e66baa2326e3d4b665fdd389c5b8d6.elf_20251025_203249 (HeadlessAnalyzer)  
INFO  IMPORTING: file:///home/analyst/ir-alalysis/samples/malware/c06b340e94ed25377c4bcaf15b4bbc7ed5e66baa2326e3d4b665fdd389c5b8d6.elf (HeadlessAnalyzer)  
INFO  Using Loader: Executable and Linking Format (ELF) (AutoImporter)  
INFO  Using Language/Compiler: ARM:LE:32:v8:default (AutoImporter)  
INFO  Using Library Search Path: [., /bin, /lib, /lib64, /lib/x86_64-linux-gnu, /lib/aarch64-linux-gnu, /usr/bin, /usr/lib, /usr/X11R6/bin, /usr/X11R6/lib, /usr/java/packages/lib, /usr/lib/x86_64-linux-gnu/jni, /usr/lib/x86_64-linux-gnu, /usr/lib/jni] (AutoImporter)  
INFO  Additional info:
Loading file:///home/analyst/ir-alalysis/samples/malware/c06b340e94ed25377c4bcaf15b4bbc7ed5e66baa2326e3d4b665fdd389c5b8d6.elf?MD5=498b262fa765860cee45b7ca17e4d6d0...
------------------------------------------------

 (AutoImporter)  
INFO  IMPORTING: Loaded 0 additional files (HeadlessAnalyzer)  
INFO  ANALYZING all memory and code: file:///home/analyst/ir-alalysis/samples/malware/c06b340e94ed25377c4bcaf15b4bbc7ed5e66baa2326e3d4b665fdd389c5b8d6.elf (HeadlessAnalyzer)  
ERROR REPORT: Analysis timed out at 0 seconds. Processing not completed for file: file:///home/analyst/ir-alalysis/samples/malware/c06b340e94ed25377c4bcaf15b4bbc7ed5e66baa2326e3d4b665fdd389c5b8d6.elf (HeadlessAnalyzer)  
INFO  SCRIPT: /home/analyst/ir-alalysis/scripts/get_cfg_stats.py (HeadlessAnalyzer)  
GHIDRA_STATS:Functions=322
GHIDRA_STATS:BasicBlocks=0
GHIDRA_STATS:TotalPcodeOps=0
INFO  ANALYZING changes made by post scripts: file:///home/analyst/ir-alalysis/samples/malware/c06b340e94ed25377c4bcaf15b4bbc7ed5e66baa2326e3d4b665fdd389c5b8d6.elf (HeadlessAnalyzer)  
INFO  REPORT: Post-analysis succeeded for file: file:///home/analyst/ir-alalysis/samples/malware/c06b340e94ed25377c4bcaf15b4bbc7ed5e66baa2326e3d4b665fdd389c5b8d6.elf (HeadlessAnalyzer)  
INFO  REPORT: Save succeeded for: /c06b340e94ed25377c4bcaf15b4bbc7ed5e66baa2326e3d4b665fdd389c5b8d6.elf (ghidra_analysis_c06b340e94ed25377c4bcaf15b4bbc7ed5e66baa2326e3d4b665fdd389c5b8d6.elf_20251025_203249:/c06b340e94ed25377c4bcaf15b4bbc7ed5e66baa2326e3d4b665fdd389c5b8d6.elf) (HeadlessAnalyzer)  
INFO  REPORT: Import succeeded (HeadlessAnalyzer)  
==========================================
Ghidra analysis completed successfully
==========================================

Ghidra CFG Stats:
GHIDRA_STATS:Functions=322
GHIDRA_STATS:BasicBlocks=0
GHIDRA_STATS:TotalPcodeOps=0

Ghidra Performance:
	Elapsed (wall clock) time (h:mm:ss or m:ss): 0:21.83
	Maximum resident set size (kbytes): 804580

--- angr VEX IR Analysis ---

angr analysis: SUCCESS
==================================================
angr VEX IR Analysis
==================================================
Binary: /home/analyst/ir-alalysis/samples/malware/c06b340e94ed25377c4bcaf15b4bbc7ed5e66baa2326e3d4b665fdd389c5b8d6.elf
==================================================
Loading binary with angr...
Architecture: ARMEL
Entry point: 0x81b0
Binary base address: 0x8000

Generating CFG with angr...
Functions discovered: 506
Basic blocks (CFG nodes): 4723
CFG edges: 9695

Counting VEX IR statements...
Total VEX statements: 95913

--- angr CFG & IR Stats ---
ANGR_STATS:Functions=506
ANGR_STATS:Nodes=4723
ANGR_STATS:Edges=9695
ANGR_STATS:TotalVexStatements=95913
---------------------------

Sample functions (first 10):
  - _init @ 0x80b4
  - _call_via_r0 @ 0x80d1
  - sub_80d3 @ 0x80d3
  - _call_via_r1 @ 0x80d5
  - sub_80d7 @ 0x80d7
  - _call_via_r2 @ 0x80d9
  - sub_80db @ 0x80db
  - _call_via_r3 @ 0x80dd
  - sub_80df @ 0x80df
  - _call_via_r4 @ 0x80e1
==================================================
angr analysis completed successfully
==================================================

angr CFG Stats:
ANGR_STATS:Functions=506
ANGR_STATS:Nodes=4723
ANGR_STATS:Edges=9695
ANGR_STATS:TotalVexStatements=95913

angr Performance:
	Elapsed (wall clock) time (h:mm:ss or m:ss): 0:16.31
	Maximum resident set size (kbytes): 184156

--- LLVM IR Analysis ---

==========================================
LLVM IR Analysis
==========================================
Binary:  /home/analyst/ir-alalysis/samples/malware/c06b340e94ed25377c4bcaf15b4bbc7ed5e66baa2326e3d4b665fdd389c5b8d6.elf
==========================================

Detected native binary (not LLVM bitcode)
Performing LLVM-based binary analysis...

--- Binary Information ---

/home/analyst/ir-alalysis/samples/malware/c06b340e94ed25377c4bcaf15b4bbc7ed5e66baa2326e3d4b665fdd389c5b8d6.elf:	file format elf32-littlearm

Sections:
Idx Name            Size     VMA      Type
  0                 00000000 00000000 
  1 .init           00000010 000080b4 TEXT
  2 .text           00014ba4 000080d0 TEXT
  3 .fini           00000010 0001cc74 TEXT
  4 .rodata         00003794 0001cc88 DATA
  5 .ARM.extab      00000018 0002041c DATA
  6 .ARM.exidx      00000010 00020434 
  7 .eh_frame       00000004 00028444 DATA
  8 .init_array     00000004 00028448 
  9 .fini_array     00000004 0002844c 
 10 .jcr            00000004 00028450 DATA
 11 .got            00000078 00028454 DATA
 12 .data           000002f8 000284cc DATA
 13 .bss            00006680 000287c8 BSS
 14 .comment        00000cac 00000000 
 15 .debug_aranges  000000e0 00000000 DEBUG
 16 .debug_info     000004b0 00000000 DEBUG
 17 .debug_abbrev   0000008c 00000000 DEBUG
 18 .debug_line     00000655 00000000 DEBUG
 19 .debug_frame    00000058 00000000 DEBUG
 20 .ARM.attributes 00000010 00000000 
 21 .shstrtab       000000dd 00000000 
 22 .symtab         000050b0 00000000 
 23 .strtab         00002aa5 00000000 

--- Disassembly (first 100 instructions) ---

/home/analyst/ir-alalysis/samples/malware/c06b340e94ed25377c4bcaf15b4bbc7ed5e66baa2326e3d4b665fdd389c5b8d6.elf:	file format elf32-littlearm

Disassembly of section .init:

000080b4 <_init>:
    80b4: 0d c0 a0 e1  	mov	r12, sp
    80b8: f0 df 2d e9  	push	{r4, r5, r6, r7, r8, r9, r10, r11, r12, lr, pc}
    80bc: 04 b0 4c e2  	sub	r11, r12, #4

000080c0 <$a>:
    80c0: f0 af 1b e9  	ldmdb	r11, {r4, r5, r6, r7, r8, r9, r10, r11, sp, pc}

Disassembly of section .text:

000080d0 <_call_via_r0>:
    80d0: 00 47        	bx	r0
    80d2: c0 46        	mov	r8, r8

000080d4 <_call_via_r1>:
    80d4: 08 47        	bx	r1
    80d6: c0 46        	mov	r8, r8

000080d8 <_call_via_r2>:
    80d8: 10 47        	bx	r2
    80da: c0 46        	mov	r8, r8

000080dc <_call_via_r3>:
    80dc: 18 47        	bx	r3
    80de: c0 46        	mov	r8, r8

000080e0 <_call_via_r4>:
    80e0: 20 47        	bx	r4
    80e2: c0 46        	mov	r8, r8

000080e4 <_call_via_r5>:
    80e4: 28 47        	bx	r5
    80e6: c0 46        	mov	r8, r8

000080e8 <_call_via_r6>:
    80e8: 30 47        	bx	r6
    80ea: c0 46        	mov	r8, r8

000080ec <_call_via_r7>:
    80ec: 38 47        	bx	r7
    80ee: c0 46        	mov	r8, r8

000080f0 <_call_via_r8>:
    80f0: 40 47        	bx	r8
    80f2: c0 46        	mov	r8, r8

000080f4 <_call_via_r9>:
    80f4: 48 47        	bx	r9
    80f6: c0 46        	mov	r8, r8

000080f8 <_call_via_sl>:
    80f8: 50 47        	bx	r10
    80fa: c0 46        	mov	r8, r8

000080fc <_call_via_fp>:
    80fc: 58 47        	bx	r11
    80fe: c0 46        	mov	r8, r8

00008100 <_call_via_ip>:
    8100: 60 47        	bx	r12
    8102: c0 46        	mov	r8, r8

00008104 <_call_via_sp>:
    8104: 68 47        	bx	sp
    8106: c0 46        	mov	r8, r8

00008108 <_call_via_lr>:
    8108: 70 47        	bx	lr
    810a: c0 46        	mov	r8, r8

0000810c <__do_global_dtors_aux>:
    810c: 10 40 2d e9  	push	{r4, lr}
    8110: 2c 40 9f e5  	ldr	r4, [pc, #44]           @ 0x8144 <$d>
    8114: 00 30 d4 e5  	ldrb	r3, [r4]
    8118: 00 00 53 e3  	cmp	r3, #0
    811c: 06 00 00 1a  	bne	0x813c <__do_global_dtors_aux+0x30> @ imm = #24
    8120: 20 30 9f e5  	ldr	r3, [pc, #32]           @ 0x8148 <$d+0x4>
    8124: 00 00 53 e3  	cmp	r3, #0
    8128: 1c 00 9f 15  	ldrne	r0, [pc, #28]           @ 0x814c <$d+0x8>
    812c: 0f e0 a0 11  	movne	lr, pc
    8130: 13 ff 2f 11  	<unknown>
    8134: 01 30 a0 e3  	mov	r3, #1
    8138: 00 30 c4 e5  	strb	r3, [r4]
    813c: 10 40 bd e8  	pop	{r4, lr}
    8140: 1e ff 2f e1  	<unknown>

00008144 <$d>:
    8144:	c8 87 02 00	.word	0x000287c8
    8148:	00 00 00 00	.word	0x00000000
    814c:	44 84 02 00	.word	0x00028444

00008150 <frame_dummy>:
    8150: 04 e0 2d e5  	str	lr, [sp, #-4]!
    8154: 40 30 9f e5  	ldr	r3, [pc, #64]           @ 0x819c <$d>
    8158: 00 00 53 e3  	cmp	r3, #0
    815c: 04 d0 4d e2  	sub	sp, sp, #4
    8160: 38 00 9f 15  	ldrne	r0, [pc, #56]           @ 0x81a0 <$d+0x4>
    8164: 38 10 9f 15  	ldrne	r1, [pc, #56]           @ 0x81a4 <$d+0x8>
    8168: 0f e0 a0 11  	movne	lr, pc
    816c: 13 ff 2f 11  	<unknown>
    8170: 30 00 9f e5  	ldr	r0, [pc, #48]           @ 0x81a8 <$d+0xc>
    8174: 00 30 90 e5  	ldr	r3, [r0]
    8178: 00 00 53 e3  	cmp	r3, #0
    817c: 03 00 00 0a  	beq	0x8190 <frame_dummy+0x40> @ imm = #12
    8180: 24 30 9f e5  	ldr	r3, [pc, #36]           @ 0x81ac <$d+0x10>
    8184: 00 00 53 e3  	cmp	r3, #0
    8188: 0f e0 a0 11  	movne	lr, pc
    818c: 13 ff 2f 11  	<unknown>
    8190: 04 d0 8d e2  	add	sp, sp, #4
    8194: 04 e0 9d e4  	ldr	lr, [sp], #4
    8198: 1e ff 2f e1  	<unknown>

0000819c <$d>:
    819c:	00 00 00 00	.word	0x00000000
    81a0:	44 84 02 00	.word	0x00028444
    81a4:	cc 87 02 00	.word	0x000287cc
    81a8:	50 84 02 00	.word	0x00028450
    81ac:	00 00 00 00	.word	0x00000000

000081b0 <_start>:
    81b0: 00 b0 a0 e3  	mov	r11, #0
    81b4: 00 e0 a0 e3  	mov	lr, #0
    81b8: 04 10 9d e4  	ldr	r1, [sp], #4
    81bc: 0d 20 a0 e1  	mov	r2, sp
    81c0: 04 20 2d e5  	str	r2, [sp, #-4]!
    81c4: 04 00 2d e5  	str	r0, [sp, #-4]!
    81c8: 10 c0 9f e5  	ldr	r12, [pc, #16]          @ 0x81e0 <$d>
    81cc: 04 c0 2d e5  	str	r12, [sp, #-4]!
    81d0: 0c 00 9f e5  	ldr	r0, [pc, #12]           @ 0x81e4 <$d+0x4>
    81d4: 0c 30 9f e5  	ldr	r3, [pc, #12]           @ 0x81e8 <$d+0x8>
    81d8: 4d 37 00 ea  	b	0x15f14 <__uClibc_main> @ imm = #56628
    81dc: 40 32 00 eb  	bl	0x14ae4 <abort>         @ imm = #51456

000081e0 <$d>:
    81e0:	74 cc 01 00	.word	0x0001cc74
    81e4:	f8 0b 01 00	.word	0x00010bf8
    81e8:	b4 80 00 00	.word	0x000080b4

000081ec <init_rand>:
    81ec: 0d c0 a0 e1  	mov	r12, sp
    81f0: 00 d8 2d e9  	push	{r11, r12, lr, pc}
    81f4: 04 b0 4c e2  	sub	r11, r12, #4
    81f8: 10 d0 4d e2  	sub	sp, sp, #16
    81fc: 18 00 0b e5  	str	r0, [r11, #-24]
    8200: b4 20 9f e5  	ldr	r2, [pc, #180]          @ 0x82bc <$d>

--- Symbol Table (first 50 entries) ---

/home/analyst/ir-alalysis/samples/malware/c06b340e94ed25377c4bcaf15b4bbc7ed5e66baa2326e3d4b665fdd389c5b8d6.elf:	file format elf32-littlearm

SYMBOL TABLE:
000080b4 l    d  .init	00000000 .init
000080d0 l    d  .text	00000000 .text
0001cc74 l    d  .fini	00000000 .fini
0001cc88 l    d  .rodata	00000000 .rodata
0002041c l    d  .ARM.extab	00000000 .ARM.extab
00020434 l    d  .ARM.exidx	00000000 .ARM.exidx
00028444 l    d  .eh_frame	00000000 .eh_frame
00028448 l    d  .init_array	00000000 .init_array
0002844c l    d  .fini_array	00000000 .fini_array
00028450 l    d  .jcr	00000000 .jcr
00028454 l    d  .got	00000000 .got
000284cc l    d  .data	00000000 .data
000287c8 l    d  .bss	00000000 .bss
00000000 l    d  .comment	00000000 .comment
00000000 l    d  .debug_aranges	00000000 .debug_aranges
00000000 l    d  .debug_info	00000000 .debug_info
00000000 l    d  .debug_abbrev	00000000 .debug_abbrev
00000000 l    d  .debug_line	00000000 .debug_line
00000000 l    d  .debug_frame	00000000 .debug_frame
00000000 l    d  .ARM.attributes	00000000 .ARM.attributes
00000000 l    d  .shstrtab	00000000 .shstrtab
00000000 l    d  .symtab	00000000 .symtab
00000000 l    d  .strtab	00000000 .strtab
00000000 l    df *ABS*	00000000 initfini.c
00000000 l    df *ABS*	00000000 libc/sysdeps/linux/arm/crti.S
000080b4 l       .init	00000000 $a
0001cc74 l       .fini	00000000 $a
000080d0 l       .text	00000000 $t
00000000 l    df *ABS*	00000000 initfini.c
00000000 l    df *ABS*	00000000 libc/sysdeps/linux/arm/crtn.S
000080c0 l       .init	00000000 $a
0001cc80 l       .fini	00000000 $a
00000000 l    df *ABS*	00000000 crtstuff.c
00028444 l     O .eh_frame	00000000 __EH_FRAME_BEGIN__
00028450 l     O .jcr	00000000 __JCR_LIST__
0000810c l     F .text	00000000 __do_global_dtors_aux
0000810c l       .text	00000000 $a
00008144 l       .text	00000000 $d
000287c8 l     O .bss	00000001 completed.4959
0002844c l     O .fini_array	00000000 __do_global_dtors_aux_fini_array_entry
0002844c l       .fini_array	00000000 $d
00008150 l     F .text	00000000 frame_dummy
00008150 l       .text	00000000 $a
0000819c l       .text	00000000 $d
000287cc l     O .bss	00000018 object.4967
00028448 l     O .init_array	00000000 __frame_dummy_init_array_entry
00028448 l       .init_array	00000000 $d
00000000 l    df *ABS*	00000000 libc/sysdeps/linux/arm/crt1.S
000081b0 l       .text	00000000 $a
000284d0 l       .data	00000000 $d
000081e0 l       .text	00000000 $d

NOTE: For true binary-to-LLVM IR lifting, consider using:
  - mcsema: https://github.com/lifting-bits/mcsema
  - remill: https://github.com/lifting-bits/remill
  - rellic: https://github.com/lifting-bits/rellic

==========================================
LLVM analysis completed successfully
==========================================
LLVM analysis: SUCCESS
	Command being timed: "/home/analyst/ir-alalysis/scripts/analyze_llvm.sh /home/analyst/ir-alalysis/samples/malware/c06b340e94ed25377c4bcaf15b4bbc7ed5e66baa2326e3d4b665fdd389c5b8d6.elf"
	User time (seconds): 0.04
	System time (seconds): 0.11
	Percent of CPU this job got: 87%
	Elapsed (wall clock) time (h:mm:ss or m:ss): 0:00.17
	Average shared text size (kbytes): 0
	Average unshared data size (kbytes): 0
	Average stack size (kbytes): 0
	Average total size (kbytes): 0
	Maximum resident set size (kbytes): 52096
	Average resident set size (kbytes): 0
	Major (requiring I/O) page faults: 0
	Minor (reclaiming a frame) page faults: 10043
	Voluntary context switches: 41
	Involuntary context switches: 60
	Swaps: 0
	File system inputs: 0
	File system outputs: 16
	Socket messages sent: 0
	Socket messages received: 0
	Signals delivered: 0
	Page size (bytes): 4096
	Exit status: 0

Completed: c06b340e94ed25377c4bcaf15b4bbc7ed5e66baa2326e3d4b665fdd389c5b8d6.elf

========================================
Processing sample 42: d25092fa0fc23e431944eafb8166f44333cc4acc818515eb7174b7aa3a09289a.elf
========================================

--- Ghidra P-code Analysis ---

Ghidra analysis: SUCCESS
==========================================
Ghidra Headless Analysis
==========================================
Binary:  /home/analyst/ir-alalysis/samples/malware/d25092fa0fc23e431944eafb8166f44333cc4acc818515eb7174b7aa3a09289a.elf
Project: ghidra_analysis_d25092fa0fc23e431944eafb8166f44333cc4acc818515eb7174b7aa3a09289a.elf_20251025_203328
Location: ./ghidra_projects
==========================================
INFO  Using log config file: jar:file:/home/analyst/ghidra/Ghidra/Framework/Generic/lib/Generic.jar!/generic.log4j.xml (LoggingInitialization)  
INFO  Using log file: /home/analyst/.config/ghidra/ghidra_11.4.2_PUBLIC/application.log (LoggingInitialization)  
INFO  Loading user preferences: /home/analyst/.config/ghidra/ghidra_11.4.2_PUBLIC/preferences (Preferences)  
INFO  Searching for classes... (ClassSearcher)  
INFO  Class search complete (1635 ms) (ClassSearcher)  
INFO  Initializing SSL Context (SSLContextInitializer)  
INFO  Initializing Random Number Generator... (SecureRandomFactory)  
INFO  Random Number Generator initialization complete: NativePRNGNonBlocking (SecureRandomFactory)  
INFO  Trust manager disabled, cacerts have not been set (ApplicationTrustManagerFactory)  
INFO  Headless startup complete (6996 ms) (AnalyzeHeadless)  
INFO  Class searcher loaded 58 extension points (18 false positives) (ClassSearcher)  
INFO  HEADLESS Script Paths:
    /home/analyst/ghidra/Ghidra/Features/GnuDemangler/ghidra_scripts
    /home/analyst/ghidra/Ghidra/Features/BytePatterns/ghidra_scripts
    /home/analyst/ghidra/Ghidra/Features/SystemEmulation/ghidra_scripts
    /home/analyst/ghidra/Ghidra/Processors/DATA/ghidra_scripts
    /home/analyst/ghidra/Ghidra/Features/PyGhidra/ghidra_scripts
    /home/analyst/ghidra/Ghidra/Features/MicrosoftCodeAnalyzer/ghidra_scripts
    /home/analyst/ghidra/Ghidra/Features/Base/ghidra_scripts
    /home/analyst/ghidra/Ghidra/Features/Jython/ghidra_scripts
    /home/analyst/ghidra/Ghidra/Features/VersionTracking/ghidra_scripts
    /home/analyst/ghidra/Ghidra/Features/PDB/ghidra_scripts
    /home/analyst/ghidra/Ghidra/Processors/Atmel/ghidra_scripts
    /home/analyst/ghidra/Ghidra/Debug/Debugger-rmi-trace/ghidra_scripts
    /home/analyst/ghidra/Ghidra/Features/FileFormats/ghidra_scripts
    /home/analyst/ghidra/Ghidra/Processors/JVM/ghidra_scripts
    /home/analyst/ghidra/Ghidra/Debug/Debugger/ghidra_scripts
    /home/analyst/ghidra/Ghidra/Processors/PIC/ghidra_scripts
    /home/analyst/ghidra/Ghidra/Features/WildcardAssembler/ghidra_scripts
    /home/analyst/ghidra/Ghidra/Processors/8051/ghidra_scripts
    /home/analyst/ghidra/Ghidra/Features/Decompiler/ghidra_scripts
    /home/analyst/ghidra/Ghidra/Features/DecompilerDependent/ghidra_scripts
    /home/analyst/ghidra/Ghidra/Features/FunctionID/ghidra_scripts
    /home/analyst/ghidra/Ghidra/Features/SwiftDemangler/ghidra_scripts
    /home/analyst/ghidra/Ghidra/Features/BSim/ghidra_scripts (HeadlessAnalyzer)  
INFO  HEADLESS: execution starts (HeadlessAnalyzer)  
INFO  Creating temporary project: /home/analyst/ir-alalysis/./ghidra_projects/ghidra_analysis_d25092fa0fc23e431944eafb8166f44333cc4acc818515eb7174b7aa3a09289a.elf_20251025_203328 (HeadlessAnalyzer)  
INFO  Creating project: /home/analyst/ir-alalysis/./ghidra_projects/ghidra_analysis_d25092fa0fc23e431944eafb8166f44333cc4acc818515eb7174b7aa3a09289a.elf_20251025_203328 (DefaultProject)  
INFO  REPORT: Processing input files:  (HeadlessAnalyzer)  
INFO       project: /home/analyst/ir-alalysis/./ghidra_projects/ghidra_analysis_d25092fa0fc23e431944eafb8166f44333cc4acc818515eb7174b7aa3a09289a.elf_20251025_203328 (HeadlessAnalyzer)  
INFO  IMPORTING: file:///home/analyst/ir-alalysis/samples/malware/d25092fa0fc23e431944eafb8166f44333cc4acc818515eb7174b7aa3a09289a.elf (HeadlessAnalyzer)  
INFO  Using Loader: Executable and Linking Format (ELF) (AutoImporter)  
INFO  Using Language/Compiler: PowerPC:BE:32:e500:default (AutoImporter)  
INFO  Using Library Search Path: [., /bin, /lib, /lib64, /lib/x86_64-linux-gnu, /lib/aarch64-linux-gnu, /usr/bin, /usr/lib, /usr/X11R6/bin, /usr/X11R6/lib, /usr/java/packages/lib, /usr/lib/x86_64-linux-gnu/jni, /usr/lib/x86_64-linux-gnu, /usr/lib/jni] (AutoImporter)  
INFO  Additional info:
Loading file:///home/analyst/ir-alalysis/samples/malware/d25092fa0fc23e431944eafb8166f44333cc4acc818515eb7174b7aa3a09289a.elf?MD5=3e161910c7f294215a484bfabff9fd96...
------------------------------------------------

 (AutoImporter)  
INFO  IMPORTING: Loaded 0 additional files (HeadlessAnalyzer)  
INFO  ANALYZING all memory and code: file:///home/analyst/ir-alalysis/samples/malware/d25092fa0fc23e431944eafb8166f44333cc4acc818515eb7174b7aa3a09289a.elf (HeadlessAnalyzer)  
ERROR REPORT: Analysis timed out at 0 seconds. Processing not completed for file: file:///home/analyst/ir-alalysis/samples/malware/d25092fa0fc23e431944eafb8166f44333cc4acc818515eb7174b7aa3a09289a.elf (HeadlessAnalyzer)  
INFO  SCRIPT: /home/analyst/ir-alalysis/scripts/get_cfg_stats.py (HeadlessAnalyzer)  
GHIDRA_STATS:Functions=249
GHIDRA_STATS:BasicBlocks=0
GHIDRA_STATS:TotalPcodeOps=0
INFO  ANALYZING changes made by post scripts: file:///home/analyst/ir-alalysis/samples/malware/d25092fa0fc23e431944eafb8166f44333cc4acc818515eb7174b7aa3a09289a.elf (HeadlessAnalyzer)  
INFO  REPORT: Post-analysis succeeded for file: file:///home/analyst/ir-alalysis/samples/malware/d25092fa0fc23e431944eafb8166f44333cc4acc818515eb7174b7aa3a09289a.elf (HeadlessAnalyzer)  
INFO  REPORT: Save succeeded for: /d25092fa0fc23e431944eafb8166f44333cc4acc818515eb7174b7aa3a09289a.elf (ghidra_analysis_d25092fa0fc23e431944eafb8166f44333cc4acc818515eb7174b7aa3a09289a.elf_20251025_203328:/d25092fa0fc23e431944eafb8166f44333cc4acc818515eb7174b7aa3a09289a.elf) (HeadlessAnalyzer)  
INFO  REPORT: Import succeeded (HeadlessAnalyzer)  
==========================================
Ghidra analysis completed successfully
==========================================

Ghidra CFG Stats:
GHIDRA_STATS:Functions=249
GHIDRA_STATS:BasicBlocks=0
GHIDRA_STATS:TotalPcodeOps=0

Ghidra Performance:
	Elapsed (wall clock) time (h:mm:ss or m:ss): 0:24.15
	Maximum resident set size (kbytes): 542260

--- angr VEX IR Analysis ---

angr analysis: SUCCESS
==================================================
angr VEX IR Analysis
==================================================
Binary: /home/analyst/ir-alalysis/samples/malware/d25092fa0fc23e431944eafb8166f44333cc4acc818515eb7174b7aa3a09289a.elf
==================================================
Loading binary with angr...
Architecture: PPC32
Entry point: 0x100001f0
Binary base address: 0x10000000

Generating CFG with angr...
Functions discovered: 308
Basic blocks (CFG nodes): 3990
CFG edges: 8336

Counting VEX IR statements...
Total VEX statements: 83795

--- angr CFG & IR Stats ---
ANGR_STATS:Functions=308
ANGR_STATS:Nodes=3990
ANGR_STATS:Edges=8336
ANGR_STATS:TotalVexStatements=83795
---------------------------

Sample functions (first 10):
  - _init @ 0x10000094
  - __do_global_dtors_aux @ 0x100000b8
  - call___do_global_dtors_aux @ 0x1000014c
  - frame_dummy @ 0x10000168
  - call_frame_dummy @ 0x100001d4
  - _start @ 0x100001f0
  - init_rand @ 0x10000238
  - rand_cmwc @ 0x10000320
  - trim @ 0x10000478
  - printchar @ 0x100005d4
==================================================
angr analysis completed successfully
==================================================

angr CFG Stats:
ANGR_STATS:Functions=308
ANGR_STATS:Nodes=3990
ANGR_STATS:Edges=8336
ANGR_STATS:TotalVexStatements=83795

angr Performance:
	Elapsed (wall clock) time (h:mm:ss or m:ss): 0:07.67
	Maximum resident set size (kbytes): 148964

--- LLVM IR Analysis ---

==========================================
LLVM IR Analysis
==========================================
Binary:  /home/analyst/ir-alalysis/samples/malware/d25092fa0fc23e431944eafb8166f44333cc4acc818515eb7174b7aa3a09289a.elf
==========================================

Detected native binary (not LLVM bitcode)
Performing LLVM-based binary analysis...

--- Binary Information ---

/home/analyst/ir-alalysis/samples/malware/d25092fa0fc23e431944eafb8166f44333cc4acc818515eb7174b7aa3a09289a.elf:	file format elf32-powerpc

Sections:
Idx Name          Size     VMA      Type
  0               00000000 00000000 
  1 .init         00000024 10000094 TEXT
  2 .text         00011df8 100000b8 TEXT
  3 .fini         00000020 10011eb0 TEXT
  4 .rodata       00003778 10011ed0 DATA
  5 .eh_frame     00000004 10015648 DATA
  6 .ctors        00000008 1002564c DATA
  7 .dtors        00000008 10025654 DATA
  8 .jcr          00000004 1002565c DATA
  9 .data         000003c0 10025660 DATA
 10 .sdata        00000048 10025a20 DATA
 11 .sbss         00000084 10025a68 BSS
 12 .bss          000062f0 10025aec BSS
 13 .comment      00000b76 00000000 
 14 .shstrtab     00000073 00000000 
 15 .symtab       00002e60 00000000 
 16 .strtab       000022ce 00000000 

--- Disassembly (first 100 instructions) ---

/home/analyst/ir-alalysis/samples/malware/d25092fa0fc23e431944eafb8166f44333cc4acc818515eb7174b7aa3a09289a.elf:	file format elf32-powerpc

Disassembly of section .init:

10000094 <_init>:
10000094: 94 21 ff e0  	stwu 1, -32(1)
10000098: 7c 08 02 a6  	mflr 0
1000009c: 90 01 00 24  	stw 0, 36(1)
100000a0: 48 00 00 c9  	bl 0x10000168 <frame_dummy>
100000a4: 48 01 1d a1  	bl 0x10011e44 <__do_global_ctors_aux>
100000a8: 80 01 00 24  	lwz 0, 36(1)
100000ac: 38 21 00 20  	addi 1, 1, 32
100000b0: 7c 08 03 a6  	mtlr 0
100000b4: 4e 80 00 20  	blr

Disassembly of section .text:

100000b8 <__do_global_dtors_aux>:
100000b8: 94 21 ff f0  	stwu 1, -16(1)
100000bc: 7c 08 02 a6  	mflr 0
100000c0: 93 c1 00 08  	stw 30, 8(1)
100000c4: 3f c0 10 02  	lis 30, 4098
100000c8: 90 01 00 14  	stw 0, 20(1)
100000cc: 88 1e 5a ec  	lbz 0, 23276(30)
100000d0: 93 e1 00 0c  	stw 31, 12(1)
100000d4: 2f 80 00 00  	cmpwi 7, 0, 0
100000d8: 40 9e 00 5c  	bf	30, 0x10000134 <__do_global_dtors_aux+0x7c>
100000dc: 3f e0 10 02  	lis 31, 4098
100000e0: 81 7f 56 64  	lwz 11, 22116(31)
100000e4: 81 2b 00 00  	lwz 9, 0(11)
100000e8: 2f 89 00 00  	cmpwi 7, 9, 0
100000ec: 41 9e 00 24  	bt	30, 0x10000110 <__do_global_dtors_aux+0x58>
100000f0: 38 0b 00 04  	addi 0, 11, 4
100000f4: 7d 29 03 a6  	mtctr 9
100000f8: 90 1f 56 64  	stw 0, 22116(31)
100000fc: 4e 80 04 21  	bctrl
10000100: 81 7f 56 64  	lwz 11, 22116(31)
10000104: 81 2b 00 00  	lwz 9, 0(11)
10000108: 2f 89 00 00  	cmpwi 7, 9, 0
1000010c: 40 9e ff e4  	bf	30, 0x100000f0 <__do_global_dtors_aux+0x38>
10000110: 3d 20 00 00  	lis 9, 0
10000114: 39 29 00 00  	addi 9, 9, 0
10000118: 2f 89 00 00  	cmpwi 7, 9, 0
1000011c: 41 9e 00 10  	bt	30, 0x1000012c <__do_global_dtors_aux+0x74>
10000120: 3c 60 10 01  	lis 3, 4097
10000124: 38 63 56 48  	addi 3, 3, 22088
10000128: 4b ff fe d9  	bl 0x10000000 <write.c+0x10000000>
1000012c: 38 00 00 01  	li 0, 1
10000130: 98 1e 5a ec  	stb 0, 23276(30)
10000134: 80 01 00 14  	lwz 0, 20(1)
10000138: 83 c1 00 08  	lwz 30, 8(1)
1000013c: 83 e1 00 0c  	lwz 31, 12(1)
10000140: 7c 08 03 a6  	mtlr 0
10000144: 38 21 00 10  	addi 1, 1, 16
10000148: 4e 80 00 20  	blr

1000014c <call___do_global_dtors_aux>:
1000014c: 7c 08 02 a6  	mflr 0
10000150: 94 21 ff f0  	stwu 1, -16(1)
10000154: 90 01 00 14  	stw 0, 20(1)
10000158: 80 01 00 14  	lwz 0, 20(1)
1000015c: 38 21 00 10  	addi 1, 1, 16
10000160: 7c 08 03 a6  	mtlr 0
10000164: 4e 80 00 20  	blr

10000168 <frame_dummy>:
10000168: 3d 20 00 00  	lis 9, 0
1000016c: 7c 08 02 a6  	mflr 0
10000170: 39 29 00 00  	addi 9, 9, 0
10000174: 94 21 ff f0  	stwu 1, -16(1)
10000178: 2f 89 00 00  	cmpwi 7, 9, 0
1000017c: 3c 60 10 01  	lis 3, 4097
10000180: 3c 80 10 02  	lis 4, 4098
10000184: 90 01 00 14  	stw 0, 20(1)
10000188: 38 63 56 48  	addi 3, 3, 22088
1000018c: 38 84 5a f0  	addi 4, 4, 23280
10000190: 41 9e 00 08  	bt	30, 0x10000198 <frame_dummy+0x30>
10000194: 4b ff fe 6d  	bl 0x10000000 <write.c+0x10000000>
10000198: 3d 60 10 02  	lis 11, 4098
1000019c: 3d 20 00 00  	lis 9, 0
100001a0: 80 0b 56 5c  	lwz 0, 22108(11)
100001a4: 39 29 00 00  	addi 9, 9, 0
100001a8: 38 6b 56 5c  	addi 3, 11, 22108
100001ac: 2f 80 00 00  	cmpwi 7, 0, 0
100001b0: 41 9e 00 14  	bt	30, 0x100001c4 <frame_dummy+0x5c>
100001b4: 2f 89 00 00  	cmpwi 7, 9, 0
100001b8: 41 9e 00 0c  	bt	30, 0x100001c4 <frame_dummy+0x5c>
100001bc: 7d 29 03 a6  	mtctr 9
100001c0: 4e 80 04 21  	bctrl
100001c4: 80 01 00 14  	lwz 0, 20(1)
100001c8: 38 21 00 10  	addi 1, 1, 16
100001cc: 7c 08 03 a6  	mtlr 0
100001d0: 4e 80 00 20  	blr

100001d4 <call_frame_dummy>:
100001d4: 7c 08 02 a6  	mflr 0
100001d8: 94 21 ff f0  	stwu 1, -16(1)
100001dc: 90 01 00 14  	stw 0, 20(1)
100001e0: 80 01 00 14  	lwz 0, 20(1)
100001e4: 38 21 00 10  	addi 1, 1, 16
100001e8: 7c 08 03 a6  	mtlr 0
100001ec: 4e 80 00 20  	blr

100001f0 <_start>:
100001f0: 7c 29 0b 78  	mr	9, 1
100001f4: 54 21 00 36  	rlwinm 1, 1, 0, 0, 27
100001f8: 3d a0 10 03  	lis 13, 4099
100001fc: 39 ad da 20  	addi 13, 13, -9696
10000200: 38 00 00 00  	li 0, 0
10000204: 94 21 ff f0  	stwu 1, -16(1)
10000208: 7c 08 03 a6  	mtlr 0
1000020c: 90 01 00 00  	stw 0, 0(1)
10000210: 80 89 00 00  	lwz 4, 0(9)
10000214: 38 a9 00 04  	addi 5, 9, 4
10000218: 7c 68 1b 78  	mr	8, 3
1000021c: 3c c0 10 00  	lis 6, 4096
10000220: 38 c6 00 94  	addi 6, 6, 148
10000224: 3c e0 10 01  	lis 7, 4097
10000228: 38 e7 1e b0  	addi 7, 7, 7856
1000022c: 3c 60 10 01  	lis 3, 4097
10000230: 38 63 92 18  	addi 3, 3, -28136
10000234: 48 00 d8 1c  	b 0x1000da50 <__uClibc_main>

10000238 <init_rand>:
10000238: 94 21 ff d0  	stwu 1, -48(1)
1000023c: 93 e1 00 2c  	stw 31, 44(1)
10000240: 7c 3f 0b 78  	mr	31, 1
10000244: 90 7f 00 18  	stw 3, 24(31)
10000248: 3d 20 10 02  	lis 9, 4098
1000024c: 39 29 5b 08  	addi 9, 9, 23304
10000250: 80 1f 00 18  	lwz 0, 24(31)
10000254: 90 09 00 00  	stw 0, 0(9)
10000258: 81 3f 00 18  	lwz 9, 24(31)
1000025c: 3d 29 9e 37  	addis 9, 9, -25033
10000260: 38 09 79 b9  	addi 0, 9, 31161
10000264: 3d 20 10 02  	lis 9, 4098
10000268: 39 29 5b 08  	addi 9, 9, 23304
1000026c: 90 09 00 04  	stw 0, 4(9)
10000270: 81 3f 00 18  	lwz 9, 24(31)
10000274: 3d 29 3c 6f  	addis 9, 9, 15471
10000278: 38 09 f3 72  	addi 0, 9, -3214
1000027c: 3d 20 10 02  	lis 9, 4098
10000280: 39 29 5b 08  	addi 9, 9, 23304
10000284: 90 09 00 08  	stw 0, 8(9)
10000288: 38 00 00 03  	li 0, 3
1000028c: 90 1f 00 08  	stw 0, 8(31)
10000290: 48 00 00 74  	b 0x10000304 <init_rand+0xcc>
10000294: 81 5f 00 08  	lwz 10, 8(31)
10000298: 81 3f 00 08  	lwz 9, 8(31)

--- Symbol Table (first 50 entries) ---

/home/analyst/ir-alalysis/samples/malware/d25092fa0fc23e431944eafb8166f44333cc4acc818515eb7174b7aa3a09289a.elf:	file format elf32-powerpc

SYMBOL TABLE:
10000094 l    d  .init	00000000 .init
100000b8 l    d  .text	00000000 .text
10011eb0 l    d  .fini	00000000 .fini
10011ed0 l    d  .rodata	00000000 .rodata
10015648 l    d  .eh_frame	00000000 .eh_frame
1002564c l    d  .ctors	00000000 .ctors
10025654 l    d  .dtors	00000000 .dtors
1002565c l    d  .jcr	00000000 .jcr
10025660 l    d  .data	00000000 .data
10025a20 l    d  .sdata	00000000 .sdata
10025a68 l    d  .sbss	00000000 .sbss
10025aec l    d  .bss	00000000 .bss
00000000 l    d  .comment	00000000 .comment
00000000 l    d  .shstrtab	00000000 .shstrtab
00000000 l    d  .symtab	00000000 .symtab
00000000 l    d  .strtab	00000000 .strtab
00000000 l    df *ABS*	00000000 initfini.c
00000000 l    df *ABS*	00000000 libc/sysdeps/linux/powerpc/crti.S
00000000 l    df *ABS*	00000000 crtstuff.c
1002564c l     O .ctors	00000000 __CTOR_LIST__
10025654 l     O .dtors	00000000 __DTOR_LIST__
10015648 l     O .eh_frame	00000000 __EH_FRAME_BEGIN__
1002565c l     O .jcr	00000000 __JCR_LIST__
10025aec l     O .bss	00000001 completed.3069
10025664 l     O .data	00000000 p.3067
100000b8 l     F .text	00000000 __do_global_dtors_aux
1000014c l     F .text	00000000 call___do_global_dtors_aux
10025af0 l     O .bss	00000018 object.3150
10000168 l     F .text	00000000 frame_dummy
100001d4 l     F .text	00000000 call_frame_dummy
00000000 l    df *ABS*	00000000 crtstuff.c
10025650 l     O .ctors	00000000 __CTOR_END__
10025658 l     O .dtors	00000000 __DTOR_END__
10015648 l     O .eh_frame	00000000 __FRAME_END__
1002565c l     O .jcr	00000000 __JCR_END__
10011e44 l     F .text	00000000 __do_global_ctors_aux
10011e94 l     F .text	00000000 call___do_global_ctors_aux
00000000 l    df *ABS*	00000000 initfini.c
00000000 l    df *ABS*	00000000 libc/sysdeps/linux/powerpc/crtn.S
00000000 l    df *ABS*	00000000 libc/sysdeps/linux/powerpc/crt1.S
00000000 l    df *ABS*	00000000 bot.c
1002566c l     O .data	00000004 c
10025b08 l     O .bss	00004000 Q
10025670 l     O .data	00000004 i.3740
100005d4 l     F .text	00000080 printchar
10000654 l     F .text	000001a4 prints
100007f8 l     F .text	00000200 printi
100009f8 l     F .text	0000061c print
10025a88 l     O .sbss	00000004 fdopen_pids
10011efc l     O .rodata	00000400 hextable
10012504 l     O .rodata	00000090 C.93.4711

NOTE: For true binary-to-LLVM IR lifting, consider using:
  - mcsema: https://github.com/lifting-bits/mcsema
  - remill: https://github.com/lifting-bits/remill
  - rellic: https://github.com/lifting-bits/rellic

==========================================
LLVM analysis completed successfully
==========================================
LLVM analysis: SUCCESS
	Command being timed: "/home/analyst/ir-alalysis/scripts/analyze_llvm.sh /home/analyst/ir-alalysis/samples/malware/d25092fa0fc23e431944eafb8166f44333cc4acc818515eb7174b7aa3a09289a.elf"
	User time (seconds): 0.02
	System time (seconds): 0.06
	Percent of CPU this job got: 96%
	Elapsed (wall clock) time (h:mm:ss or m:ss): 0:00.09
	Average shared text size (kbytes): 0
	Average unshared data size (kbytes): 0
	Average stack size (kbytes): 0
	Average total size (kbytes): 0
	Maximum resident set size (kbytes): 51712
	Average resident set size (kbytes): 0
	Major (requiring I/O) page faults: 3
	Minor (reclaiming a frame) page faults: 10019
	Voluntary context switches: 24
	Involuntary context switches: 34
	Swaps: 0
	File system inputs: 736
	File system outputs: 24
	Socket messages sent: 0
	Socket messages received: 0
	Signals delivered: 0
	Page size (bytes): 4096
	Exit status: 0

Completed: d25092fa0fc23e431944eafb8166f44333cc4acc818515eb7174b7aa3a09289a.elf

========================================
Processing sample 43: e1603bb7a3bf14f34930dac22733746421b3f74f802768bc989ada860c98601d.elf
========================================

--- Ghidra P-code Analysis ---

Ghidra analysis: SUCCESS
==========================================
Ghidra Headless Analysis
==========================================
Binary:  /home/analyst/ir-alalysis/samples/malware/e1603bb7a3bf14f34930dac22733746421b3f74f802768bc989ada860c98601d.elf
Project: ghidra_analysis_e1603bb7a3bf14f34930dac22733746421b3f74f802768bc989ada860c98601d.elf_20251025_203400
Location: ./ghidra_projects
==========================================
INFO  Using log config file: jar:file:/home/analyst/ghidra/Ghidra/Framework/Generic/lib/Generic.jar!/generic.log4j.xml (LoggingInitialization)  
INFO  Using log file: /home/analyst/.config/ghidra/ghidra_11.4.2_PUBLIC/application.log (LoggingInitialization)  
INFO  Loading user preferences: /home/analyst/.config/ghidra/ghidra_11.4.2_PUBLIC/preferences (Preferences)  
INFO  Searching for classes... (ClassSearcher)  
INFO  Class search complete (1310 ms) (ClassSearcher)  
INFO  Initializing SSL Context (SSLContextInitializer)  
INFO  Initializing Random Number Generator... (SecureRandomFactory)  
INFO  Random Number Generator initialization complete: NativePRNGNonBlocking (SecureRandomFactory)  
INFO  Trust manager disabled, cacerts have not been set (ApplicationTrustManagerFactory)  
INFO  Headless startup complete (4235 ms) (AnalyzeHeadless)  
INFO  Class searcher loaded 58 extension points (18 false positives) (ClassSearcher)  
INFO  HEADLESS Script Paths:
    /home/analyst/ghidra/Ghidra/Features/GnuDemangler/ghidra_scripts
    /home/analyst/ghidra/Ghidra/Features/BytePatterns/ghidra_scripts
    /home/analyst/ghidra/Ghidra/Features/SystemEmulation/ghidra_scripts
    /home/analyst/ghidra/Ghidra/Processors/DATA/ghidra_scripts
    /home/analyst/ghidra/Ghidra/Features/PyGhidra/ghidra_scripts
    /home/analyst/ghidra/Ghidra/Features/MicrosoftCodeAnalyzer/ghidra_scripts
    /home/analyst/ghidra/Ghidra/Features/Base/ghidra_scripts
    /home/analyst/ghidra/Ghidra/Features/Jython/ghidra_scripts
    /home/analyst/ghidra/Ghidra/Features/VersionTracking/ghidra_scripts
    /home/analyst/ghidra/Ghidra/Features/PDB/ghidra_scripts
    /home/analyst/ghidra/Ghidra/Processors/Atmel/ghidra_scripts
    /home/analyst/ghidra/Ghidra/Debug/Debugger-rmi-trace/ghidra_scripts
    /home/analyst/ghidra/Ghidra/Features/FileFormats/ghidra_scripts
    /home/analyst/ghidra/Ghidra/Processors/JVM/ghidra_scripts
    /home/analyst/ghidra/Ghidra/Debug/Debugger/ghidra_scripts
    /home/analyst/ghidra/Ghidra/Processors/PIC/ghidra_scripts
    /home/analyst/ghidra/Ghidra/Features/WildcardAssembler/ghidra_scripts
    /home/analyst/ghidra/Ghidra/Processors/8051/ghidra_scripts
    /home/analyst/ghidra/Ghidra/Features/Decompiler/ghidra_scripts
    /home/analyst/ghidra/Ghidra/Features/DecompilerDependent/ghidra_scripts
    /home/analyst/ghidra/Ghidra/Features/FunctionID/ghidra_scripts
    /home/analyst/ghidra/Ghidra/Features/SwiftDemangler/ghidra_scripts
    /home/analyst/ghidra/Ghidra/Features/BSim/ghidra_scripts (HeadlessAnalyzer)  
INFO  HEADLESS: execution starts (HeadlessAnalyzer)  
INFO  Creating temporary project: /home/analyst/ir-alalysis/./ghidra_projects/ghidra_analysis_e1603bb7a3bf14f34930dac22733746421b3f74f802768bc989ada860c98601d.elf_20251025_203400 (HeadlessAnalyzer)  
INFO  Creating project: /home/analyst/ir-alalysis/./ghidra_projects/ghidra_analysis_e1603bb7a3bf14f34930dac22733746421b3f74f802768bc989ada860c98601d.elf_20251025_203400 (DefaultProject)  
INFO  REPORT: Processing input files:  (HeadlessAnalyzer)  
INFO       project: /home/analyst/ir-alalysis/./ghidra_projects/ghidra_analysis_e1603bb7a3bf14f34930dac22733746421b3f74f802768bc989ada860c98601d.elf_20251025_203400 (HeadlessAnalyzer)  
INFO  IMPORTING: file:///home/analyst/ir-alalysis/samples/malware/e1603bb7a3bf14f34930dac22733746421b3f74f802768bc989ada860c98601d.elf (HeadlessAnalyzer)  
INFO  No load spec found for import file: /home/analyst/ir-alalysis/samples/malware/e1603bb7a3bf14f34930dac22733746421b3f74f802768bc989ada860c98601d.elf (AutoImporter)  
ERROR The AutoImporter could not successfully load file:///home/analyst/ir-alalysis/samples/malware/e1603bb7a3bf14f34930dac22733746421b3f74f802768bc989ada860c98601d.elf with the provided import parameters. Please ensure that any specified processor/cspec arguments are compatible with the loader that is used during import and try again. (HeadlessAnalyzer)  
ERROR REPORT: Import failed for file: file:///home/analyst/ir-alalysis/samples/malware/e1603bb7a3bf14f34930dac22733746421b3f74f802768bc989ada860c98601d.elf (HeadlessAnalyzer)  
==========================================
Ghidra analysis completed successfully
==========================================

Ghidra CFG Stats:
  (CFG stats not available)

Ghidra Performance:
	Elapsed (wall clock) time (h:mm:ss or m:ss): 0:07.01
	Maximum resident set size (kbytes): 207072

--- angr VEX IR Analysis ---

angr analysis: FAILED
==================================================
angr VEX IR Analysis
==================================================
Binary: /home/analyst/ir-alalysis/samples/malware/e1603bb7a3bf14f34930dac22733746421b3f74f802768bc989ada860c98601d.elf
==================================================
Loading binary with angr...

angr CFG Stats:
  (CFG stats not available)

angr Performance:
	Elapsed (wall clock) time (h:mm:ss or m:ss): 0:01.58
	Maximum resident set size (kbytes): 101860

--- LLVM IR Analysis ---

==========================================
LLVM IR Analysis
==========================================
Binary:  /home/analyst/ir-alalysis/samples/malware/e1603bb7a3bf14f34930dac22733746421b3f74f802768bc989ada860c98601d.elf
==========================================

Detected native binary (not LLVM bitcode)
Performing LLVM-based binary analysis...

--- Binary Information ---

/home/analyst/ir-alalysis/samples/malware/e1603bb7a3bf14f34930dac22733746421b3f74f802768bc989ada860c98601d.elf:	file format elf32-unknown

Sections:
Idx Name            Size     VMA      Type
  0                 00000000 00000000 
  1 .init           00000022 00010114 TEXT
  2 .text           00010adc 00010138 TEXT
  3 .fini           00000016 00020c14 TEXT
  4 .rodata         00008080 00020c2c DATA
  5 .tbss           00000008 0002bfe0 BSS
  6 .fini_array     00000004 0002bfe0 
  7 .ctors          00000008 0002bfe4 DATA
  8 .dtors          00000008 0002bfec DATA
  9 .got            00000008 0002bff4 DATA
 10 .data           0000024c 0002c008 DATA
 11 .bss            00003c24 0002c254 BSS
 12 .ARC.attributes 00000032 00000000 
 13 .shstrtab       00000065 00000000 

--- Disassembly (first 100 instructions) ---

/home/analyst/ir-alalysis/samples/malware/e1603bb7a3bf14f34930dac22733746421b3f74f802768bc989ada860c98601d.elf:	file format elf32-unknown
llvm-objdump: error: '/home/analyst/ir-alalysis/samples/malware/e1603bb7a3bf14f34930dac22733746421b3f74f802768bc989ada860c98601d.elf': can't find target: : error: unable to get target for 'unknown--', see --version and --triple.


--- Symbol Table (first 50 entries) ---

/home/analyst/ir-alalysis/samples/malware/e1603bb7a3bf14f34930dac22733746421b3f74f802768bc989ada860c98601d.elf:	file format elf32-unknown

SYMBOL TABLE:

NOTE: For true binary-to-LLVM IR lifting, consider using:
  - mcsema: https://github.com/lifting-bits/mcsema
  - remill: https://github.com/lifting-bits/remill
  - rellic: https://github.com/lifting-bits/rellic

==========================================
LLVM analysis completed successfully
==========================================
LLVM analysis: SUCCESS
	Command being timed: "/home/analyst/ir-alalysis/scripts/analyze_llvm.sh /home/analyst/ir-alalysis/samples/malware/e1603bb7a3bf14f34930dac22733746421b3f74f802768bc989ada860c98601d.elf"
	User time (seconds): 0.01
	System time (seconds): 0.06
	Percent of CPU this job got: 96%
	Elapsed (wall clock) time (h:mm:ss or m:ss): 0:00.07
	Average shared text size (kbytes): 0
	Average unshared data size (kbytes): 0
	Average stack size (kbytes): 0
	Average total size (kbytes): 0
	Maximum resident set size (kbytes): 50560
	Average resident set size (kbytes): 0
	Major (requiring I/O) page faults: 0
	Minor (reclaiming a frame) page faults: 9963
	Voluntary context switches: 20
	Involuntary context switches: 37
	Swaps: 0
	File system inputs: 0
	File system outputs: 8
	Socket messages sent: 0
	Socket messages received: 0
	Signals delivered: 0
	Page size (bytes): 4096
	Exit status: 0

Completed: e1603bb7a3bf14f34930dac22733746421b3f74f802768bc989ada860c98601d.elf

========================================
Processing sample 44: ecb3e0b81361f60b06ab29343e128f6548eb6d086862303ff74e5736955915bb.exe
========================================

--- Ghidra P-code Analysis ---

Ghidra analysis: SUCCESS
==========================================
Ghidra Headless Analysis
==========================================
Binary:  /home/analyst/ir-alalysis/samples/malware/ecb3e0b81361f60b06ab29343e128f6548eb6d086862303ff74e5736955915bb.exe
Project: ghidra_analysis_ecb3e0b81361f60b06ab29343e128f6548eb6d086862303ff74e5736955915bb.exe_20251025_203409
Location: ./ghidra_projects
==========================================
INFO  Using log config file: jar:file:/home/analyst/ghidra/Ghidra/Framework/Generic/lib/Generic.jar!/generic.log4j.xml (LoggingInitialization)  
INFO  Using log file: /home/analyst/.config/ghidra/ghidra_11.4.2_PUBLIC/application.log (LoggingInitialization)  
INFO  Loading user preferences: /home/analyst/.config/ghidra/ghidra_11.4.2_PUBLIC/preferences (Preferences)  
INFO  Searching for classes... (ClassSearcher)  
INFO  Class search complete (1539 ms) (ClassSearcher)  
INFO  Initializing SSL Context (SSLContextInitializer)  
INFO  Initializing Random Number Generator... (SecureRandomFactory)  
INFO  Random Number Generator initialization complete: NativePRNGNonBlocking (SecureRandomFactory)  
INFO  Trust manager disabled, cacerts have not been set (ApplicationTrustManagerFactory)  
INFO  Headless startup complete (4966 ms) (AnalyzeHeadless)  
INFO  Class searcher loaded 58 extension points (18 false positives) (ClassSearcher)  
INFO  HEADLESS Script Paths:
    /home/analyst/ghidra/Ghidra/Features/GnuDemangler/ghidra_scripts
    /home/analyst/ghidra/Ghidra/Features/BytePatterns/ghidra_scripts
    /home/analyst/ghidra/Ghidra/Features/SystemEmulation/ghidra_scripts
    /home/analyst/ghidra/Ghidra/Processors/DATA/ghidra_scripts
    /home/analyst/ghidra/Ghidra/Features/PyGhidra/ghidra_scripts
    /home/analyst/ghidra/Ghidra/Features/MicrosoftCodeAnalyzer/ghidra_scripts
    /home/analyst/ghidra/Ghidra/Features/Base/ghidra_scripts
    /home/analyst/ghidra/Ghidra/Features/Jython/ghidra_scripts
    /home/analyst/ghidra/Ghidra/Features/VersionTracking/ghidra_scripts
    /home/analyst/ghidra/Ghidra/Features/PDB/ghidra_scripts
    /home/analyst/ghidra/Ghidra/Processors/Atmel/ghidra_scripts
    /home/analyst/ghidra/Ghidra/Debug/Debugger-rmi-trace/ghidra_scripts
    /home/analyst/ghidra/Ghidra/Features/FileFormats/ghidra_scripts
    /home/analyst/ghidra/Ghidra/Processors/JVM/ghidra_scripts
    /home/analyst/ghidra/Ghidra/Debug/Debugger/ghidra_scripts
    /home/analyst/ghidra/Ghidra/Processors/PIC/ghidra_scripts
    /home/analyst/ghidra/Ghidra/Features/WildcardAssembler/ghidra_scripts
    /home/analyst/ghidra/Ghidra/Processors/8051/ghidra_scripts
    /home/analyst/ghidra/Ghidra/Features/Decompiler/ghidra_scripts
    /home/analyst/ghidra/Ghidra/Features/DecompilerDependent/ghidra_scripts
    /home/analyst/ghidra/Ghidra/Features/FunctionID/ghidra_scripts
    /home/analyst/ghidra/Ghidra/Features/SwiftDemangler/ghidra_scripts
    /home/analyst/ghidra/Ghidra/Features/BSim/ghidra_scripts (HeadlessAnalyzer)  
INFO  HEADLESS: execution starts (HeadlessAnalyzer)  
INFO  Creating temporary project: /home/analyst/ir-alalysis/./ghidra_projects/ghidra_analysis_ecb3e0b81361f60b06ab29343e128f6548eb6d086862303ff74e5736955915bb.exe_20251025_203409 (HeadlessAnalyzer)  
INFO  Creating project: /home/analyst/ir-alalysis/./ghidra_projects/ghidra_analysis_ecb3e0b81361f60b06ab29343e128f6548eb6d086862303ff74e5736955915bb.exe_20251025_203409 (DefaultProject)  
INFO  REPORT: Processing input files:  (HeadlessAnalyzer)  
INFO       project: /home/analyst/ir-alalysis/./ghidra_projects/ghidra_analysis_ecb3e0b81361f60b06ab29343e128f6548eb6d086862303ff74e5736955915bb.exe_20251025_203409 (HeadlessAnalyzer)  
INFO  IMPORTING: file:///home/analyst/ir-alalysis/samples/malware/ecb3e0b81361f60b06ab29343e128f6548eb6d086862303ff74e5736955915bb.exe (HeadlessAnalyzer)  
INFO  Using Loader: Portable Executable (PE) (AutoImporter)  
INFO  Using Language/Compiler: x86:LE:32:default:windows (AutoImporter)  
INFO  Using Library Search Path: [., /bin, /lib, /lib64, /lib/x86_64-linux-gnu, /lib/aarch64-linux-gnu, /usr/bin, /usr/lib, /usr/X11R6/bin, /usr/X11R6/lib, /usr/java/packages/lib, /usr/lib/x86_64-linux-gnu/jni, /usr/lib/x86_64-linux-gnu, /usr/lib/jni] (AutoImporter)  
WARN  An unrecognized data type was detected in a Constant blob: type ELEMENT_TYPE_CLASS @ Generic_1517 (CliSigConstant)  
ERROR Cannot replace existing blob at address 0041758d with ConstantSig_1517 because they have different sizes (Old: 5, New: 2). (CliStreamBlob)  
WARN  An unrecognized data type was detected in a Constant blob: type ELEMENT_TYPE_CLASS @ Generic_1517 (CliSigConstant)  
ERROR Cannot replace existing blob at address 0041758d with ConstantSig_1517 because they have different sizes (Old: 5, New: 2). (CliStreamBlob)  
ERROR Cannot replace existing blob at address 004191f5 with CustomAttrib_8789 because they have different sizes (Old: 72, New: 56). (CliStreamBlob)  
ERROR Cannot replace existing blob at address 0041840e with CustomAttrib_5230 because they have different sizes (Old: 17, New: 13). (CliStreamBlob)  
ERROR Cannot replace existing blob at address 0041841f with CustomAttrib_5247 because they have different sizes (Old: 18, New: 13). (CliStreamBlob)  
ERROR Cannot replace existing blob at address 004184ff with CustomAttrib_5471 because they have different sizes (Old: 24, New: 13). (CliStreamBlob)  
ERROR Cannot replace existing blob at address 00418517 with CustomAttrib_5495 because they have different sizes (Old: 27, New: 13). (CliStreamBlob)  
ERROR Cannot replace existing blob at address 0041853c with CustomAttrib_5532 because they have different sizes (Old: 19, New: 13). (CliStreamBlob)  
ERROR Cannot replace existing blob at address 00418559 with CustomAttrib_5561 because they have different sizes (Old: 22, New: 13). (CliStreamBlob)  
ERROR Cannot replace existing blob at address 00418579 with CustomAttrib_5593 because they have different sizes (Old: 15, New: 13). (CliStreamBlob)  
ERROR Cannot replace existing blob at address 00418592 with CustomAttrib_5618 because they have different sizes (Old: 20, New: 13). (CliStreamBlob)  
ERROR Cannot replace existing blob at address 004185de with CustomAttrib_5694 because they have different sizes (Old: 17, New: 13). (CliStreamBlob)  
ERROR Cannot replace existing blob at address 004185ef with CustomAttrib_5711 because they have different sizes (Old: 17, New: 13). (CliStreamBlob)  
ERROR Cannot replace existing blob at address 00418600 with CustomAttrib_5728 because they have different sizes (Old: 17, New: 13). (CliStreamBlob)  
ERROR Cannot replace existing blob at address 00418611 with CustomAttrib_5745 because they have different sizes (Old: 19, New: 13). (CliStreamBlob)  
ERROR Cannot replace existing blob at address 00418628 with CustomAttrib_5768 because they have different sizes (Old: 20, New: 13). (CliStreamBlob)  
ERROR Cannot replace existing blob at address 0041840e with CustomAttrib_5230 because they have different sizes (Old: 17, New: 13). (CliStreamBlob)  
ERROR Cannot replace existing blob at address 0041841f with CustomAttrib_5247 because they have different sizes (Old: 18, New: 13). (CliStreamBlob)  
ERROR Cannot replace existing blob at address 00418673 with CustomAttrib_5843 because they have different sizes (Old: 23, New: 13). (CliStreamBlob)  
ERROR Cannot replace existing blob at address 0041868a with CustomAttrib_5866 because they have different sizes (Old: 18, New: 13). (CliStreamBlob)  
ERROR Cannot replace existing blob at address 0041869c with CustomAttrib_5884 because they have different sizes (Old: 17, New: 13). (CliStreamBlob)  
ERROR Cannot replace existing blob at address 004186ad with CustomAttrib_5901 because they have different sizes (Old: 19, New: 13). (CliStreamBlob)  
ERROR Cannot replace existing blob at address 004186ec with CustomAttrib_5964 because they have different sizes (Old: 16, New: 13). (CliStreamBlob)  
ERROR Cannot replace existing blob at address 004186fc with CustomAttrib_5980 because they have different sizes (Old: 21, New: 13). (CliStreamBlob)  
ERROR Cannot replace existing blob at address 00418711 with CustomAttrib_6001 because they have different sizes (Old: 21, New: 13). (CliStreamBlob)  
ERROR Cannot replace existing blob at address 004187c7 with CustomAttrib_6183 because they have different sizes (Old: 25, New: 13). (CliStreamBlob)  
ERROR Cannot replace existing blob at address 004187e0 with CustomAttrib_6208 because they have different sizes (Old: 22, New: 13). (CliStreamBlob)  
ERROR Cannot replace existing blob at address 004187f6 with CustomAttrib_6230 because they have different sizes (Old: 20, New: 13). (CliStreamBlob)  
ERROR Cannot replace existing blob at address 0041880a with CustomAttrib_6250 because they have different sizes (Old: 24, New: 13). (CliStreamBlob)  
ERROR Cannot replace existing blob at address 00418822 with CustomAttrib_6274 because they have different sizes (Old: 23, New: 13). (CliStreamBlob)  
ERROR Cannot replace existing blob at address 00418839 with CustomAttrib_6297 because they have different sizes (Old: 25, New: 13). (CliStreamBlob)  
ERROR Cannot replace existing blob at address 00418852 with CustomAttrib_6322 because they have different sizes (Old: 20, New: 13). (CliStreamBlob)  
ERROR Cannot replace existing blob at address 00418866 with CustomAttrib_6342 because they have different sizes (Old: 22, New: 13). (CliStreamBlob)  
ERROR Cannot replace existing blob at address 0041887c with CustomAttrib_6364 because they have different sizes (Old: 24, New: 13). (CliStreamBlob)  
ERROR Cannot replace existing blob at address 00418894 with CustomAttrib_6388 because they have different sizes (Old: 27, New: 13). (CliStreamBlob)  
ERROR Cannot replace existing blob at address 004188af with CustomAttrib_6415 because they have different sizes (Old: 27, New: 13). (CliStreamBlob)  
ERROR Cannot replace existing blob at address 004188ca with CustomAttrib_6442 because they have different sizes (Old: 22, New: 13). (CliStreamBlob)  
ERROR Cannot replace existing blob at address 004188e0 with CustomAttrib_6464 because they have different sizes (Old: 36, New: 13). (CliStreamBlob)  
ERROR Cannot replace existing blob at address 00418904 with CustomAttrib_6500 because they have different sizes (Old: 35, New: 13). (CliStreamBlob)  
ERROR Cannot replace existing blob at address 004189e9 with CustomAttrib_6729 because they have different sizes (Old: 26, New: 13). (CliStreamBlob)  
ERROR Cannot replace existing blob at address 00418a03 with CustomAttrib_6755 because they have different sizes (Old: 31, New: 13). (CliStreamBlob)  
ERROR Cannot replace existing blob at address 00418a22 with CustomAttrib_6786 because they have different sizes (Old: 22, New: 13). (CliStreamBlob)  
ERROR Cannot replace existing blob at address 00418a38 with CustomAttrib_6808 because they have different sizes (Old: 22, New: 13). (CliStreamBlob)  
ERROR Cannot replace existing blob at address 00418a58 with CustomAttrib_6840 because they have different sizes (Old: 28, New: 13). (CliStreamBlob)  
ERROR Cannot replace existing blob at address 00418a7e with CustomAttrib_6878 because they have different sizes (Old: 21, New: 13). (CliStreamBlob)  
ERROR Cannot replace existing blob at address 00418a9d with CustomAttrib_6909 because they have different sizes (Old: 27, New: 13). (CliStreamBlob)  
ERROR Cannot replace existing blob at address 00418ac2 with CustomAttrib_6946 because they have different sizes (Old: 30, New: 13). (CliStreamBlob)  
ERROR Cannot replace existing blob at address 00418aea with CustomAttrib_6986 because they have different sizes (Old: 25, New: 13). (CliStreamBlob)  
ERROR Cannot replace existing blob at address 00418b03 with CustomAttrib_7011 because they have different sizes (Old: 30, New: 13). (CliStreamBlob)  
ERROR Cannot replace existing blob at address 00418b21 with CustomAttrib_7041 because they have different sizes (Old: 27, New: 13). (CliStreamBlob)  
ERROR Cannot replace existing blob at address 00418b3c with CustomAttrib_7068 because they have different sizes (Old: 17, New: 13). (CliStreamBlob)  
ERROR Cannot replace existing blob at address 00418b4d with CustomAttrib_7085 because they have different sizes (Old: 17, New: 13). (CliStreamBlob)  
ERROR Cannot replace existing blob at address 004183f6 with CustomAttrib_5206 because they have different sizes (Old: 21, New: 13). (CliStreamBlob)  
ERROR Cannot replace existing blob at address 00418b5e with CustomAttrib_7102 because they have different sizes (Old: 19, New: 13). (CliStreamBlob)  
ERROR Cannot replace existing blob at address 00418b71 with CustomAttrib_7121 because they have different sizes (Old: 31, New: 13). (CliStreamBlob)  
ERROR Cannot replace existing blob at address 00418b90 with CustomAttrib_7152 because they have different sizes (Old: 26, New: 13). (CliStreamBlob)  
ERROR Cannot replace existing blob at address 0041840e with CustomAttrib_5230 because they have different sizes (Old: 17, New: 13). (CliStreamBlob)  
WARN  Invalid FieldOrProp value in NamedArg #2: 0x41 (CliBlobCustomAttrib)  
ERROR Cannot replace existing blob at address 00418431 with CustomAttrib_5265 because they have different sizes (Old: 50, New: 13). (CliStreamBlob)  
ERROR Cannot replace existing blob at address 00418bec with CustomAttrib_7244 because they have different sizes (Old: 20, New: 13). (CliStreamBlob)  
ERROR Failed to markup CustomAttribute: Cannot invoke "ghidra.app.util.bin.format.pe.cli.blobs.CliAbstractSig$CliElementType.name()" because the return value of "ghidra.app.util.bin.format.pe.cli.blobs.CliBlobCustomAttrib$CliNamedArg.getFieldOrPropType()" is null (CliStreamMetadata)  
INFO  Removing 6 unused filesystems from cache (FileSystemInstanceManager)  
INFO  Additional info:
Loading file:///home/analyst/ir-alalysis/samples/malware/ecb3e0b81361f60b06ab29343e128f6548eb6d086862303ff74e5736955915bb.exe?MD5=55ac098c098ee3334bfdba85ec6b967b...
------------------------------------------------

Searching 9 paths for library MSCOREE.DLL...
Library not found.
------------------------------------------------

Linking the External Programs of 'ecb3e0b81361f60b06ab29343e128f6548eb6d086862303ff74e5736955915bb.exe' to imported libraries...
  [MSCOREE.DLL] -> not found in project
------------------------------------------------

 (AutoImporter)  
INFO  IMPORTING: Loaded 0 additional files (HeadlessAnalyzer)  
INFO  ANALYZING all memory and code: file:///home/analyst/ir-alalysis/samples/malware/ecb3e0b81361f60b06ab29343e128f6548eb6d086862303ff74e5736955915bb.exe (HeadlessAnalyzer)  
ERROR REPORT: Analysis timed out at 0 seconds. Processing not completed for file: file:///home/analyst/ir-alalysis/samples/malware/ecb3e0b81361f60b06ab29343e128f6548eb6d086862303ff74e5736955915bb.exe (HeadlessAnalyzer)  
INFO  SCRIPT: /home/analyst/ir-alalysis/scripts/get_cfg_stats.py (HeadlessAnalyzer)  
GHIDRA_STATS:Functions=414
GHIDRA_STATS:BasicBlocks=0
GHIDRA_STATS:TotalPcodeOps=0
INFO  ANALYZING changes made by post scripts: file:///home/analyst/ir-alalysis/samples/malware/ecb3e0b81361f60b06ab29343e128f6548eb6d086862303ff74e5736955915bb.exe (HeadlessAnalyzer)  
INFO  REPORT: Post-analysis succeeded for file: file:///home/analyst/ir-alalysis/samples/malware/ecb3e0b81361f60b06ab29343e128f6548eb6d086862303ff74e5736955915bb.exe (HeadlessAnalyzer)  
INFO  REPORT: Save succeeded for: /ecb3e0b81361f60b06ab29343e128f6548eb6d086862303ff74e5736955915bb.exe (ghidra_analysis_ecb3e0b81361f60b06ab29343e128f6548eb6d086862303ff74e5736955915bb.exe_20251025_203409:/ecb3e0b81361f60b06ab29343e128f6548eb6d086862303ff74e5736955915bb.exe) (HeadlessAnalyzer)  
INFO  REPORT: Import succeeded (HeadlessAnalyzer)  
==========================================
Ghidra analysis completed successfully
==========================================

Ghidra CFG Stats:
GHIDRA_STATS:Functions=414
GHIDRA_STATS:BasicBlocks=0
GHIDRA_STATS:TotalPcodeOps=0

Ghidra Performance:
	Elapsed (wall clock) time (h:mm:ss or m:ss): 0:23.74
	Maximum resident set size (kbytes): 725788

--- angr VEX IR Analysis ---

angr analysis: SUCCESS
==================================================
angr VEX IR Analysis
==================================================
Binary: /home/analyst/ir-alalysis/samples/malware/ecb3e0b81361f60b06ab29343e128f6548eb6d086862303ff74e5736955915bb.exe
==================================================
Loading binary with angr...
Architecture: X86
Entry point: 0x41932e
Binary base address: 0x400000

Generating CFG with angr...
Functions discovered: 2
Basic blocks (CFG nodes): 2
CFG edges: 1

Counting VEX IR statements...
Total VEX statements: 2

--- angr CFG & IR Stats ---
ANGR_STATS:Functions=2
ANGR_STATS:Nodes=2
ANGR_STATS:Edges=1
ANGR_STATS:TotalVexStatements=2
---------------------------

Sample functions (first 10):
  - _start @ 0x41932e
  - _CorExeMain @ 0x500000
==================================================
angr analysis completed successfully
==================================================

angr CFG Stats:
ANGR_STATS:Functions=2
ANGR_STATS:Nodes=2
ANGR_STATS:Edges=1
ANGR_STATS:TotalVexStatements=2

angr Performance:
	Elapsed (wall clock) time (h:mm:ss or m:ss): 0:01.78
	Maximum resident set size (kbytes): 131016

--- LLVM IR Analysis ---

==========================================
LLVM IR Analysis
==========================================
Binary:  /home/analyst/ir-alalysis/samples/malware/ecb3e0b81361f60b06ab29343e128f6548eb6d086862303ff74e5736955915bb.exe
==========================================

Detected native binary (not LLVM bitcode)
Performing LLVM-based binary analysis...

--- Binary Information ---

/home/analyst/ir-alalysis/samples/malware/ecb3e0b81361f60b06ab29343e128f6548eb6d086862303ff74e5736955915bb.exe:	file format coff-i386

Sections:
Idx Name          Size     VMA      Type
  0 .text         00017334 00402000 TEXT
  1 .rsrc         000004de 0041a000 DATA
  2 .reloc        0000000c 0041c000 DATA

--- Disassembly (first 100 instructions) ---

/home/analyst/ir-alalysis/samples/malware/ecb3e0b81361f60b06ab29343e128f6548eb6d086862303ff74e5736955915bb.exe:	file format coff-i386

Disassembly of section .text:

00402000 <.text>:
  402000: 10 93 01 00 00 00            	adcb	%dl, 1(%ebx)
  402006: 00 00                        	addb	%al, (%eax)
  402008: 48                           	decl	%eax
  402009: 00 00                        	addb	%al, (%eax)
  40200b: 00 02                        	addb	%al, (%edx)
  40200d: 00 05 00 b4 af 00            	addb	%al, 11514880
  402013: 00 2c e3                     	addb	%ch, (%ebx,%eiz,8)
  402016: 00 00                        	addb	%al, (%eax)
  402018: 03 00                        	addl	(%eax), %eax
  40201a: 00 00                        	addb	%al, (%eax)
  40201c: 43                           	incl	%ebx
  40201d: 00 00                        	addb	%al, (%eax)
  40201f: 06                           	pushl	%es
		...
  402050: 1b 30                        	sbbl	(%eax), %esi
  402052: 09 00                        	orl	%eax, (%eax)
  402054: 20 03                        	andb	%al, (%ebx)
  402056: 00 00                        	addb	%al, (%eax)
  402058: 01 00                        	addl	%eax, (%eax)
  40205a: 00 11                        	addb	%dl, (%ecx)
  40205c: 73 01                        	jae	0x40205f <.text+0x5f>
  40205e: 00 00                        	addb	%al, (%eax)
  402060: 0a 0a                        	orb	(%edx), %cl
  402062: 02 7e 03                     	addb	3(%esi), %bh
  402065: 00 00                        	addb	%al, (%eax)
  402067: 04 25                        	addb	$37, %al
  402069: 2d 17 26 7e 02               	subl	$41821719, %eax         # imm = 0x27E2617
  40206e: 00 00                        	addb	%al, (%eax)
  402070: 04 fe                        	addb	$-2, %al
  402072: 06                           	pushl	%es
  402073: 10 00                        	adcb	%al, (%eax)
  402075: 00 06                        	addb	%al, (%esi)
  402077: 73 02                        	jae	0x40207b <.text+0x7b>
  402079: 00 00                        	addb	%al, (%eax)
  40207b: 0a 25 80 03 00 00            	orb	896, %ah
  402081: 04 28                        	addb	$40, %al
  402083: 01 00                        	addl	%eax, (%eax)
  402085: 00 2b                        	addb	%ch, (%ebx)
  402087: 6f                           	outsl	(%esi), %dx
  402088: 04 00                        	addb	$0, %al
  40208a: 00 0a                        	addb	%cl, (%edx)
  40208c: 0b 38                        	orl	(%eax), %edi
  40208e: cc                           	int3
  40208f: 02 00                        	addb	(%eax), %al
  402091: 00 07                        	addb	%al, (%edi)
  402093: 6f                           	outsl	(%esi), %dx
  402094: 05 00 00 0a 17               	addl	$386531328, %eax        # imm = 0x170A0000
  402099: 17                           	popl	%ss
  40209a: 19 8d 08 00 00 01            	sbbl	%ecx, 16777224(%ebp)
  4020a0: 25 16 1f 0a 8d               	andl	$2366250774, %eax       # imm = 0x8D0A1F16
  4020a5: 09 00                        	orl	%eax, (%eax)
  4020a7: 00 01                        	addb	%al, (%ecx)
  4020a9: 25 d0 0a 01 00               	andl	$68304, %eax            # imm = 0x10AD0
  4020ae: 04 28                        	addb	$40, %al
  4020b0: 06                           	pushl	%es
  4020b1: 00 00                        	addb	%al, (%eax)
  4020b3: 0a 73 07                     	orb	7(%ebx), %dh
  4020b6: 00 00                        	addb	%al, (%eax)
  4020b8: 0a a2 25 17 1e 8d            	orb	-1927407835(%edx), %ah
  4020be: 09 00                        	orl	%eax, (%eax)
  4020c0: 00 01                        	addb	%al, (%ecx)
  4020c2: 25 d0 02 01 00               	andl	$66256, %eax            # imm = 0x102D0
  4020c7: 04 28                        	addb	$40, %al
  4020c9: 06                           	pushl	%es
  4020ca: 00 00                        	addb	%al, (%eax)
  4020cc: 0a 73 07                     	orb	7(%ebx), %dh
  4020cf: 00 00                        	addb	%al, (%eax)
  4020d1: 0a a2 25 18 1d 8d            	orb	-1927473115(%edx), %ah
  4020d7: 09 00                        	orl	%eax, (%eax)
  4020d9: 00 01                        	addb	%al, (%ecx)
  4020db: 25 d0 07 01 00               	andl	$67536, %eax            # imm = 0x107D0
  4020e0: 04 28                        	addb	$40, %al
  4020e2: 06                           	pushl	%es
  4020e3: 00 00                        	addb	%al, (%eax)
  4020e5: 0a 73 07                     	orb	7(%ebx), %dh
  4020e8: 00 00                        	addb	%al, (%eax)
  4020ea: 0a a2 28 01 01 00            	orb	65832(%edx), %ah
  4020f0: 06                           	pushl	%es
  4020f1: 6f                           	outsl	(%esi), %dx
  4020f2: 08 00                        	orb	%al, (%eax)
  4020f4: 00 0a                        	addb	%cl, (%edx)
  4020f6: 0c 38                        	orb	$56, %al
  4020f8: 46                           	incl	%esi
  4020f9: 02 00                        	addb	(%eax), %al
  4020fb: 00 12                        	addb	%dl, (%edx)
  4020fd: 02 28                        	addb	(%eax), %ch
  4020ff: 09 00                        	orl	%eax, (%eax)
  402101: 00 0a                        	addb	%cl, (%edx)
  402103: 0d 73 09 00 00               	orl	$2419, %eax             # imm = 0x973
  402108: 06                           	pushl	%es
  402109: 13 04 73                     	adcl	(%ebx,%esi,2), %eax
  40210c: 2c 01                        	subb	$1, %al
  40210e: 00 06                        	addb	%al, (%esi)
  402110: 13 05 11 04 7e 0a            	adcl	176030737, %eax
  402116: 00 00                        	addb	%al, (%eax)
  402118: 0a 7d 01                     	orb	1(%ebp), %bh
  40211b: 00 00                        	addb	%al, (%eax)
  40211d: 04 7e                        	addb	$126, %al
  40211f: 0a 00                        	orb	(%eax), %al
  402121: 00 0a                        	addb	%cl, (%edx)
  402123: 13 06                        	adcl	(%esi), %eax
  402125: 11 04 09                     	adcl	%eax, (%ecx,%ecx)
  402128: 73 0b                        	jae	0x402135 <.text+0x135>
  40212a: 00 00                        	addb	%al, (%eax)
  40212c: 0a 28                        	orb	(%eax), %ch
  40212e: 0c 00                        	orb	$0, %al
  402130: 00 0a                        	addb	%cl, (%edx)
  402132: 6f                           	outsl	(%esi), %dx
  402133: 0d 00 00 0a 7d               	orl	$2097807360, %eax       # imm = 0x7D0A0000
  402138: 01 00                        	addl	%eax, (%eax)
  40213a: 00 04 11                     	addb	%al, (%ecx,%edx)
  40213d: 04 7b                        	addb	$123, %al
  40213f: 01 00                        	addl	%eax, (%eax)
  402141: 00 04 1f                     	addb	%al, (%edi,%ebx)
  402144: 0f 8d 09 00 00 01            	jge	0x1402153
  40214a: 25 d0 12 01 00               	andl	$70352, %eax            # imm = 0x112D0
  40214f: 04 28                        	addb	$40, %al
  402151: 06                           	pushl	%es
  402152: 00 00                        	addb	%al, (%eax)
  402154: 0a 73 07                     	orb	7(%ebx), %dh
  402157: 00 00                        	addb	%al, (%eax)
  402159: 0a 6f 0e                     	orb	14(%edi), %ch
  40215c: 00 00                        	addb	%al, (%eax)
  40215e: 0a 2c 1a                     	orb	(%edx,%ebx), %ch
  402161: 1e                           	pushl	%ds
  402162: 8d 09                        	leal	(%ecx), %ecx
  402164: 00 00                        	addb	%al, (%eax)
  402166: 01 25 d0 fd 00 00            	addl	%esp, 64976
  40216c: 04 28                        	addb	$40, %al
  40216e: 06                           	pushl	%es
  40216f: 00 00                        	addb	%al, (%eax)
  402171: 0a 73 07                     	orb	7(%ebx), %dh
  402174: 00 00                        	addb	%al, (%eax)
  402176: 0a 13                        	orb	(%ebx), %dl
  402178: 06                           	pushl	%es
  402179: 2b 4f 09                     	subl	9(%edi), %ecx
  40217c: 1f                           	popl	%ds
  40217d: 3e 8d 09                     	leal	%ds:(%ecx), %ecx
  402180: 00 00                        	addb	%al, (%eax)
  402182: 01 25 d0 ca 00 00            	addl	%esp, 51920
  402188: 04 28                        	addb	$40, %al
  40218a: 06                           	pushl	%es
  40218b: 00 00                        	addb	%al, (%eax)
  40218d: 0a 73 07                     	orb	7(%ebx), %dh

--- Symbol Table (first 50 entries) ---

/home/analyst/ir-alalysis/samples/malware/ecb3e0b81361f60b06ab29343e128f6548eb6d086862303ff74e5736955915bb.exe:	file format coff-i386

SYMBOL TABLE:

NOTE: For true binary-to-LLVM IR lifting, consider using:
  - mcsema: https://github.com/lifting-bits/mcsema
  - remill: https://github.com/lifting-bits/remill
  - rellic: https://github.com/lifting-bits/rellic

==========================================
LLVM analysis completed successfully
==========================================
LLVM analysis: SUCCESS
	Command being timed: "/home/analyst/ir-alalysis/scripts/analyze_llvm.sh /home/analyst/ir-alalysis/samples/malware/ecb3e0b81361f60b06ab29343e128f6548eb6d086862303ff74e5736955915bb.exe"
	User time (seconds): 0.02
	System time (seconds): 0.06
	Percent of CPU this job got: 96%
	Elapsed (wall clock) time (h:mm:ss or m:ss): 0:00.08
	Average shared text size (kbytes): 0
	Average unshared data size (kbytes): 0
	Average stack size (kbytes): 0
	Average total size (kbytes): 0
	Maximum resident set size (kbytes): 51712
	Average resident set size (kbytes): 0
	Major (requiring I/O) page faults: 0
	Minor (reclaiming a frame) page faults: 10063
	Voluntary context switches: 102
	Involuntary context switches: 130
	Swaps: 0
	File system inputs: 0
	File system outputs: 24
	Socket messages sent: 0
	Socket messages received: 0
	Signals delivered: 0
	Page size (bytes): 4096
	Exit status: 0

Completed: ecb3e0b81361f60b06ab29343e128f6548eb6d086862303ff74e5736955915bb.exe

========================================
Processing sample 45: ee647ff01dce02a0a2edf3974ce6ff426d7383dd1533c6b9426739b43a55583a.elf
========================================

--- Ghidra P-code Analysis ---

Ghidra analysis: SUCCESS
==========================================
Ghidra Headless Analysis
==========================================
Binary:  /home/analyst/ir-alalysis/samples/malware/ee647ff01dce02a0a2edf3974ce6ff426d7383dd1533c6b9426739b43a55583a.elf
Project: ghidra_analysis_ee647ff01dce02a0a2edf3974ce6ff426d7383dd1533c6b9426739b43a55583a.elf_20251025_203435
Location: ./ghidra_projects
==========================================
INFO  Using log config file: jar:file:/home/analyst/ghidra/Ghidra/Framework/Generic/lib/Generic.jar!/generic.log4j.xml (LoggingInitialization)  
INFO  Using log file: /home/analyst/.config/ghidra/ghidra_11.4.2_PUBLIC/application.log (LoggingInitialization)  
INFO  Loading user preferences: /home/analyst/.config/ghidra/ghidra_11.4.2_PUBLIC/preferences (Preferences)  
INFO  Searching for classes... (ClassSearcher)  
INFO  Class search complete (1392 ms) (ClassSearcher)  
INFO  Initializing SSL Context (SSLContextInitializer)  
INFO  Initializing Random Number Generator... (SecureRandomFactory)  
INFO  Random Number Generator initialization complete: NativePRNGNonBlocking (SecureRandomFactory)  
INFO  Trust manager disabled, cacerts have not been set (ApplicationTrustManagerFactory)  
INFO  Headless startup complete (4448 ms) (AnalyzeHeadless)  
INFO  Class searcher loaded 58 extension points (18 false positives) (ClassSearcher)  
INFO  HEADLESS Script Paths:
    /home/analyst/ghidra/Ghidra/Features/GnuDemangler/ghidra_scripts
    /home/analyst/ghidra/Ghidra/Features/BytePatterns/ghidra_scripts
    /home/analyst/ghidra/Ghidra/Features/SystemEmulation/ghidra_scripts
    /home/analyst/ghidra/Ghidra/Processors/DATA/ghidra_scripts
    /home/analyst/ghidra/Ghidra/Features/PyGhidra/ghidra_scripts
    /home/analyst/ghidra/Ghidra/Features/MicrosoftCodeAnalyzer/ghidra_scripts
    /home/analyst/ghidra/Ghidra/Features/Base/ghidra_scripts
    /home/analyst/ghidra/Ghidra/Features/Jython/ghidra_scripts
    /home/analyst/ghidra/Ghidra/Features/VersionTracking/ghidra_scripts
    /home/analyst/ghidra/Ghidra/Features/PDB/ghidra_scripts
    /home/analyst/ghidra/Ghidra/Processors/Atmel/ghidra_scripts
    /home/analyst/ghidra/Ghidra/Debug/Debugger-rmi-trace/ghidra_scripts
    /home/analyst/ghidra/Ghidra/Features/FileFormats/ghidra_scripts
    /home/analyst/ghidra/Ghidra/Processors/JVM/ghidra_scripts
    /home/analyst/ghidra/Ghidra/Debug/Debugger/ghidra_scripts
    /home/analyst/ghidra/Ghidra/Processors/PIC/ghidra_scripts
    /home/analyst/ghidra/Ghidra/Features/WildcardAssembler/ghidra_scripts
    /home/analyst/ghidra/Ghidra/Processors/8051/ghidra_scripts
    /home/analyst/ghidra/Ghidra/Features/Decompiler/ghidra_scripts
    /home/analyst/ghidra/Ghidra/Features/DecompilerDependent/ghidra_scripts
    /home/analyst/ghidra/Ghidra/Features/FunctionID/ghidra_scripts
    /home/analyst/ghidra/Ghidra/Features/SwiftDemangler/ghidra_scripts
    /home/analyst/ghidra/Ghidra/Features/BSim/ghidra_scripts (HeadlessAnalyzer)  
INFO  HEADLESS: execution starts (HeadlessAnalyzer)  
INFO  Creating temporary project: /home/analyst/ir-alalysis/./ghidra_projects/ghidra_analysis_ee647ff01dce02a0a2edf3974ce6ff426d7383dd1533c6b9426739b43a55583a.elf_20251025_203435 (HeadlessAnalyzer)  
INFO  Creating project: /home/analyst/ir-alalysis/./ghidra_projects/ghidra_analysis_ee647ff01dce02a0a2edf3974ce6ff426d7383dd1533c6b9426739b43a55583a.elf_20251025_203435 (DefaultProject)  
INFO  REPORT: Processing input files:  (HeadlessAnalyzer)  
INFO       project: /home/analyst/ir-alalysis/./ghidra_projects/ghidra_analysis_ee647ff01dce02a0a2edf3974ce6ff426d7383dd1533c6b9426739b43a55583a.elf_20251025_203435 (HeadlessAnalyzer)  
INFO  IMPORTING: file:///home/analyst/ir-alalysis/samples/malware/ee647ff01dce02a0a2edf3974ce6ff426d7383dd1533c6b9426739b43a55583a.elf (HeadlessAnalyzer)  
INFO  Using Loader: Executable and Linking Format (ELF) (AutoImporter)  
INFO  Using Language/Compiler: SuperH4:LE:32:default:default (AutoImporter)  
INFO  Using Library Search Path: [., /bin, /lib, /lib64, /lib/x86_64-linux-gnu, /lib/aarch64-linux-gnu, /usr/bin, /usr/lib, /usr/X11R6/bin, /usr/X11R6/lib, /usr/java/packages/lib, /usr/lib/x86_64-linux-gnu/jni, /usr/lib/x86_64-linux-gnu, /usr/lib/jni] (AutoImporter)  
INFO  Additional info:
Loading file:///home/analyst/ir-alalysis/samples/malware/ee647ff01dce02a0a2edf3974ce6ff426d7383dd1533c6b9426739b43a55583a.elf?MD5=02b0267c9c2ab6597272c438f9457ee2...
------------------------------------------------

 (AutoImporter)  
INFO  IMPORTING: Loaded 0 additional files (HeadlessAnalyzer)  
INFO  ANALYZING all memory and code: file:///home/analyst/ir-alalysis/samples/malware/ee647ff01dce02a0a2edf3974ce6ff426d7383dd1533c6b9426739b43a55583a.elf (HeadlessAnalyzer)  
ERROR REPORT: Analysis timed out at 0 seconds. Processing not completed for file: file:///home/analyst/ir-alalysis/samples/malware/ee647ff01dce02a0a2edf3974ce6ff426d7383dd1533c6b9426739b43a55583a.elf (HeadlessAnalyzer)  
INFO  SCRIPT: /home/analyst/ir-alalysis/scripts/get_cfg_stats.py (HeadlessAnalyzer)  
GHIDRA_STATS:Functions=250
GHIDRA_STATS:BasicBlocks=0
GHIDRA_STATS:TotalPcodeOps=0
INFO  ANALYZING changes made by post scripts: file:///home/analyst/ir-alalysis/samples/malware/ee647ff01dce02a0a2edf3974ce6ff426d7383dd1533c6b9426739b43a55583a.elf (HeadlessAnalyzer)  
INFO  REPORT: Post-analysis succeeded for file: file:///home/analyst/ir-alalysis/samples/malware/ee647ff01dce02a0a2edf3974ce6ff426d7383dd1533c6b9426739b43a55583a.elf (HeadlessAnalyzer)  
INFO  REPORT: Save succeeded for: /ee647ff01dce02a0a2edf3974ce6ff426d7383dd1533c6b9426739b43a55583a.elf (ghidra_analysis_ee647ff01dce02a0a2edf3974ce6ff426d7383dd1533c6b9426739b43a55583a.elf_20251025_203435:/ee647ff01dce02a0a2edf3974ce6ff426d7383dd1533c6b9426739b43a55583a.elf) (HeadlessAnalyzer)  
INFO  REPORT: Import succeeded (HeadlessAnalyzer)  
==========================================
Ghidra analysis completed successfully
==========================================

Ghidra CFG Stats:
GHIDRA_STATS:Functions=250
GHIDRA_STATS:BasicBlocks=0
GHIDRA_STATS:TotalPcodeOps=0

Ghidra Performance:
	Elapsed (wall clock) time (h:mm:ss or m:ss): 0:18.96
	Maximum resident set size (kbytes): 725184

--- angr VEX IR Analysis ---

angr analysis: SUCCESS
==================================================
angr VEX IR Analysis
==================================================
Binary: /home/analyst/ir-alalysis/samples/malware/ee647ff01dce02a0a2edf3974ce6ff426d7383dd1533c6b9426739b43a55583a.elf
==================================================
Loading binary with angr...
Architecture: SuperH4:LE:32:default
Entry point: 0x4001a0
Binary base address: 0x400000

Generating CFG with angr...
Functions discovered: 605
Basic blocks (CFG nodes): 4963
CFG edges: 7423

Counting VEX IR statements...
Total VEX statements: 0

--- angr CFG & IR Stats ---
ANGR_STATS:Functions=605
ANGR_STATS:Nodes=4963
ANGR_STATS:Edges=7423
ANGR_STATS:TotalVexStatements=0
---------------------------

Sample functions (first 10):
  - _init @ 0x400094
  - sub_4000ac @ 0x4000ac
  - sub_4000b4 @ 0x4000b4
  - sub_4000b8 @ 0x4000b8
  - __do_global_dtors_aux @ 0x4000e0
  - sub_40013c @ 0x40013c
  - frame_dummy @ 0x400140
  - sub_40018a @ 0x40018a
  - _start @ 0x4001a0
  - sub_4001be @ 0x4001be
==================================================
angr analysis completed successfully
==================================================

angr CFG Stats:
ANGR_STATS:Functions=605
ANGR_STATS:Nodes=4963
ANGR_STATS:Edges=7423
ANGR_STATS:TotalVexStatements=0

angr Performance:
	Elapsed (wall clock) time (h:mm:ss or m:ss): 0:06.43
	Maximum resident set size (kbytes): 244140

--- LLVM IR Analysis ---

==========================================
LLVM IR Analysis
==========================================
Binary:  /home/analyst/ir-alalysis/samples/malware/ee647ff01dce02a0a2edf3974ce6ff426d7383dd1533c6b9426739b43a55583a.elf
==========================================

Detected native binary (not LLVM bitcode)
Performing LLVM-based binary analysis...

--- Binary Information ---

/home/analyst/ir-alalysis/samples/malware/ee647ff01dce02a0a2edf3974ce6ff426d7383dd1533c6b9426739b43a55583a.elf:	file format elf32-unknown

Sections:
Idx Name          Size     VMA      Type
  0               00000000 00000000 
  1 .init         00000030 00400094 TEXT
  2 .text         00010b60 004000e0 TEXT
  3 .fini         00000024 00410c40 TEXT
  4 .rodata       00003704 00410c64 DATA
  5 .eh_frame     00000004 00414368 DATA
  6 .ctors        00000008 0042436c DATA
  7 .dtors        00000008 00424374 DATA
  8 .jcr          00000004 0042437c DATA
  9 .data         00000400 00424380 DATA
 10 .got          00000010 00424780 DATA
 11 .bss          0000636c 00424790 BSS
 12 .comment      00000b64 00000000 
 13 .shstrtab     0000006b 00000000 
 14 .symtab       00002ec0 00000000 
 15 .strtab       00002326 00000000 

--- Disassembly (first 100 instructions) ---

/home/analyst/ir-alalysis/samples/malware/ee647ff01dce02a0a2edf3974ce6ff426d7383dd1533c6b9426739b43a55583a.elf:	file format elf32-unknown
llvm-objdump: error: '/home/analyst/ir-alalysis/samples/malware/ee647ff01dce02a0a2edf3974ce6ff426d7383dd1533c6b9426739b43a55583a.elf': can't find target: : error: unable to get target for 'unknown--', see --version and --triple.


--- Symbol Table (first 50 entries) ---

/home/analyst/ir-alalysis/samples/malware/ee647ff01dce02a0a2edf3974ce6ff426d7383dd1533c6b9426739b43a55583a.elf:	file format elf32-unknown

SYMBOL TABLE:
00400094 l    d  .init	00000000 .init
004000e0 l    d  .text	00000000 .text
00410c40 l    d  .fini	00000000 .fini
00410c64 l    d  .rodata	00000000 .rodata
00414368 l    d  .eh_frame	00000000 .eh_frame
0042436c l    d  .ctors	00000000 .ctors
00424374 l    d  .dtors	00000000 .dtors
0042437c l    d  .jcr	00000000 .jcr
00424380 l    d  .data	00000000 .data
00424780 l    d  .got	00000000 .got
00424790 l    d  .bss	00000000 .bss
00000000 l    d  .comment	00000000 .comment
00000000 l    d  .shstrtab	00000000 .shstrtab
00000000 l    d  .symtab	00000000 .symtab
00000000 l    d  .strtab	00000000 .strtab
00000000 l    df *ABS*	00000000 crti.S
00000000 l    df *ABS*	00000000 libc/sysdeps/linux/sh/crti.S
00000000 l    df *ABS*	00000000 crtstuff.c
0042436c l     O .ctors	00000000 __CTOR_LIST__
00424374 l     O .dtors	00000000 __DTOR_LIST__
00414368 l     O .eh_frame	00000000 __EH_FRAME_BEGIN__
0042437c l     O .jcr	00000000 __JCR_LIST__
00424790 l     O .bss	00000001 completed.2217
00424384 l     O .data	00000000 p.2215
004000e0 l     F .text	00000000 __do_global_dtors_aux
00424794 l     O .bss	00000018 object.2270
00400140 l     F .text	00000000 frame_dummy
00000000 l    df *ABS*	00000000 crtstuff.c
00424370 l     O .ctors	00000000 __CTOR_END__
00424378 l     O .dtors	00000000 __DTOR_END__
00414368 l     O .eh_frame	00000000 __FRAME_END__
0042437c l     O .jcr	00000000 __JCR_END__
00410c00 l     F .text	00000000 __do_global_ctors_aux
00000000 l    df *ABS*	00000000 crtn.S
00000000 l    df *ABS*	00000000 libc/sysdeps/linux/sh/crtn.S
00000000 l    df *ABS*	00000000 libc/sysdeps/linux/sh/crt1.S
004001c8 l       .text	00000000 L_fini
004001c0 l       .text	00000000 L_main
004001c4 l       .text	00000000 L_init
004001cc l       .text	00000000 L_uClibc_main
004001d0 l       .text	00000000 L_abort
00000000 l    df *ABS*	00000000 bot.c
00424398 l     O .data	00000004 c
004247c8 l     O .bss	00004000 Q
0042439c l     O .data	00000004 i.3593
004004cc l     F .text	00000068 printchar
00400534 l     F .text	00000158 prints
0040068c l     F .text	00000198 printi
00400824 l     F .text	00000430 print
004287c8 l     O .bss	00000004 fdopen_pids
00410c90 l     O .rodata	00000400 hextable

NOTE: For true binary-to-LLVM IR lifting, consider using:
  - mcsema: https://github.com/lifting-bits/mcsema
  - remill: https://github.com/lifting-bits/remill
  - rellic: https://github.com/lifting-bits/rellic

==========================================
LLVM analysis completed successfully
==========================================
LLVM analysis: SUCCESS
	Command being timed: "/home/analyst/ir-alalysis/scripts/analyze_llvm.sh /home/analyst/ir-alalysis/samples/malware/ee647ff01dce02a0a2edf3974ce6ff426d7383dd1533c6b9426739b43a55583a.elf"
	User time (seconds): 0.03
	System time (seconds): 0.06
	Percent of CPU this job got: 91%
	Elapsed (wall clock) time (h:mm:ss or m:ss): 0:00.10
	Average shared text size (kbytes): 0
	Average unshared data size (kbytes): 0
	Average stack size (kbytes): 0
	Average total size (kbytes): 0
	Maximum resident set size (kbytes): 50688
	Average resident set size (kbytes): 0
	Major (requiring I/O) page faults: 0
	Minor (reclaiming a frame) page faults: 9977
	Voluntary context switches: 25
	Involuntary context switches: 77
	Swaps: 0
	File system inputs: 0
	File system outputs: 8
	Socket messages sent: 0
	Socket messages received: 0
	Signals delivered: 0
	Page size (bytes): 4096
	Exit status: 0

Completed: ee647ff01dce02a0a2edf3974ce6ff426d7383dd1533c6b9426739b43a55583a.elf

========================================
Processing sample 46: f0421fbbd98d289ad10f72e3b34b7916ca3a12a5a808c9882968be736d7ab5d7.elf
========================================

--- Ghidra P-code Analysis ---

Ghidra analysis: SUCCESS
==========================================
Ghidra Headless Analysis
==========================================
Binary:  /home/analyst/ir-alalysis/samples/malware/f0421fbbd98d289ad10f72e3b34b7916ca3a12a5a808c9882968be736d7ab5d7.elf
Project: ghidra_analysis_f0421fbbd98d289ad10f72e3b34b7916ca3a12a5a808c9882968be736d7ab5d7.elf_20251025_203500
Location: ./ghidra_projects
==========================================
INFO  Using log config file: jar:file:/home/analyst/ghidra/Ghidra/Framework/Generic/lib/Generic.jar!/generic.log4j.xml (LoggingInitialization)  
INFO  Using log file: /home/analyst/.config/ghidra/ghidra_11.4.2_PUBLIC/application.log (LoggingInitialization)  
INFO  Loading user preferences: /home/analyst/.config/ghidra/ghidra_11.4.2_PUBLIC/preferences (Preferences)  
INFO  Searching for classes... (ClassSearcher)  
INFO  Class search complete (1061 ms) (ClassSearcher)  
INFO  Initializing SSL Context (SSLContextInitializer)  
INFO  Initializing Random Number Generator... (SecureRandomFactory)  
INFO  Random Number Generator initialization complete: NativePRNGNonBlocking (SecureRandomFactory)  
INFO  Trust manager disabled, cacerts have not been set (ApplicationTrustManagerFactory)  
INFO  Headless startup complete (3552 ms) (AnalyzeHeadless)  
INFO  Class searcher loaded 58 extension points (18 false positives) (ClassSearcher)  
INFO  HEADLESS Script Paths:
    /home/analyst/ghidra/Ghidra/Features/GnuDemangler/ghidra_scripts
    /home/analyst/ghidra/Ghidra/Features/BytePatterns/ghidra_scripts
    /home/analyst/ghidra/Ghidra/Features/SystemEmulation/ghidra_scripts
    /home/analyst/ghidra/Ghidra/Processors/DATA/ghidra_scripts
    /home/analyst/ghidra/Ghidra/Features/PyGhidra/ghidra_scripts
    /home/analyst/ghidra/Ghidra/Features/MicrosoftCodeAnalyzer/ghidra_scripts
    /home/analyst/ghidra/Ghidra/Features/Base/ghidra_scripts
    /home/analyst/ghidra/Ghidra/Features/Jython/ghidra_scripts
    /home/analyst/ghidra/Ghidra/Features/VersionTracking/ghidra_scripts
    /home/analyst/ghidra/Ghidra/Features/PDB/ghidra_scripts
    /home/analyst/ghidra/Ghidra/Processors/Atmel/ghidra_scripts
    /home/analyst/ghidra/Ghidra/Debug/Debugger-rmi-trace/ghidra_scripts
    /home/analyst/ghidra/Ghidra/Features/FileFormats/ghidra_scripts
    /home/analyst/ghidra/Ghidra/Processors/JVM/ghidra_scripts
    /home/analyst/ghidra/Ghidra/Debug/Debugger/ghidra_scripts
    /home/analyst/ghidra/Ghidra/Processors/PIC/ghidra_scripts
    /home/analyst/ghidra/Ghidra/Features/WildcardAssembler/ghidra_scripts
    /home/analyst/ghidra/Ghidra/Processors/8051/ghidra_scripts
    /home/analyst/ghidra/Ghidra/Features/Decompiler/ghidra_scripts
    /home/analyst/ghidra/Ghidra/Features/DecompilerDependent/ghidra_scripts
    /home/analyst/ghidra/Ghidra/Features/FunctionID/ghidra_scripts
    /home/analyst/ghidra/Ghidra/Features/SwiftDemangler/ghidra_scripts
    /home/analyst/ghidra/Ghidra/Features/BSim/ghidra_scripts (HeadlessAnalyzer)  
INFO  HEADLESS: execution starts (HeadlessAnalyzer)  
INFO  Creating temporary project: /home/analyst/ir-alalysis/./ghidra_projects/ghidra_analysis_f0421fbbd98d289ad10f72e3b34b7916ca3a12a5a808c9882968be736d7ab5d7.elf_20251025_203500 (HeadlessAnalyzer)  
INFO  Creating project: /home/analyst/ir-alalysis/./ghidra_projects/ghidra_analysis_f0421fbbd98d289ad10f72e3b34b7916ca3a12a5a808c9882968be736d7ab5d7.elf_20251025_203500 (DefaultProject)  
INFO  REPORT: Processing input files:  (HeadlessAnalyzer)  
INFO       project: /home/analyst/ir-alalysis/./ghidra_projects/ghidra_analysis_f0421fbbd98d289ad10f72e3b34b7916ca3a12a5a808c9882968be736d7ab5d7.elf_20251025_203500 (HeadlessAnalyzer)  
INFO  IMPORTING: file:///home/analyst/ir-alalysis/samples/malware/f0421fbbd98d289ad10f72e3b34b7916ca3a12a5a808c9882968be736d7ab5d7.elf (HeadlessAnalyzer)  
INFO  Using Loader: Executable and Linking Format (ELF) (AutoImporter)  
INFO  Using Language/Compiler: ARM:LE:32:v8:default (AutoImporter)  
INFO  Using Library Search Path: [., /bin, /lib, /lib64, /lib/x86_64-linux-gnu, /lib/aarch64-linux-gnu, /usr/bin, /usr/lib, /usr/X11R6/bin, /usr/X11R6/lib, /usr/java/packages/lib, /usr/lib/x86_64-linux-gnu/jni, /usr/lib/x86_64-linux-gnu, /usr/lib/jni] (AutoImporter)  
INFO  Additional info:
Loading file:///home/analyst/ir-alalysis/samples/malware/f0421fbbd98d289ad10f72e3b34b7916ca3a12a5a808c9882968be736d7ab5d7.elf?MD5=1b1a09480960454641d71ae1bd00f5f9...
------------------------------------------------

 (AutoImporter)  
INFO  IMPORTING: Loaded 0 additional files (HeadlessAnalyzer)  
INFO  ANALYZING all memory and code: file:///home/analyst/ir-alalysis/samples/malware/f0421fbbd98d289ad10f72e3b34b7916ca3a12a5a808c9882968be736d7ab5d7.elf (HeadlessAnalyzer)  
ERROR REPORT: Analysis timed out at 0 seconds. Processing not completed for file: file:///home/analyst/ir-alalysis/samples/malware/f0421fbbd98d289ad10f72e3b34b7916ca3a12a5a808c9882968be736d7ab5d7.elf (HeadlessAnalyzer)  
INFO  SCRIPT: /home/analyst/ir-alalysis/scripts/get_cfg_stats.py (HeadlessAnalyzer)  
GHIDRA_STATS:Functions=258
GHIDRA_STATS:BasicBlocks=0
GHIDRA_STATS:TotalPcodeOps=0
INFO  ANALYZING changes made by post scripts: file:///home/analyst/ir-alalysis/samples/malware/f0421fbbd98d289ad10f72e3b34b7916ca3a12a5a808c9882968be736d7ab5d7.elf (HeadlessAnalyzer)  
INFO  REPORT: Post-analysis succeeded for file: file:///home/analyst/ir-alalysis/samples/malware/f0421fbbd98d289ad10f72e3b34b7916ca3a12a5a808c9882968be736d7ab5d7.elf (HeadlessAnalyzer)  
INFO  REPORT: Save succeeded for: /f0421fbbd98d289ad10f72e3b34b7916ca3a12a5a808c9882968be736d7ab5d7.elf (ghidra_analysis_f0421fbbd98d289ad10f72e3b34b7916ca3a12a5a808c9882968be736d7ab5d7.elf_20251025_203500:/f0421fbbd98d289ad10f72e3b34b7916ca3a12a5a808c9882968be736d7ab5d7.elf) (HeadlessAnalyzer)  
INFO  REPORT: Import succeeded (HeadlessAnalyzer)  
==========================================
Ghidra analysis completed successfully
==========================================

Ghidra CFG Stats:
GHIDRA_STATS:Functions=258
GHIDRA_STATS:BasicBlocks=0
GHIDRA_STATS:TotalPcodeOps=0

Ghidra Performance:
	Elapsed (wall clock) time (h:mm:ss or m:ss): 0:18.11
	Maximum resident set size (kbytes): 723572

--- angr VEX IR Analysis ---

angr analysis: SUCCESS
==================================================
angr VEX IR Analysis
==================================================
Binary: /home/analyst/ir-alalysis/samples/malware/f0421fbbd98d289ad10f72e3b34b7916ca3a12a5a808c9882968be736d7ab5d7.elf
==================================================
Loading binary with angr...
Architecture: ARMEL
Entry point: 0x8190
Binary base address: 0x8000

Generating CFG with angr...
Functions discovered: 414
Basic blocks (CFG nodes): 3842
CFG edges: 8477

Counting VEX IR statements...
Total VEX statements: 79348

--- angr CFG & IR Stats ---
ANGR_STATS:Functions=414
ANGR_STATS:Nodes=3842
ANGR_STATS:Edges=8477
ANGR_STATS:TotalVexStatements=79348
---------------------------

Sample functions (first 10):
  - _init @ 0x8094
  - __do_global_dtors_aux @ 0x80b0
  - call___do_global_dtors_aux @ 0x8128
  - frame_dummy @ 0x8130
  - call_frame_dummy @ 0x8188
  - _start @ 0x8190
  - sub_81bc @ 0x81bc
  - init_rand @ 0x81cc
  - rand_cmwc @ 0x82a0
  - trim @ 0x83d8
==================================================
angr analysis completed successfully
==================================================

angr CFG Stats:
ANGR_STATS:Functions=414
ANGR_STATS:Nodes=3842
ANGR_STATS:Edges=8477
ANGR_STATS:TotalVexStatements=79348

angr Performance:
	Elapsed (wall clock) time (h:mm:ss or m:ss): 0:08.36
	Maximum resident set size (kbytes): 151360

--- LLVM IR Analysis ---

==========================================
LLVM IR Analysis
==========================================
Binary:  /home/analyst/ir-alalysis/samples/malware/f0421fbbd98d289ad10f72e3b34b7916ca3a12a5a808c9882968be736d7ab5d7.elf
==========================================

Detected native binary (not LLVM bitcode)
Performing LLVM-based binary analysis...

--- Binary Information ---

/home/analyst/ir-alalysis/samples/malware/f0421fbbd98d289ad10f72e3b34b7916ca3a12a5a808c9882968be736d7ab5d7.elf:	file format elf32-littlearm

Sections:
Idx Name           Size     VMA      Type
  0                00000000 00000000 
  1 .init          00000018 00008094 TEXT
  2 .text          00011474 000080b0 TEXT
  3 .fini          00000014 00019524 TEXT
  4 .rodata        00003744 00019538 DATA
  5 .eh_frame      00000004 0001cc7c DATA
  6 .ctors         00000008 00025000 DATA
  7 .dtors         00000008 00025008 DATA
  8 .jcr           00000004 00025010 DATA
  9 .data          00000408 00025014 DATA
 10 .bss           0000636c 0002541c BSS
 11 .comment       00000b68 00000000 
 12 .debug_aranges 000000a0 00000000 DEBUG
 13 .debug_info    0000030c 00000000 DEBUG
 14 .debug_abbrev  00000064 00000000 DEBUG
 15 .debug_line    000002e7 00000000 DEBUG
 16 .debug_frame   000000a0 00000000 DEBUG
 17 .shstrtab      000000a8 00000000 
 18 .symtab        00004620 00000000 
 19 .strtab        00002469 00000000 

--- Disassembly (first 100 instructions) ---

/home/analyst/ir-alalysis/samples/malware/f0421fbbd98d289ad10f72e3b34b7916ca3a12a5a808c9882968be736d7ab5d7.elf:	file format elf32-littlearm

Disassembly of section .init:

00008094 <_init>:
    8094: 0d c0 a0 e1  	mov	r12, sp
    8098: f0 df 2d e9  	push	{r4, r5, r6, r7, r8, r9, r10, r11, r12, lr, pc}
    809c: 04 b0 4c e2  	sub	r11, r12, #4

000080a0 <$a>:
    80a0: 22 00 00 eb  	bl	0x8130 <frame_dummy>    @ imm = #136

000080a4 <$a>:
    80a4: 0f 45 00 eb  	bl	0x194e8 <__do_global_ctors_aux> @ imm = #70716

000080a8 <$a>:
    80a8: f0 af 1b e9  	ldmdb	r11, {r4, r5, r6, r7, r8, r9, r10, r11, sp, pc}

Disassembly of section .text:

000080b0 <__do_global_dtors_aux>:
    80b0: 30 40 2d e9  	push	{r4, r5, lr}
    80b4: 5c 50 9f e5  	ldr	r5, [pc, #92]           @ 0x8118 <$d>
    80b8: 00 30 d5 e5  	ldrb	r3, [r5]
    80bc: 00 00 53 e3  	cmp	r3, #0
    80c0: 30 80 bd 18  	popne	{r4, r5, pc}
    80c4: 50 40 9f e5  	ldr	r4, [pc, #80]           @ 0x811c <$d+0x4>
    80c8: 00 30 94 e5  	ldr	r3, [r4]
    80cc: 00 20 93 e5  	ldr	r2, [r3]
    80d0: 00 00 52 e3  	cmp	r2, #0
    80d4: 07 00 00 0a  	beq	0x80f8 <__do_global_dtors_aux+0x48> @ imm = #28
    80d8: 04 30 83 e2  	add	r3, r3, #4
    80dc: 00 30 84 e5  	str	r3, [r4]
    80e0: 0f e0 a0 e1  	mov	lr, pc
    80e4: 02 f0 a0 e1  	mov	pc, r2
    80e8: 00 30 94 e5  	ldr	r3, [r4]
    80ec: 00 20 93 e5  	ldr	r2, [r3]
    80f0: 00 00 52 e3  	cmp	r2, #0
    80f4: f7 ff ff 1a  	bne	0x80d8 <__do_global_dtors_aux+0x28> @ imm = #-36
    80f8: 20 30 9f e5  	ldr	r3, [pc, #32]           @ 0x8120 <$d+0x8>
    80fc: 00 00 53 e3  	cmp	r3, #0
    8100: 1c 00 9f 15  	ldrne	r0, [pc, #28]           @ 0x8124 <$d+0xc>
    8104: 0f e0 a0 11  	movne	lr, pc
    8108: 03 f0 a0 11  	movne	pc, r3
    810c: 01 30 a0 e3  	mov	r3, #1
    8110: 00 30 c5 e5  	strb	r3, [r5]
    8114: 30 80 bd e8  	pop	{r4, r5, pc}

00008118 <$d>:
    8118:	1c 54 02 00	.word	0x0002541c
    811c:	1c 50 02 00	.word	0x0002501c
    8120:	00 00 00 00	.word	0x00000000
    8124:	7c cc 01 00	.word	0x0001cc7c

00008128 <call___do_global_dtors_aux>:
    8128: 04 e0 2d e5  	str	lr, [sp, #-4]!
    812c: 04 f0 9d e4  	ldr	pc, [sp], #4

00008130 <frame_dummy>:
    8130: 3c 30 9f e5  	ldr	r3, [pc, #60]           @ 0x8174 <$d>
    8134: 00 00 53 e3  	cmp	r3, #0
    8138: 04 e0 2d e5  	str	lr, [sp, #-4]!
    813c: 34 00 9f e5  	ldr	r0, [pc, #52]           @ 0x8178 <$d+0x4>
    8140: 34 10 9f e5  	ldr	r1, [pc, #52]           @ 0x817c <$d+0x8>
    8144: 0f e0 a0 11  	movne	lr, pc
    8148: 03 f0 a0 11  	movne	pc, r3
    814c: 2c 00 9f e5  	ldr	r0, [pc, #44]           @ 0x8180 <$d+0xc>
    8150: 00 30 90 e5  	ldr	r3, [r0]
    8154: 00 00 53 e3  	cmp	r3, #0
    8158: 24 30 9f e5  	ldr	r3, [pc, #36]           @ 0x8184 <$d+0x10>
    815c: 04 f0 9d 04  	ldreq	pc, [sp], #4
    8160: 00 00 53 e3  	cmp	r3, #0
    8164: 04 f0 9d 04  	ldreq	pc, [sp], #4
    8168: 0f e0 a0 e1  	mov	lr, pc
    816c: 03 f0 a0 e1  	mov	pc, r3
    8170: 04 f0 9d e4  	ldr	pc, [sp], #4

00008174 <$d>:
    8174:	00 00 00 00	.word	0x00000000
    8178:	7c cc 01 00	.word	0x0001cc7c
    817c:	20 54 02 00	.word	0x00025420
    8180:	10 50 02 00	.word	0x00025010
    8184:	00 00 00 00	.word	0x00000000

00008188 <call_frame_dummy>:
    8188: 04 e0 2d e5  	str	lr, [sp, #-4]!
    818c: 04 f0 9d e4  	ldr	pc, [sp], #4

00008190 <_start>:
    8190: 00 b0 a0 e3  	mov	r11, #0
    8194: 00 e0 a0 e3  	mov	lr, #0
    8198: 04 10 9d e4  	ldr	r1, [sp], #4
    819c: 0d 20 a0 e1  	mov	r2, sp
    81a0: 04 20 2d e5  	str	r2, [sp, #-4]!
    81a4: 04 00 2d e5  	str	r0, [sp, #-4]!
    81a8: 10 c0 9f e5  	ldr	r12, [pc, #16]          @ 0x81c0 <$d>
    81ac: 04 c0 2d e5  	str	r12, [sp, #-4]!
    81b0: 0c 00 9f e5  	ldr	r0, [pc, #12]           @ 0x81c4 <$d+0x4>
    81b4: 0c 30 9f e5  	ldr	r3, [pc, #12]           @ 0x81c8 <$d+0x8>
    81b8: 42 33 00 ea  	b	0x14ec8 <__uClibc_main> @ imm = #52488
    81bc: 3a 30 00 eb  	bl	0x142ac <abort>         @ imm = #49384

000081c0 <$d>:
    81c0:	24 95 01 00	.word	0x00019524
    81c4:	d8 0c 01 00	.word	0x00010cd8
    81c8:	94 80 00 00	.word	0x00008094

000081cc <init_rand>:
    81cc: 0d c0 a0 e1  	mov	r12, sp
    81d0: 00 d8 2d e9  	push	{r11, r12, lr, pc}
    81d4: 04 b0 4c e2  	sub	r11, r12, #4
    81d8: 08 d0 4d e2  	sub	sp, sp, #8
    81dc: 14 00 0b e5  	str	r0, [r11, #-20]
    81e0: b0 20 9f e5  	ldr	r2, [pc, #176]          @ 0x8298 <$d>
    81e4: 14 30 1b e5  	ldr	r3, [r11, #-20]
    81e8: 00 30 82 e5  	str	r3, [r2]
    81ec: 14 30 1b e5  	ldr	r3, [r11, #-20]
    81f0: 9f 34 83 e2  	add	r3, r3, #-1627389952
    81f4: 32 37 43 e2  	sub	r3, r3, #13107200
    81f8: 86 3c 43 e2  	sub	r3, r3, #34304
    81fc: 47 30 43 e2  	sub	r3, r3, #71
    8200: 90 20 9f e5  	ldr	r2, [pc, #144]          @ 0x8298 <$d>
    8204: 04 30 82 e5  	str	r3, [r2, #4]
    8208: 14 30 1b e5  	ldr	r3, [r11, #-20]
    820c: 3d 34 83 e2  	add	r3, r3, #1023410176
    8210: 91 38 43 e2  	sub	r3, r3, #9502720
    8214: 32 3d 43 e2  	sub	r3, r3, #3200
    8218: 0e 30 43 e2  	sub	r3, r3, #14
    821c: 74 20 9f e5  	ldr	r2, [pc, #116]          @ 0x8298 <$d>
    8220: 08 30 82 e5  	str	r3, [r2, #8]
    8224: 03 30 a0 e3  	mov	r3, #3
    8228: 10 30 0b e5  	str	r3, [r11, #-16]
    822c: 12 00 00 ea  	b	0x827c <init_rand+0xb0> @ imm = #72
    8230: 10 00 1b e5  	ldr	r0, [r11, #-16]
    8234: 10 30 1b e5  	ldr	r3, [r11, #-16]
    8238: 03 20 43 e2  	sub	r2, r3, #3
    823c: 54 30 9f e5  	ldr	r3, [pc, #84]           @ 0x8298 <$d>
    8240: 02 11 93 e7  	ldr	r1, [r3, r2, lsl #2]
    8244: 10 30 1b e5  	ldr	r3, [r11, #-16]
    8248: 02 20 43 e2  	sub	r2, r3, #2
    824c: 44 30 9f e5  	ldr	r3, [pc, #68]           @ 0x8298 <$d>
    8250: 02 31 93 e7  	ldr	r3, [r3, r2, lsl #2]
    8254: 03 20 21 e0  	eor	r2, r1, r3
    8258: 10 30 1b e5  	ldr	r3, [r11, #-16]
    825c: 03 20 22 e0  	eor	r2, r2, r3
    8260: 34 30 9f e5  	ldr	r3, [pc, #52]           @ 0x829c <$d+0x4>
    8264: 03 20 22 e0  	eor	r2, r2, r3
    8268: 28 30 9f e5  	ldr	r3, [pc, #40]           @ 0x8298 <$d>
    826c: 00 21 83 e7  	str	r2, [r3, r0, lsl #2]

--- Symbol Table (first 50 entries) ---

/home/analyst/ir-alalysis/samples/malware/f0421fbbd98d289ad10f72e3b34b7916ca3a12a5a808c9882968be736d7ab5d7.elf:	file format elf32-littlearm

SYMBOL TABLE:
00008094 l    d  .init	00000000 .init
000080b0 l    d  .text	00000000 .text
00019524 l    d  .fini	00000000 .fini
00019538 l    d  .rodata	00000000 .rodata
0001cc7c l    d  .eh_frame	00000000 .eh_frame
00025000 l    d  .ctors	00000000 .ctors
00025008 l    d  .dtors	00000000 .dtors
00025010 l    d  .jcr	00000000 .jcr
00025014 l    d  .data	00000000 .data
0002541c l    d  .bss	00000000 .bss
00000000 l    d  .comment	00000000 .comment
00000000 l    d  .debug_aranges	00000000 .debug_aranges
00000000 l    d  .debug_info	00000000 .debug_info
00000000 l    d  .debug_abbrev	00000000 .debug_abbrev
00000000 l    d  .debug_line	00000000 .debug_line
00000000 l    d  .debug_frame	00000000 .debug_frame
00000000 l    d  .shstrtab	00000000 .shstrtab
00000000 l    d  .symtab	00000000 .symtab
00000000 l    d  .strtab	00000000 .strtab
00000000 l    df *ABS*	00000000 initfini.c
00000000 l    df *ABS*	00000000 libc/sysdeps/linux/arm/crti.S
00008094 l       .init	00000000 $a
00019524 l       .fini	00000000 $a
00000000 l    df *ABS*	00000000 crtstuff.c
00025014 l     O .data	00000000 force_to_data
00025000 l     O .ctors	00000000 __CTOR_LIST__
00025000 l       .ctors	00000000 $d
00025008 l     O .dtors	00000000 __DTOR_LIST__
00025008 l       .dtors	00000000 $d
0001cc7c l     O .eh_frame	00000000 __EH_FRAME_BEGIN__
00025010 l     O .jcr	00000000 __JCR_LIST__
0002541c l     O .bss	00000001 completed.2555
0002501c l     O .data	00000000 p.2553
0002501c l       .data	00000000 $d
000080b0 l     F .text	00000000 __do_global_dtors_aux
000080b0 l       .text	00000000 $a
00008118 l       .text	00000000 $d
00008128 l     F .text	00000000 call___do_global_dtors_aux
00008128 l       .text	00000000 $a
00019530 l       .fini	00000000 $a
00025420 l     O .bss	00000018 object.2636
00008130 l     F .text	00000000 frame_dummy
00008174 l       .text	00000000 $d
00008188 l     F .text	00000000 call_frame_dummy
00008188 l       .text	00000000 $a
000080a0 l       .init	00000000 $a
00000000 l    df *ABS*	00000000 crtstuff.c
00025418 l     O .data	00000000 force_to_data
00025004 l     O .ctors	00000000 __CTOR_END__
0002500c l     O .dtors	00000000 __DTOR_END__
0001cc7c l     O .eh_frame	00000000 __FRAME_END__

NOTE: For true binary-to-LLVM IR lifting, consider using:
  - mcsema: https://github.com/lifting-bits/mcsema
  - remill: https://github.com/lifting-bits/remill
  - rellic: https://github.com/lifting-bits/rellic

==========================================
LLVM analysis completed successfully
==========================================
LLVM analysis: SUCCESS
	Command being timed: "/home/analyst/ir-alalysis/scripts/analyze_llvm.sh /home/analyst/ir-alalysis/samples/malware/f0421fbbd98d289ad10f72e3b34b7916ca3a12a5a808c9882968be736d7ab5d7.elf"
	User time (seconds): 0.05
	System time (seconds): 0.09
	Percent of CPU this job got: 79%
	Elapsed (wall clock) time (h:mm:ss or m:ss): 0:00.18
	Average shared text size (kbytes): 0
	Average unshared data size (kbytes): 0
	Average stack size (kbytes): 0
	Average total size (kbytes): 0
	Maximum resident set size (kbytes): 52096
	Average resident set size (kbytes): 0
	Major (requiring I/O) page faults: 0
	Minor (reclaiming a frame) page faults: 10034
	Voluntary context switches: 121
	Involuntary context switches: 204
	Swaps: 0
	File system inputs: 0
	File system outputs: 24
	Socket messages sent: 0
	Socket messages received: 0
	Signals delivered: 0
	Page size (bytes): 4096
	Exit status: 0

Completed: f0421fbbd98d289ad10f72e3b34b7916ca3a12a5a808c9882968be736d7ab5d7.elf

========================================
Processing sample 47: f5d393c9c9688915c99dc33cedcf21b2927fad950d07145d3d1869b4f878582b.elf
========================================

--- Ghidra P-code Analysis ---

Ghidra analysis: SUCCESS
==========================================
Ghidra Headless Analysis
==========================================
Binary:  /home/analyst/ir-alalysis/samples/malware/f5d393c9c9688915c99dc33cedcf21b2927fad950d07145d3d1869b4f878582b.elf
Project: ghidra_analysis_f5d393c9c9688915c99dc33cedcf21b2927fad950d07145d3d1869b4f878582b.elf_20251025_203527
Location: ./ghidra_projects
==========================================
INFO  Using log config file: jar:file:/home/analyst/ghidra/Ghidra/Framework/Generic/lib/Generic.jar!/generic.log4j.xml (LoggingInitialization)  
INFO  Using log file: /home/analyst/.config/ghidra/ghidra_11.4.2_PUBLIC/application.log (LoggingInitialization)  
INFO  Loading user preferences: /home/analyst/.config/ghidra/ghidra_11.4.2_PUBLIC/preferences (Preferences)  
INFO  Searching for classes... (ClassSearcher)  
INFO  Class search complete (1209 ms) (ClassSearcher)  
INFO  Initializing SSL Context (SSLContextInitializer)  
INFO  Initializing Random Number Generator... (SecureRandomFactory)  
INFO  Random Number Generator initialization complete: NativePRNGNonBlocking (SecureRandomFactory)  
INFO  Trust manager disabled, cacerts have not been set (ApplicationTrustManagerFactory)  
INFO  Headless startup complete (4840 ms) (AnalyzeHeadless)  
INFO  Class searcher loaded 58 extension points (18 false positives) (ClassSearcher)  
INFO  HEADLESS Script Paths:
    /home/analyst/ghidra/Ghidra/Features/GnuDemangler/ghidra_scripts
    /home/analyst/ghidra/Ghidra/Features/BytePatterns/ghidra_scripts
    /home/analyst/ghidra/Ghidra/Features/SystemEmulation/ghidra_scripts
    /home/analyst/ghidra/Ghidra/Processors/DATA/ghidra_scripts
    /home/analyst/ghidra/Ghidra/Features/PyGhidra/ghidra_scripts
    /home/analyst/ghidra/Ghidra/Features/MicrosoftCodeAnalyzer/ghidra_scripts
    /home/analyst/ghidra/Ghidra/Features/Base/ghidra_scripts
    /home/analyst/ghidra/Ghidra/Features/Jython/ghidra_scripts
    /home/analyst/ghidra/Ghidra/Features/VersionTracking/ghidra_scripts
    /home/analyst/ghidra/Ghidra/Features/PDB/ghidra_scripts
    /home/analyst/ghidra/Ghidra/Processors/Atmel/ghidra_scripts
    /home/analyst/ghidra/Ghidra/Debug/Debugger-rmi-trace/ghidra_scripts
    /home/analyst/ghidra/Ghidra/Features/FileFormats/ghidra_scripts
    /home/analyst/ghidra/Ghidra/Processors/JVM/ghidra_scripts
    /home/analyst/ghidra/Ghidra/Debug/Debugger/ghidra_scripts
    /home/analyst/ghidra/Ghidra/Processors/PIC/ghidra_scripts
    /home/analyst/ghidra/Ghidra/Features/WildcardAssembler/ghidra_scripts
    /home/analyst/ghidra/Ghidra/Processors/8051/ghidra_scripts
    /home/analyst/ghidra/Ghidra/Features/Decompiler/ghidra_scripts
    /home/analyst/ghidra/Ghidra/Features/DecompilerDependent/ghidra_scripts
    /home/analyst/ghidra/Ghidra/Features/FunctionID/ghidra_scripts
    /home/analyst/ghidra/Ghidra/Features/SwiftDemangler/ghidra_scripts
    /home/analyst/ghidra/Ghidra/Features/BSim/ghidra_scripts (HeadlessAnalyzer)  
INFO  HEADLESS: execution starts (HeadlessAnalyzer)  
INFO  Creating temporary project: /home/analyst/ir-alalysis/./ghidra_projects/ghidra_analysis_f5d393c9c9688915c99dc33cedcf21b2927fad950d07145d3d1869b4f878582b.elf_20251025_203527 (HeadlessAnalyzer)  
INFO  Creating project: /home/analyst/ir-alalysis/./ghidra_projects/ghidra_analysis_f5d393c9c9688915c99dc33cedcf21b2927fad950d07145d3d1869b4f878582b.elf_20251025_203527 (DefaultProject)  
INFO  REPORT: Processing input files:  (HeadlessAnalyzer)  
INFO       project: /home/analyst/ir-alalysis/./ghidra_projects/ghidra_analysis_f5d393c9c9688915c99dc33cedcf21b2927fad950d07145d3d1869b4f878582b.elf_20251025_203527 (HeadlessAnalyzer)  
INFO  IMPORTING: file:///home/analyst/ir-alalysis/samples/malware/f5d393c9c9688915c99dc33cedcf21b2927fad950d07145d3d1869b4f878582b.elf (HeadlessAnalyzer)  
INFO  Using Loader: Executable and Linking Format (ELF) (AutoImporter)  
INFO  Using Language/Compiler: x86:LE:64:default:gcc (AutoImporter)  
INFO  Using Library Search Path: [., /bin, /lib, /lib64, /lib/x86_64-linux-gnu, /lib/aarch64-linux-gnu, /usr/bin, /usr/lib, /usr/X11R6/bin, /usr/X11R6/lib, /usr/java/packages/lib, /usr/lib/x86_64-linux-gnu/jni, /usr/lib/x86_64-linux-gnu, /usr/lib/jni] (AutoImporter)  
INFO  Additional info:
Loading file:///home/analyst/ir-alalysis/samples/malware/f5d393c9c9688915c99dc33cedcf21b2927fad950d07145d3d1869b4f878582b.elf?MD5=50d5341190ab1667f7ce8596f5f323da...
------------------------------------------------

 (AutoImporter)  
INFO  IMPORTING: Loaded 0 additional files (HeadlessAnalyzer)  
INFO  ANALYZING all memory and code: file:///home/analyst/ir-alalysis/samples/malware/f5d393c9c9688915c99dc33cedcf21b2927fad950d07145d3d1869b4f878582b.elf (HeadlessAnalyzer)  
ERROR REPORT: Analysis timed out at 0 seconds. Processing not completed for file: file:///home/analyst/ir-alalysis/samples/malware/f5d393c9c9688915c99dc33cedcf21b2927fad950d07145d3d1869b4f878582b.elf (HeadlessAnalyzer)  
INFO  SCRIPT: /home/analyst/ir-alalysis/scripts/get_cfg_stats.py (HeadlessAnalyzer)  
GHIDRA_STATS:Functions=249
GHIDRA_STATS:BasicBlocks=0
GHIDRA_STATS:TotalPcodeOps=0
INFO  ANALYZING changes made by post scripts: file:///home/analyst/ir-alalysis/samples/malware/f5d393c9c9688915c99dc33cedcf21b2927fad950d07145d3d1869b4f878582b.elf (HeadlessAnalyzer)  
INFO  REPORT: Post-analysis succeeded for file: file:///home/analyst/ir-alalysis/samples/malware/f5d393c9c9688915c99dc33cedcf21b2927fad950d07145d3d1869b4f878582b.elf (HeadlessAnalyzer)  
INFO  REPORT: Save succeeded for: /f5d393c9c9688915c99dc33cedcf21b2927fad950d07145d3d1869b4f878582b.elf (ghidra_analysis_f5d393c9c9688915c99dc33cedcf21b2927fad950d07145d3d1869b4f878582b.elf_20251025_203527:/f5d393c9c9688915c99dc33cedcf21b2927fad950d07145d3d1869b4f878582b.elf) (HeadlessAnalyzer)  
INFO  REPORT: Import succeeded (HeadlessAnalyzer)  
==========================================
Ghidra analysis completed successfully
==========================================

Ghidra CFG Stats:
GHIDRA_STATS:Functions=249
GHIDRA_STATS:BasicBlocks=0
GHIDRA_STATS:TotalPcodeOps=0

Ghidra Performance:
	Elapsed (wall clock) time (h:mm:ss or m:ss): 0:19.82
	Maximum resident set size (kbytes): 607936

--- angr VEX IR Analysis ---

angr analysis: FAILED
==================================================
angr VEX IR Analysis
==================================================
Binary: /home/analyst/ir-alalysis/samples/malware/f5d393c9c9688915c99dc33cedcf21b2927fad950d07145d3d1869b4f878582b.elf
==================================================
Loading binary with angr...
Architecture: AMD64
Entry point: 0x400194
Binary base address: 0x400000

Generating CFG with angr...

angr CFG Stats:
  (CFG stats not available)

angr Performance:
	Elapsed (wall clock) time (h:mm:ss or m:ss): 0:01.92
	Maximum resident set size (kbytes): 108896

--- LLVM IR Analysis ---

==========================================
LLVM IR Analysis
==========================================
Binary:  /home/analyst/ir-alalysis/samples/malware/f5d393c9c9688915c99dc33cedcf21b2927fad950d07145d3d1869b4f878582b.elf
==========================================

Detected native binary (not LLVM bitcode)
Performing LLVM-based binary analysis...

--- Binary Information ---

/home/analyst/ir-alalysis/samples/malware/f5d393c9c9688915c99dc33cedcf21b2927fad950d07145d3d1869b4f878582b.elf:	file format elf64-x86-64

Sections:
Idx Name          Size     VMA              Type
  0               00000000 0000000000000000 
  1 .init         00000013 00000000004000e8 TEXT
  2 .text         0000fee8 0000000000400100 TEXT
  3 .fini         0000000e 000000000040ffe8 TEXT
  4 .rodata       000042c0 0000000000410000 DATA
  5 .eh_frame     00000004 00000000004142c0 DATA
  6 .ctors        00000010 00000000005142c8 DATA
  7 .dtors        00000010 00000000005142d8 DATA
  8 .jcr          00000008 00000000005142e8 DATA
  9 .data         00000598 0000000000514300 DATA
 10 .bss          00006b70 00000000005148a0 BSS
 11 .comment      00000af8 0000000000000000 
 12 .shstrtab     00000066 0000000000000000 
 13 .symtab       000045a8 0000000000000000 
 14 .strtab       00002329 0000000000000000 

--- Disassembly (first 100 instructions) ---

/home/analyst/ir-alalysis/samples/malware/f5d393c9c9688915c99dc33cedcf21b2927fad950d07145d3d1869b4f878582b.elf:	file format elf64-x86-64

Disassembly of section .init:

00000000004000e8 <_init>:
  4000e8: 48 83 ec 08                  	subq	$8, %rsp
  4000ec: e8 5f 00 00 00               	callq	0x400150 <frame_dummy>
  4000f1: e8 ba fe 00 00               	callq	0x40ffb0 <__do_global_ctors_aux>
  4000f6: 48 83 c4 08                  	addq	$8, %rsp
  4000fa: c3                           	retq

Disassembly of section .text:

0000000000400100 <__do_global_dtors_aux>:
  400100: 80 3d 99 47 11 00 00         	cmpb	$0, 1132441(%rip)       # 0x5148a0 <completed.2761>
  400107: 55                           	pushq	%rbp
  400108: 48 89 e5                     	movq	%rsp, %rbp
  40010b: 74 10                        	je	0x40011d <__do_global_dtors_aux+0x1d>
  40010d: eb 38                        	jmp	0x400147 <__do_global_dtors_aux+0x47>
  40010f: 90                           	nop
  400110: 48 83 c0 08                  	addq	$8, %rax
  400114: 48 89 05 ed 41 11 00         	movq	%rax, 1130989(%rip)     # 0x514308 <p.2759>
  40011b: ff d2                        	callq	*%rdx
  40011d: 48 8b 05 e4 41 11 00         	movq	1130980(%rip), %rax     # 0x514308 <p.2759>
  400124: 48 8b 10                     	movq	(%rax), %rdx
  400127: 48 85 d2                     	testq	%rdx, %rdx
  40012a: 75 e4                        	jne	0x400110 <__do_global_dtors_aux+0x10>
  40012c: b8 00 00 00 00               	movl	$0, %eax
  400131: 48 85 c0                     	testq	%rax, %rax
  400134: 74 0a                        	je	0x400140 <__do_global_dtors_aux+0x40>
  400136: bf c0 42 41 00               	movl	$4276928, %edi          # imm = 0x4142C0
  40013b: e8 c0 fe bf ff               	callq	0x0 <write.c>
  400140: c6 05 59 47 11 00 01         	movb	$1, 1132377(%rip)       # 0x5148a0 <completed.2761>
  400147: c9                           	leave
  400148: c3                           	retq
  400149: 66 66 66 90                  	nop
  40014d: 66 66 90                     	nop

0000000000400150 <frame_dummy>:
  400150: 55                           	pushq	%rbp
  400151: b8 00 00 00 00               	movl	$0, %eax
  400156: 48 85 c0                     	testq	%rax, %rax
  400159: 48 89 e5                     	movq	%rsp, %rbp
  40015c: 74 0f                        	je	0x40016d <frame_dummy+0x1d>
  40015e: be c0 48 51 00               	movl	$5327040, %esi          # imm = 0x5148C0
  400163: bf c0 42 41 00               	movl	$4276928, %edi          # imm = 0x4142C0
  400168: e8 93 fe bf ff               	callq	0x0 <write.c>
  40016d: 48 83 3d 73 41 11 00 00      	cmpq	$0, 1130867(%rip)       # 0x5142e8 <__JCR_LIST__>
  400175: 74 19                        	je	0x400190 <frame_dummy+0x40>
  400177: b8 00 00 00 00               	movl	$0, %eax
  40017c: 48 85 c0                     	testq	%rax, %rax
  40017f: 74 0f                        	je	0x400190 <frame_dummy+0x40>
  400181: bf e8 42 51 00               	movl	$5325544, %edi          # imm = 0x5142E8
  400186: 49 89 c3                     	movq	%rax, %r11
  400189: c9                           	leave
  40018a: 41 ff e3                     	jmpq	*%r11
  40018d: 66 66 90                     	nop
  400190: c9                           	leave
  400191: c3                           	retq
  400192: 90                           	nop
  400193: 90                           	nop

0000000000400194 <_start>:
  400194: 31 ed                        	xorl	%ebp, %ebp
  400196: 49 89 d1                     	movq	%rdx, %r9
  400199: 5e                           	popq	%rsi
  40019a: 48 89 e2                     	movq	%rsp, %rdx
  40019d: 48 83 e4 f0                  	andq	$-16, %rsp
  4001a1: 50                           	pushq	%rax
  4001a2: 54                           	pushq	%rsp
  4001a3: 48 c7 c7 cc 80 40 00         	movq	$4227276, %rdi          # imm = 0x4080CC
  4001aa: 48 c7 c1 e8 00 40 00         	movq	$4194536, %rcx          # imm = 0x4000E8
  4001b1: 49 c7 c0 e8 ff 40 00         	movq	$4259816, %r8           # imm = 0x40FFE8
  4001b8: e8 c5 c3 00 00               	callq	0x40c582 <__uClibc_main>
  4001bd: f4                           	hlt
  4001be: 90                           	nop
  4001bf: 90                           	nop

00000000004001c0 <init_rand>:
  4001c0: 55                           	pushq	%rbp
  4001c1: 48 89 e5                     	movq	%rsp, %rbp
  4001c4: 89 7d ec                     	movl	%edi, -20(%rbp)
  4001c7: 8b 45 ec                     	movl	-20(%rbp), %eax
  4001ca: 89 05 50 47 11 00            	movl	%eax, 1132368(%rip)     # 0x514920 <Q>
  4001d0: 8b 45 ec                     	movl	-20(%rbp), %eax
  4001d3: 2d 47 86 c8 61               	subl	$1640531527, %eax       # imm = 0x61C88647
  4001d8: 89 05 46 47 11 00            	movl	%eax, 1132358(%rip)     # 0x514924 <Q+0x4>
  4001de: 8b 45 ec                     	movl	-20(%rbp), %eax
  4001e1: 05 72 f3 6e 3c               	addl	$1013904242, %eax       # imm = 0x3C6EF372
  4001e6: 89 05 3c 47 11 00            	movl	%eax, 1132348(%rip)     # 0x514928 <Q+0x8>
  4001ec: c7 45 fc 03 00 00 00         	movl	$3, -4(%rbp)
  4001f3: eb 3d                        	jmp	0x400232 <init_rand+0x72>
  4001f5: 8b 4d fc                     	movl	-4(%rbp), %ecx
  4001f8: 8b 45 fc                     	movl	-4(%rbp), %eax
  4001fb: 83 e8 03                     	subl	$3, %eax
  4001fe: 48 98                        	cltq
  400200: 8b 14 85 20 49 51 00         	movl	5327136(,%rax,4), %edx
  400207: 8b 45 fc                     	movl	-4(%rbp), %eax
  40020a: 83 e8 02                     	subl	$2, %eax
  40020d: 48 98                        	cltq
  40020f: 8b 04 85 20 49 51 00         	movl	5327136(,%rax,4), %eax
  400216: 31 c2                        	xorl	%eax, %edx
  400218: 8b 45 fc                     	movl	-4(%rbp), %eax
  40021b: 31 d0                        	xorl	%edx, %eax
  40021d: 89 c2                        	movl	%eax, %edx
  40021f: 81 f2 b9 79 37 9e            	xorl	$2654435769, %edx       # imm = 0x9E3779B9
  400225: 48 63 c1                     	movslq	%ecx, %rax
  400228: 89 14 85 20 49 51 00         	movl	%edx, 5327136(,%rax,4)
  40022f: ff 45 fc                     	incl	-4(%rbp)
  400232: 81 7d fc ff 0f 00 00         	cmpl	$4095, -4(%rbp)         # imm = 0xFFF
  400239: 7e ba                        	jle	0x4001f5 <init_rand+0x35>
  40023b: c9                           	leave
  40023c: c3                           	retq

000000000040023d <rand_cmwc>:
  40023d: 55                           	pushq	%rbp
  40023e: 48 89 e5                     	movq	%rsp, %rbp
  400241: 53                           	pushq	%rbx
  400242: 48 c7 45 e8 5e 49 00 00      	movq	$18782, -24(%rbp)       # imm = 0x495E
  40024a: c7 45 f4 fe ff ff ff         	movl	$4294967294, -12(%rbp)  # imm = 0xFFFFFFFE
  400251: 8b 05 dd 40 11 00            	movl	1130717(%rip), %eax     # 0x514334 <i.4039>
  400257: ff c0                        	incl	%eax
  400259: 25 ff 0f 00 00               	andl	$4095, %eax             # imm = 0xFFF
  40025e: 89 05 d0 40 11 00            	movl	%eax, 1130704(%rip)     # 0x514334 <i.4039>
  400264: 8b 05 ca 40 11 00            	movl	1130698(%rip), %eax     # 0x514334 <i.4039>
  40026a: 89 c0                        	movl	%eax, %eax
  40026c: 8b 04 85 20 49 51 00         	movl	5327136(,%rax,4), %eax
  400273: 89 c0                        	movl	%eax, %eax
  400275: 48 89 c2                     	movq	%rax, %rdx
  400278: 48 0f af 55 e8               	imulq	-24(%rbp), %rdx
  40027d: 8b 05 ad 40 11 00            	movl	1130669(%rip), %eax     # 0x514330 <c>
  400283: 89 c0                        	movl	%eax, %eax
  400285: 48 8d 04 02                  	leaq	(%rdx,%rax), %rax
  400289: 48 89 45 e0                  	movq	%rax, -32(%rbp)
  40028d: 48 8b 45 e0                  	movq	-32(%rbp), %rax
  400291: 48 c1 e8 20                  	shrq	$32, %rax
  400295: 89 05 95 40 11 00            	movl	%eax, 1130645(%rip)     # 0x514330 <c>
  40029b: 48 8b 45 e0                  	movq	-32(%rbp), %rax
  40029f: 89 c2                        	movl	%eax, %edx
  4002a1: 8b 05 89 40 11 00            	movl	1130633(%rip), %eax     # 0x514330 <c>
  4002a7: 8d 04 02                     	leal	(%rdx,%rax), %eax
  4002aa: 89 45 f0                     	movl	%eax, -16(%rbp)
  4002ad: 8b 05 7d 40 11 00            	movl	1130621(%rip), %eax     # 0x514330 <c>
  4002b3: 39 45 f0                     	cmpl	%eax, -16(%rbp)
  4002b6: 73 11                        	jae	0x4002c9 <rand_cmwc+0x8c>
  4002b8: ff 45 f0                     	incl	-16(%rbp)
  4002bb: 8b 05 6f 40 11 00            	movl	1130607(%rip), %eax     # 0x514330 <c>
  4002c1: ff c0                        	incl	%eax
  4002c3: 89 05 67 40 11 00            	movl	%eax, 1130599(%rip)     # 0x514330 <c>

--- Symbol Table (first 50 entries) ---

/home/analyst/ir-alalysis/samples/malware/f5d393c9c9688915c99dc33cedcf21b2927fad950d07145d3d1869b4f878582b.elf:	file format elf64-x86-64

SYMBOL TABLE:
00000000004000e8 l    d  .init	0000000000000000 .init
0000000000400100 l    d  .text	0000000000000000 .text
000000000040ffe8 l    d  .fini	0000000000000000 .fini
0000000000410000 l    d  .rodata	0000000000000000 .rodata
00000000004142c0 l    d  .eh_frame	0000000000000000 .eh_frame
00000000005142c8 l    d  .ctors	0000000000000000 .ctors
00000000005142d8 l    d  .dtors	0000000000000000 .dtors
00000000005142e8 l    d  .jcr	0000000000000000 .jcr
0000000000514300 l    d  .data	0000000000000000 .data
00000000005148a0 l    d  .bss	0000000000000000 .bss
0000000000000000 l    d  .comment	0000000000000000 .comment
0000000000000000 l    d  .shstrtab	0000000000000000 .shstrtab
0000000000000000 l    d  .symtab	0000000000000000 .symtab
0000000000000000 l    d  .strtab	0000000000000000 .strtab
0000000000000000 l    df *ABS*	0000000000000000 libc/sysdeps/linux/x86_64/crti.S
0000000000000000 l    df *ABS*	0000000000000000 crtstuff.c
00000000005142c8 l     O .ctors	0000000000000000 __CTOR_LIST__
00000000005142d8 l     O .dtors	0000000000000000 __DTOR_LIST__
00000000004142c0 l     O .eh_frame	0000000000000000 __EH_FRAME_BEGIN__
00000000005142e8 l     O .jcr	0000000000000000 __JCR_LIST__
00000000005148a0 l     O .bss	0000000000000001 completed.2761
0000000000514308 l     O .data	0000000000000000 p.2759
0000000000400100 l     F .text	0000000000000000 __do_global_dtors_aux
00000000005148c0 l     O .bss	0000000000000030 object.2814
0000000000400150 l     F .text	0000000000000000 frame_dummy
0000000000000000 l    df *ABS*	0000000000000000 crtstuff.c
00000000005142d0 l     O .ctors	0000000000000000 __CTOR_END__
00000000005142e0 l     O .dtors	0000000000000000 __DTOR_END__
00000000004142c0 l     O .eh_frame	0000000000000000 __FRAME_END__
00000000005142e8 l     O .jcr	0000000000000000 __JCR_END__
000000000040ffb0 l     F .text	0000000000000000 __do_global_ctors_aux
0000000000000000 l    df *ABS*	0000000000000000 initfini.c
0000000000000000 l    df *ABS*	0000000000000000 libc/sysdeps/linux/x86_64/crtn.S
0000000000000000 l    df *ABS*	0000000000000000 libc/sysdeps/linux/x86_64/crt1.S
0000000000000000 l    df *ABS*	0000000000000000 bot.c
0000000000514330 l     O .data	0000000000000004 c
0000000000514920 l     O .bss	0000000000004000 Q
0000000000514334 l     O .data	0000000000000004 i.4039
00000000004003bd l     F .text	000000000000004b printchar
0000000000400408 l     F .text	00000000000000df prints
00000000004004e7 l     F .text	0000000000000140 printi
0000000000400627 l     F .text	000000000000043c print
0000000000518920 l     O .bss	0000000000000008 fdopen_pids
0000000000410040 l     O .rodata	0000000000000800 hextable
0000000000410a20 l     O .rodata	0000000000000120 C.70.5014
0000000000410b40 l     O .rodata	0000000000000120 C.74.5057
0000000000410c60 l     O .rodata	0000000000000120 C.78.5099
0000000000410d80 l     O .rodata	0000000000000120 C.82.5141
0000000000410ea0 l     O .rodata	0000000000000120 C.86.5183
0000000000410fc0 l     O .rodata	0000000000000120 C.90.5225
00000000004110e0 l     O .rodata	0000000000000120 C.94.5267

NOTE: For true binary-to-LLVM IR lifting, consider using:
  - mcsema: https://github.com/lifting-bits/mcsema
  - remill: https://github.com/lifting-bits/remill
  - rellic: https://github.com/lifting-bits/rellic

==========================================
LLVM analysis completed successfully
==========================================
LLVM analysis: SUCCESS
	Command being timed: "/home/analyst/ir-alalysis/scripts/analyze_llvm.sh /home/analyst/ir-alalysis/samples/malware/f5d393c9c9688915c99dc33cedcf21b2927fad950d07145d3d1869b4f878582b.elf"
	User time (seconds): 0.02
	System time (seconds): 0.06
	Percent of CPU this job got: 98%
	Elapsed (wall clock) time (h:mm:ss or m:ss): 0:00.08
	Average shared text size (kbytes): 0
	Average unshared data size (kbytes): 0
	Average stack size (kbytes): 0
	Average total size (kbytes): 0
	Maximum resident set size (kbytes): 51968
	Average resident set size (kbytes): 0
	Major (requiring I/O) page faults: 0
	Minor (reclaiming a frame) page faults: 10027
	Voluntary context switches: 28
	Involuntary context switches: 37
	Swaps: 0
	File system inputs: 0
	File system outputs: 32
	Socket messages sent: 0
	Socket messages received: 0
	Signals delivered: 0
	Page size (bytes): 4096
	Exit status: 0

Completed: f5d393c9c9688915c99dc33cedcf21b2927fad950d07145d3d1869b4f878582b.elf

========================================
Processing sample 48: fa7affcfbf90caa5373143223653b5f0d8d664a485cac3bedf510d95908f440b.elf
========================================

--- Ghidra P-code Analysis ---

Ghidra analysis: SUCCESS
==========================================
Ghidra Headless Analysis
==========================================
Binary:  /home/analyst/ir-alalysis/samples/malware/fa7affcfbf90caa5373143223653b5f0d8d664a485cac3bedf510d95908f440b.elf
Project: ghidra_analysis_fa7affcfbf90caa5373143223653b5f0d8d664a485cac3bedf510d95908f440b.elf_20251025_203549
Location: ./ghidra_projects
==========================================
INFO  Using log config file: jar:file:/home/analyst/ghidra/Ghidra/Framework/Generic/lib/Generic.jar!/generic.log4j.xml (LoggingInitialization)  
INFO  Using log file: /home/analyst/.config/ghidra/ghidra_11.4.2_PUBLIC/application.log (LoggingInitialization)  
INFO  Loading user preferences: /home/analyst/.config/ghidra/ghidra_11.4.2_PUBLIC/preferences (Preferences)  
INFO  Searching for classes... (ClassSearcher)  
INFO  Class search complete (1136 ms) (ClassSearcher)  
INFO  Initializing SSL Context (SSLContextInitializer)  
INFO  Initializing Random Number Generator... (SecureRandomFactory)  
INFO  Random Number Generator initialization complete: NativePRNGNonBlocking (SecureRandomFactory)  
INFO  Trust manager disabled, cacerts have not been set (ApplicationTrustManagerFactory)  
INFO  Headless startup complete (4195 ms) (AnalyzeHeadless)  
INFO  Class searcher loaded 58 extension points (18 false positives) (ClassSearcher)  
INFO  HEADLESS Script Paths:
    /home/analyst/ghidra/Ghidra/Features/GnuDemangler/ghidra_scripts
    /home/analyst/ghidra/Ghidra/Features/BytePatterns/ghidra_scripts
    /home/analyst/ghidra/Ghidra/Features/SystemEmulation/ghidra_scripts
    /home/analyst/ghidra/Ghidra/Processors/DATA/ghidra_scripts
    /home/analyst/ghidra/Ghidra/Features/PyGhidra/ghidra_scripts
    /home/analyst/ghidra/Ghidra/Features/MicrosoftCodeAnalyzer/ghidra_scripts
    /home/analyst/ghidra/Ghidra/Features/Base/ghidra_scripts
    /home/analyst/ghidra/Ghidra/Features/Jython/ghidra_scripts
    /home/analyst/ghidra/Ghidra/Features/VersionTracking/ghidra_scripts
    /home/analyst/ghidra/Ghidra/Features/PDB/ghidra_scripts
    /home/analyst/ghidra/Ghidra/Processors/Atmel/ghidra_scripts
    /home/analyst/ghidra/Ghidra/Debug/Debugger-rmi-trace/ghidra_scripts
    /home/analyst/ghidra/Ghidra/Features/FileFormats/ghidra_scripts
    /home/analyst/ghidra/Ghidra/Processors/JVM/ghidra_scripts
    /home/analyst/ghidra/Ghidra/Debug/Debugger/ghidra_scripts
    /home/analyst/ghidra/Ghidra/Processors/PIC/ghidra_scripts
    /home/analyst/ghidra/Ghidra/Features/WildcardAssembler/ghidra_scripts
    /home/analyst/ghidra/Ghidra/Processors/8051/ghidra_scripts
    /home/analyst/ghidra/Ghidra/Features/Decompiler/ghidra_scripts
    /home/analyst/ghidra/Ghidra/Features/DecompilerDependent/ghidra_scripts
    /home/analyst/ghidra/Ghidra/Features/FunctionID/ghidra_scripts
    /home/analyst/ghidra/Ghidra/Features/SwiftDemangler/ghidra_scripts
    /home/analyst/ghidra/Ghidra/Features/BSim/ghidra_scripts (HeadlessAnalyzer)  
INFO  HEADLESS: execution starts (HeadlessAnalyzer)  
INFO  Creating temporary project: /home/analyst/ir-alalysis/./ghidra_projects/ghidra_analysis_fa7affcfbf90caa5373143223653b5f0d8d664a485cac3bedf510d95908f440b.elf_20251025_203549 (HeadlessAnalyzer)  
INFO  Creating project: /home/analyst/ir-alalysis/./ghidra_projects/ghidra_analysis_fa7affcfbf90caa5373143223653b5f0d8d664a485cac3bedf510d95908f440b.elf_20251025_203549 (DefaultProject)  
INFO  REPORT: Processing input files:  (HeadlessAnalyzer)  
INFO       project: /home/analyst/ir-alalysis/./ghidra_projects/ghidra_analysis_fa7affcfbf90caa5373143223653b5f0d8d664a485cac3bedf510d95908f440b.elf_20251025_203549 (HeadlessAnalyzer)  
INFO  IMPORTING: file:///home/analyst/ir-alalysis/samples/malware/fa7affcfbf90caa5373143223653b5f0d8d664a485cac3bedf510d95908f440b.elf (HeadlessAnalyzer)  
INFO  Using Loader: Executable and Linking Format (ELF) (AutoImporter)  
INFO  Using Language/Compiler: ARM:LE:32:v8:default (AutoImporter)  
INFO  Using Library Search Path: [., /bin, /lib, /lib64, /lib/x86_64-linux-gnu, /lib/aarch64-linux-gnu, /usr/bin, /usr/lib, /usr/X11R6/bin, /usr/X11R6/lib, /usr/java/packages/lib, /usr/lib/x86_64-linux-gnu/jni, /usr/lib/x86_64-linux-gnu, /usr/lib/jni] (AutoImporter)  
INFO  Additional info:
Loading file:///home/analyst/ir-alalysis/samples/malware/fa7affcfbf90caa5373143223653b5f0d8d664a485cac3bedf510d95908f440b.elf?MD5=b3a78003870a3ef52de13a20e0929b6d...
------------------------------------------------

 (AutoImporter)  
INFO  IMPORTING: Loaded 0 additional files (HeadlessAnalyzer)  
INFO  ANALYZING all memory and code: file:///home/analyst/ir-alalysis/samples/malware/fa7affcfbf90caa5373143223653b5f0d8d664a485cac3bedf510d95908f440b.elf (HeadlessAnalyzer)  
ERROR REPORT: Analysis timed out at 0 seconds. Processing not completed for file: file:///home/analyst/ir-alalysis/samples/malware/fa7affcfbf90caa5373143223653b5f0d8d664a485cac3bedf510d95908f440b.elf (HeadlessAnalyzer)  
INFO  SCRIPT: /home/analyst/ir-alalysis/scripts/get_cfg_stats.py (HeadlessAnalyzer)  
GHIDRA_STATS:Functions=1
GHIDRA_STATS:BasicBlocks=0
GHIDRA_STATS:TotalPcodeOps=0
INFO  ANALYZING changes made by post scripts: file:///home/analyst/ir-alalysis/samples/malware/fa7affcfbf90caa5373143223653b5f0d8d664a485cac3bedf510d95908f440b.elf (HeadlessAnalyzer)  
INFO  REPORT: Post-analysis succeeded for file: file:///home/analyst/ir-alalysis/samples/malware/fa7affcfbf90caa5373143223653b5f0d8d664a485cac3bedf510d95908f440b.elf (HeadlessAnalyzer)  
INFO  REPORT: Save succeeded for: /fa7affcfbf90caa5373143223653b5f0d8d664a485cac3bedf510d95908f440b.elf (ghidra_analysis_fa7affcfbf90caa5373143223653b5f0d8d664a485cac3bedf510d95908f440b.elf_20251025_203549:/fa7affcfbf90caa5373143223653b5f0d8d664a485cac3bedf510d95908f440b.elf) (HeadlessAnalyzer)  
INFO  REPORT: Import succeeded (HeadlessAnalyzer)  
==========================================
Ghidra analysis completed successfully
==========================================

Ghidra CFG Stats:
GHIDRA_STATS:Functions=1
GHIDRA_STATS:BasicBlocks=0
GHIDRA_STATS:TotalPcodeOps=0

Ghidra Performance:
	Elapsed (wall clock) time (h:mm:ss or m:ss): 0:17.33
	Maximum resident set size (kbytes): 651332

--- angr VEX IR Analysis ---

angr analysis: SUCCESS
==================================================
angr VEX IR Analysis
==================================================
Binary: /home/analyst/ir-alalysis/samples/malware/fa7affcfbf90caa5373143223653b5f0d8d664a485cac3bedf510d95908f440b.elf
==================================================
Loading binary with angr...
Architecture: ARMEL
Entry point: 0x816c
Binary base address: 0x8000

Generating CFG with angr...
Functions discovered: 533
Basic blocks (CFG nodes): 7526
CFG edges: 17781

Counting VEX IR statements...
Total VEX statements: 142958

--- angr CFG & IR Stats ---
ANGR_STATS:Functions=533
ANGR_STATS:Nodes=7526
ANGR_STATS:Edges=17781
ANGR_STATS:TotalVexStatements=142958
---------------------------

Sample functions (first 10):
  - sub_80b4 @ 0x80b4
  - sub_80c8 @ 0x80c8
  - sub_810c @ 0x810c
  - _start @ 0x816c
  - sub_8190 @ 0x8190
  - sub_81cc @ 0x81cc
  - sub_8234 @ 0x8234
  - sub_8294 @ 0x8294
  - sub_82c4 @ 0x82c4
  - sub_837c @ 0x837c
==================================================
angr analysis completed successfully
==================================================

angr CFG Stats:
ANGR_STATS:Functions=533
ANGR_STATS:Nodes=7526
ANGR_STATS:Edges=17781
ANGR_STATS:TotalVexStatements=142958

angr Performance:
	Elapsed (wall clock) time (h:mm:ss or m:ss): 0:11.34
	Maximum resident set size (kbytes): 205020

--- LLVM IR Analysis ---

==========================================
LLVM IR Analysis
==========================================
Binary:  /home/analyst/ir-alalysis/samples/malware/fa7affcfbf90caa5373143223653b5f0d8d664a485cac3bedf510d95908f440b.elf
==========================================

Detected native binary (not LLVM bitcode)
Performing LLVM-based binary analysis...

--- Binary Information ---

/home/analyst/ir-alalysis/samples/malware/fa7affcfbf90caa5373143223653b5f0d8d664a485cac3bedf510d95908f440b.elf:	file format elf32-littlearm

Sections:
Idx Name          Size     VMA      Type
  0               00000000 00000000 
  1 .init         00000014 000080b4 TEXT
  2 .text         0001da98 000080c8 TEXT
  3 .fini         00000014 00025b60 TEXT
  4 .rodata       00001b2c 00025b74 DATA
  5 .ARM.exidx    000000c8 000276a0 
  6 .init_array   00000004 00028004 
  7 .fini_array   00000004 00028008 
  8 .got          00000028 00028010 DATA
  9 .data         00000084 00028038 DATA
 10 .bss          0000bee0 000280c0 BSS
 11 .shstrtab     00000058 00000000 

--- Disassembly (first 100 instructions) ---

/home/analyst/ir-alalysis/samples/malware/fa7affcfbf90caa5373143223653b5f0d8d664a485cac3bedf510d95908f440b.elf:	file format elf32-littlearm

Disassembly of section .init:

000080b4 <.init>:
    80b4: 01 40 2d e9  	push	{r0, lr}
    80b8: 01 40 bd e8  	pop	{r0, lr}
    80bc: 01 00 1e e3  	tst	lr, #1
    80c0: 0e f0 a0 01  	moveq	pc, lr
    80c4: 1e ff 2f e1  	<unknown>

Disassembly of section .text:

000080c8 <.text>:
    80c8: 10 40 2d e9  	push	{r4, lr}
    80cc: 2c 40 9f e5  	ldr	r4, [pc, #44]           @ 0x8100 <.text+0x38>
    80d0: 00 30 d4 e5  	ldrb	r3, [r4]
    80d4: 00 00 53 e3  	cmp	r3, #0
    80d8: 06 00 00 1a  	bne	0x80f8 <.text+0x30>     @ imm = #24
    80dc: 20 30 9f e5  	ldr	r3, [pc, #32]           @ 0x8104 <.text+0x3c>
    80e0: 00 00 53 e3  	cmp	r3, #0
    80e4: 1c 00 9f 15  	ldrne	r0, [pc, #28]           @ 0x8108 <.text+0x40>
    80e8: 0f e0 a0 11  	movne	lr, pc
    80ec: 13 ff 2f 11  	<unknown>
    80f0: 01 30 a0 e3  	mov	r3, #1
    80f4: 00 30 c4 e5  	strb	r3, [r4]
    80f8: 10 40 bd e8  	pop	{r4, lr}
    80fc: 1e ff 2f e1  	<unknown>
    8100: c0 80 02 00  	andeq	r8, r2, r0, asr #1
    8104: 00 00 00 00  	andeq	r0, r0, r0
    8108: 00 80 02 00  	andeq	r8, r2, r0
    810c: 04 e0 2d e5  	str	lr, [sp, #-4]!
    8110: 40 30 9f e5  	ldr	r3, [pc, #64]           @ 0x8158 <.text+0x90>
    8114: 00 00 53 e3  	cmp	r3, #0
    8118: 04 d0 4d e2  	sub	sp, sp, #4
    811c: 38 00 9f 15  	ldrne	r0, [pc, #56]           @ 0x815c <.text+0x94>
    8120: 38 10 9f 15  	ldrne	r1, [pc, #56]           @ 0x8160 <.text+0x98>
    8124: 0f e0 a0 11  	movne	lr, pc
    8128: 13 ff 2f 11  	<unknown>
    812c: 30 00 9f e5  	ldr	r0, [pc, #48]           @ 0x8164 <.text+0x9c>
    8130: 00 30 90 e5  	ldr	r3, [r0]
    8134: 00 00 53 e3  	cmp	r3, #0
    8138: 03 00 00 0a  	beq	0x814c <.text+0x84>     @ imm = #12
    813c: 24 30 9f e5  	ldr	r3, [pc, #36]           @ 0x8168 <.text+0xa0>
    8140: 00 00 53 e3  	cmp	r3, #0
    8144: 0f e0 a0 11  	movne	lr, pc
    8148: 13 ff 2f 11  	<unknown>
    814c: 04 d0 8d e2  	add	sp, sp, #4
    8150: 04 e0 9d e4  	ldr	lr, [sp], #4
    8154: 1e ff 2f e1  	<unknown>
    8158: 00 00 00 00  	andeq	r0, r0, r0
    815c: 00 80 02 00  	andeq	r8, r2, r0
    8160: c4 80 02 00  	andeq	r8, r2, r4, asr #1
    8164: 0c 80 02 00  	andeq	r8, r2, r12
    8168: 00 00 00 00  	andeq	r0, r0, r0
    816c: 00 b0 a0 e3  	mov	r11, #0
    8170: 00 e0 a0 e3  	mov	lr, #0
    8174: 10 10 9f e5  	ldr	r1, [pc, #16]           @ 0x818c <.text+0xc4>
    8178: 01 10 8f e0  	add	r1, pc, r1
    817c: 0d 00 a0 e1  	mov	r0, sp
    8180: 0f c0 c0 e3  	bic	r12, r0, #15
    8184: 0c d0 a0 e1  	mov	sp, r12
    8188: 00 00 00 eb  	bl	0x8190 <.text+0xc8>     @ imm = #0
    818c: 80 7e ff ff  	<unknown>
    8190: 04 e0 2d e5  	str	lr, [sp, #-4]!
    8194: 24 c0 9f e5  	ldr	r12, [pc, #36]          @ 0x81c0 <.text+0xf8>
    8198: 00 30 a0 e1  	mov	r3, r0
    819c: 0c d0 4d e2  	sub	sp, sp, #12
    81a0: 00 10 93 e5  	ldr	r1, [r3]
    81a4: 04 20 80 e2  	add	r2, r0, #4
    81a8: 00 c0 8d e5  	str	r12, [sp]
    81ac: 10 00 9f e5  	ldr	r0, [pc, #16]           @ 0x81c4 <.text+0xfc>
    81b0: 00 c0 a0 e3  	mov	r12, #0
    81b4: 0c 30 9f e5  	ldr	r3, [pc, #12]           @ 0x81c8 <.text+0x100>
    81b8: 04 c0 8d e5  	str	r12, [sp, #4]
    81bc: 8f 3a 00 eb  	bl	0x16c00 <.text+0xeb38>  @ imm = #59964
    81c0: 60 5b 02 00  	andeq	r5, r2, r0, ror #22
    81c4: b4 f7 00 00  	strheq	pc, [r0], -r4
    81c8: b4 80 00 00  	strheq	r8, [r0], -r4
    81cc: 50 20 9f e5  	ldr	r2, [pc, #80]           @ 0x8224 <.text+0x15c>
    81d0: 50 c0 9f e5  	ldr	r12, [pc, #80]          @ 0x8228 <.text+0x160>
    81d4: 00 00 92 e5  	ldr	r0, [r2]
    81d8: 00 30 9c e5  	ldr	r3, [r12]
    81dc: 48 10 9f e5  	ldr	r1, [pc, #72]           @ 0x822c <.text+0x164>
    81e0: 00 30 82 e5  	str	r3, [r2]
    81e4: 00 30 91 e5  	ldr	r3, [r1]
    81e8: 40 20 9f e5  	ldr	r2, [pc, #64]           @ 0x8230 <.text+0x168>
    81ec: 00 30 8c e5  	str	r3, [r12]
    81f0: 00 30 92 e5  	ldr	r3, [r2]
    81f4: 00 30 81 e5  	str	r3, [r1]
    81f8: 00 30 92 e5  	ldr	r3, [r2]
    81fc: 00 10 92 e5  	ldr	r1, [r2]
    8200: a1 39 23 e0  	eor	r3, r3, r1, lsr #19
    8204: 00 30 82 e5  	str	r3, [r2]
    8208: 00 30 92 e5  	ldr	r3, [r2]
    820c: 80 05 20 e0  	eor	r0, r0, r0, lsl #11
    8210: 03 30 20 e0  	eor	r3, r0, r3
    8214: 20 34 23 e0  	eor	r3, r3, r0, lsr #8
    8218: 00 30 82 e5  	str	r3, [r2]
    821c: 00 00 92 e5  	ldr	r0, [r2]
    8220: 1e ff 2f e1  	<unknown>
    8224: dc 80 02 00  	ldrdeq	r8, r9, [r2], -r12
    8228: e0 80 02 00  	andeq	r8, r2, r0, ror #1
    822c: e4 80 02 00  	andeq	r8, r2, r4, ror #1
    8230: e8 80 02 00  	andeq	r8, r2, r8, ror #1
    8234: 70 40 2d e9  	push	{r4, r5, r6, lr}
    8238: 00 50 a0 e1  	mov	r5, r0
    823c: 01 40 a0 e1  	mov	r4, r1
    8240: 00 60 a0 e3  	mov	r6, #0
    8244: 0e 00 00 ea  	b	0x8284 <.text+0x1bc>    @ imm = #56
    8248: 03 00 54 e3  	cmp	r4, #3
    824c: 03 00 00 da  	ble	0x8260 <.text+0x198>    @ imm = #12
    8250: dd ff ff eb  	bl	0x81cc <.text+0x104>    @ imm = #-140
    8254: 04 00 85 e4  	str	r0, [r5], #4
    8258: 04 40 44 e2  	sub	r4, r4, #4
    825c: 08 00 00 ea  	b	0x8284 <.text+0x1bc>    @ imm = #32
    8260: 01 00 54 e3  	cmp	r4, #1
    8264: 02 40 44 e2  	sub	r4, r4, #2
    8268: 02 00 00 0a  	beq	0x8278 <.text+0x1b0>    @ imm = #8
    826c: d6 ff ff eb  	bl	0x81cc <.text+0x104>    @ imm = #-168
    8270: b2 00 c5 e0  	strh	r0, [r5], #2
    8274: 02 00 00 ea  	b	0x8284 <.text+0x1bc>    @ imm = #8
    8278: d3 ff ff eb  	bl	0x81cc <.text+0x104>    @ imm = #-180
    827c: 01 00 c5 e4  	strb	r0, [r5], #1
    8280: 06 40 a0 e1  	mov	r4, r6
    8284: 00 00 54 e3  	cmp	r4, #0
    8288: ee ff ff ca  	bgt	0x8248 <.text+0x180>    @ imm = #-72
    828c: 70 40 bd e8  	pop	{r4, r5, r6, lr}
    8290: 1e ff 2f e1  	<unknown>
    8294: 30 40 2d e9  	push	{r4, r5, lr}
    8298: 00 40 a0 e1  	mov	r4, r0
    829c: 04 d0 4d e2  	sub	sp, sp, #4
    82a0: 01 50 a0 e1  	mov	r5, r1
    82a4: c8 ff ff eb  	bl	0x81cc <.text+0x104>    @ imm = #-224
    82a8: 05 10 64 e0  	rsb	r1, r4, r5
    82ac: 58 39 00 eb  	bl	0x16814 <.text+0xe74c>  @ imm = #58720
    82b0: 01 40 84 e2  	add	r4, r4, #1
    82b4: 01 00 84 e0  	add	r0, r4, r1
    82b8: 04 d0 8d e2  	add	sp, sp, #4
    82bc: 30 40 bd e8  	pop	{r4, r5, lr}
    82c0: 1e ff 2f e1  	<unknown>
    82c4: f0 4f 2d e9  	push	{r4, r5, r6, r7, r8, r9, r10, r11, lr}
    82c8: 00 70 a0 e1  	mov	r7, r0
    82cc: 04 d0 4d e2  	sub	sp, sp, #4
    82d0: 23 00 a0 e3  	mov	r0, #35
    82d4: 01 60 a0 e1  	mov	r6, r1
    82d8: 7c 16 00 eb  	bl	0xdcd0 <.text+0x5c08>   @ imm = #23024
    82dc: 00 10 a0 e3  	mov	r1, #0
    82e0: 23 00 a0 e3  	mov	r0, #35

--- Symbol Table (first 50 entries) ---

/home/analyst/ir-alalysis/samples/malware/fa7affcfbf90caa5373143223653b5f0d8d664a485cac3bedf510d95908f440b.elf:	file format elf32-littlearm

SYMBOL TABLE:

NOTE: For true binary-to-LLVM IR lifting, consider using:
  - mcsema: https://github.com/lifting-bits/mcsema
  - remill: https://github.com/lifting-bits/remill
  - rellic: https://github.com/lifting-bits/rellic

==========================================
LLVM analysis completed successfully
==========================================
LLVM analysis: SUCCESS
	Command being timed: "/home/analyst/ir-alalysis/scripts/analyze_llvm.sh /home/analyst/ir-alalysis/samples/malware/fa7affcfbf90caa5373143223653b5f0d8d664a485cac3bedf510d95908f440b.elf"
	User time (seconds): 0.03
	System time (seconds): 0.06
	Percent of CPU this job got: 98%
	Elapsed (wall clock) time (h:mm:ss or m:ss): 0:00.10
	Average shared text size (kbytes): 0
	Average unshared data size (kbytes): 0
	Average stack size (kbytes): 0
	Average total size (kbytes): 0
	Maximum resident set size (kbytes): 51968
	Average resident set size (kbytes): 0
	Major (requiring I/O) page faults: 0
	Minor (reclaiming a frame) page faults: 9998
	Voluntary context switches: 95
	Involuntary context switches: 110
	Swaps: 0
	File system inputs: 0
	File system outputs: 16
	Socket messages sent: 0
	Socket messages received: 0
	Signals delivered: 0
	Page size (bytes): 4096
	Exit status: 0

Completed: fa7affcfbf90caa5373143223653b5f0d8d664a485cac3bedf510d95908f440b.elf

========================================
Benchmark Complete
========================================
Finished: Sat Oct 25 08:36:18 PM IST 2025
Samples processed: 48
Successful analyses: 86
Failed analyses: 10
Results saved to: /home/analyst/ir-alalysis/results/analysis_results.log
CSV summary saved to: 
=========================================
